##############################################################################
#                                                                            #
# IAR ARM ANSI C/C++ Compiler V4.42A/W32 EVALUATION    07/Jun/2011  15:55:25 #
# Copyright 1999-2005 IAR Systems. All rights reserved.                      #
#                                                                            #
#    Cpu mode        =  interwork                                            #
#    Endian          =  little                                               #
#    Stack alignment =  4                                                    #
#    Source file     =  F:\Phone\Making elf patches\Elf's\GlassUIWidget\file #
#                       \fileAnaliser.cpp                                    #
#    Command line    =  "F:\Phone\Making elf patches\Elf's\GlassUIWidget\fil #
#                       e\fileAnaliser.cpp" -lC "F:\Phone\Making elf         #
#                       patches\Elf's\GlassUIWidget\Release\List\" -lA       #
#                       "F:\Phone\Making elf patches\Elf's\GlassUIWidget\Rel #
#                       ease\List\" -o "F:\Phone\Making elf                  #
#                       patches\Elf's\GlassUIWidget\Release\Obj\" -s9        #
#                       --no_unroll --no_inline --cpu_mode arm --endian      #
#                       little --cpu ARM926EJ-S --stack_align 4 --interwork  #
#                       -e --enable_multibytes --fpu None --eec++            #
#                       --dlib_config "F:\Phone\Making elf                   #
#                       patches\IAR\Embedded Workbench 4.0                   #
#                       Evaluation\ARM\LIB\dl5tpainl8n.h" -I                 #
#                       "F:\Phone\Making elf patches\IAR\Embedded Workbench  #
#                       4.0 Evaluation\ARM\INC\"                             #
#    List file       =  F:\Phone\Making elf patches\Elf's\GlassUIWidget\Rele #
#                       ase\List\fileAnaliser.lst                            #
#    Object file     =  F:\Phone\Making elf patches\Elf's\GlassUIWidget\Rele #
#                       ase\Obj\fileAnaliser.r79                             #
#                                                                            #
#                                                                            #
##############################################################################

F:\Phone\Making elf patches\Elf's\GlassUIWidget\file\fileAnaliser.cpp
      1          #include "..\..\include\Lib_Clara.h"
      2          #include "..\..\include\Dir.h"
      3          #include "..\utils\utils.h"
      4          #include "fileAnaliser.h"
      5          

   \                                 In segment CODE, align 4, keep-with-next
      6          wchar_t* getDate() { //"2011/3/20"
      7            DATETIME dt;
      8            REQUEST_DATEANDTIME_GET(SYNC,&dt);
   \                     ??getDate:
   \   00000000   4C009FE5           LDR      R0,??getDate_1   ;; SYNC
   \   00000004   10402DE9           PUSH     {R4,LR}
   \   00000008   08D04DE2           SUB      SP,SP,#+8
   \   0000000C   000090E5           LDR      R0,[R0, #+0]
   \   00000010   0D10A0E1           MOV      R1,SP
   \   00000014   6E0100EF           SWI      +366
      9            wchar_t* data = new wchar_t[0x32];
   \   00000018   6400A0E3           MOV      R0,#+100
   \   0000001C   ........           _BLF     `??operator new[]`,`??operator new[]??rA`
     10            snwprintf(data,32,L"<Period StartDate=\"%u/%d/%d\">",dt.date.year,dt.date.mon,dt.date.day);
   \   00000020   30209FE5           LDR      R2,??getDate_1+0x4  ;; `?<Constant L"\\x3c\\x50\\x65\\x72\\x69\\x6f\\x64\\x20\\`
   \   00000024   0040A0E1           MOV      R4,R0
   \   00000028   0300DDE5           LDRB     R0,[SP, #+3]
   \   0000002C   2010A0E3           MOV      R1,#+32
   \   00000030   01002DE9           PUSH     {R0}
   \   00000034   0600DDE5           LDRB     R0,[SP, #+6]
   \   00000038   01002DE9           PUSH     {R0}
   \   0000003C   B830DDE1           LDRH     R3,[SP, #+8]
   \   00000040   0400A0E1           MOV      R0,R4
   \   00000044   150100EF           SWI      +277
     11            return data;
   \   00000048   0400A0E1           MOV      R0,R4
   \   0000004C   10D08DE2           ADD      SP,SP,#+16
   \   00000050   1080BDE8           POP      {R4,PC}          ;; return
   \                     ??getDate_1:
   \   00000054   ........           DC32     SYNC
   \   00000058   ........           DC32     `?<Constant L"\\x3c\\x50\\x65\\x72\\x69\\x6f\\x64\\x20\\`
     12          }
     13          

   \                                 In segment CODE, align 4, keep-with-next
     14          wchar_t* getTag(wchar_t* line, int pos, int& sizeOfTag) {
   \                     ??getTag:
   \   00000000   F0472DE9           PUSH     {R4-R10,LR}
   \   00000004   0040A0E1           MOV      R4,R0
   \   00000008   0150A0E1           MOV      R5,R1
   \   0000000C   0260A0E1           MOV      R6,R2
     15            int tagClose = wGetIndexOf(line, '>', 1, pos);
   \   00000010   0530A0E1           MOV      R3,R5
   \   00000014   0120A0E3           MOV      R2,#+1
   \   00000018   3E10A0E3           MOV      R1,#+62
   \   0000001C   ........           _BLF     ??wGetIndexOf,??wGetIndexOf??rA
   \   00000020   0080A0E1           MOV      R8,R0
     16            wchar_t* tag = new wchar_t[tagClose+0x2];
   \   00000024   020088E2           ADD      R0,R8,#+2
   \   00000028   8000A0E1           LSL      R0,R0,#+1
   \   0000002C   ........           _BLF     `??operator new[]`,`??operator new[]??rA`
   \   00000030   0070A0E1           MOV      R7,R0
     17            sizeOfTag = tagClose - pos + 2;
   \   00000034   050048E0           SUB      R0,R8,R5
   \   00000038   020080E2           ADD      R0,R0,#+2
   \   0000003C   000086E5           STR      R0,[R6, #+0]
     18            for (tagClose=0; tagClose < wstrlen(line) && line[pos + tagClose] != '>' && (tagClose < sizeOfTag); tagClose++)
   \   00000040   0080A0E3           MOV      R8,#+0
   \   00000044   020000EA           B        ??getTag_1
     19              tag[tagClose] = line[pos + tagClose];
   \                     ??getTag_2:
   \   00000048   B000DAE1           LDRH     R0,[R10, #+0]
   \   0000004C   018088E2           ADD      R8,R8,#+1
   \   00000050   B000C9E1           STRH     R0,[R9, #+0]
   \                     ??getTag_1:
   \   00000054   050088E0           ADD      R0,R8,R5
   \   00000058   80A084E0           ADD      R10,R4,R0, LSL #+1
   \   0000005C   889087E0           ADD      R9,R7,R8, LSL #+1
   \   00000060   0400A0E1           MOV      R0,R4
   \   00000064   570100EF           SWI      +343
   \   00000068   000058E1           CMP      R8,R0
   \   0000006C   050000AA           BGE      ??getTag_3
   \   00000070   B000DAE1           LDRH     R0,[R10, #+0]
   \   00000074   3E0050E3           CMP      R0,#+62
   \   00000078   0200000A           BEQ      ??getTag_3
   \   0000007C   000096E5           LDR      R0,[R6, #+0]
   \   00000080   000058E1           CMP      R8,R0
   \   00000084   EFFFFFBA           BLT      ??getTag_2
     20            tag[tagClose] = line[pos + tagClose];
   \                     ??getTag_3:
   \   00000088   B000DAE1           LDRH     R0,[R10, #+0]
   \   0000008C   B000C9E1           STRH     R0,[R9, #+0]
     21            tag[tagClose+0x1] = 0;
   \   00000090   0000A0E3           MOV      R0,#+0
   \   00000094   B200C9E1           STRH     R0,[R9, #+2]
     22            return tag;
   \   00000098   0700A0E1           MOV      R0,R7
   \   0000009C   F087BDE8           POP      {R4-R10,PC}      ;; return
     23          }
     24          

   \                                 In segment CODE, align 4, keep-with-next
     25          wchar_t* getEqualContent(wchar_t* fileContent, int& pos) {
   \                     ??getEqualContent:
   \   00000000   70402DE9           PUSH     {R4-R6,LR}
   \   00000004   0040A0E1           MOV      R4,R0
   \   00000008   0150A0E1           MOV      R5,R1
     26            int indexOfEqual = wGetIndexOf(fileContent,'=',1,pos);
   \   0000000C   003095E5           LDR      R3,[R5, #+0]
   \   00000010   0120A0E3           MOV      R2,#+1
   \   00000014   3D10A0E3           MOV      R1,#+61
   \   00000018   ........           _BLF     ??wGetIndexOf,??wGetIndexOf??rA
     27            indexOfEqual+=2;
   \   0000001C   026080E2           ADD      R6,R0,#+2
     28            int indexOfQuotes = wGetIndexOf(fileContent,'"',1,indexOfEqual);
   \   00000020   0630A0E1           MOV      R3,R6
   \   00000024   0120A0E3           MOV      R2,#+1
   \   00000028   2210A0E3           MOV      R1,#+34
   \   0000002C   0400A0E1           MOV      R0,R4
   \   00000030   ........           _BLF     ??wGetIndexOf,??wGetIndexOf??rA
     29            pos = indexOfQuotes;
   \   00000034   000085E5           STR      R0,[R5, #+0]
     30          
     31            return getWSubStr(fileContent,indexOfEqual,indexOfQuotes-1);
   \   00000038   012040E2           SUB      R2,R0,#+1
   \   0000003C   0610A0E1           MOV      R1,R6
   \   00000040   0400A0E1           MOV      R0,R4
   \   00000044   7040BDE8           POP      {R4-R6,LR}       ;; Pop
   \   00000048   ........           _BF      ??getWSubStr,??getWSubStr??rA  ;; tailcall
     32          }
     33          

   \                                 In segment CODE, align 4, keep-with-next
     34          int getDayState(wchar_t* fileContent,int& pos) {
   \                     ??getDayState:
   \   00000000   10402DE9           PUSH     {R4,LR}
   \   00000004   04D04DE2           SUB      SP,SP,#+4
     35            int dayState_ = 0;
   \   00000008   0030A0E3           MOV      R3,#+0
   \   0000000C   00308DE5           STR      R3,[SP, #+0]
     36          
     37            wchar_t* dayState = getEqualContent(fileContent,pos); //getWSubStr(fileContent,indexOfEqual,indexOfQuotes-1);
   \   00000010   ........           BL       ??getEqualContent
     38            swscanf (dayState, L"%d", &dayState_);
   \   00000014   18109FE5           LDR      R1,??getDayState_1  ;; `?<Constant L"\\x25\\x64">`
   \   00000018   0040A0E1           MOV      R4,R0
   \   0000001C   0D20A0E1           MOV      R2,SP
   \   00000020   CC0300EF           SWI      +972
     39            delete dayState; dayState = NULL;
   \   00000024   0400A0E1           MOV      R0,R4
   \   00000028   ........           _BLF     `??operator delete`,`??operator delete??rA`
     40            
     41            return dayState_;
   \   0000002C   00009DE5           LDR      R0,[SP, #+0]
   \   00000030   1280BDE8           POP      {R1,R4,PC}       ;; return
   \                     ??getDayState_1:
   \   00000034   ........           DC32     `?<Constant L"\\x25\\x64">`
     42          }
     43          

   \                                 In segment CODE, align 4, keep-with-next
     44          wchar_t* getLocation(wchar_t* fileContent, int& cursor) {
   \                     ??getLocation:
   \   00000000   30402DE9           PUSH     {R4,R5,LR}
   \   00000004   0040A0E1           MOV      R4,R0
   \   00000008   0150A0E1           MOV      R5,R1
   \   0000000C   010000EA           B        ??getLocation_1
     45                while (cursor < wstrlen(fileContent)) {
     46                  if (fileContent[cursor] == '<' && fileContent[cursor+0x1] == 'F')
     47                    return getEqualContent(fileContent,cursor);
     48                  cursor++;
   \                     ??getLocation_2:
   \   00000010   010081E2           ADD      R0,R1,#+1
   \   00000014   000085E5           STR      R0,[R5, #+0]
   \                     ??getLocation_1:
   \   00000018   0400A0E1           MOV      R0,R4
   \   0000001C   570100EF           SWI      +343
   \   00000020   001095E5           LDR      R1,[R5, #+0]
   \   00000024   000051E1           CMP      R1,R0
   \   00000028   090000AA           BGE      ??getLocation_3
   \   0000002C   810084E0           ADD      R0,R4,R1, LSL #+1
   \   00000030   B020D0E1           LDRH     R2,[R0, #+0]
   \   00000034   3C0052E3           CMP      R2,#+60
   \   00000038   B200D001           LDRHEQ   R0,[R0, #+2]
   \   0000003C   46005003           CMPEQ    R0,#+70
   \   00000040   F2FFFF1A           BNE      ??getLocation_2
   \   00000044   0510A0E1           MOV      R1,R5
   \   00000048   0400A0E1           MOV      R0,R4
   \   0000004C   3040BDE8           POP      {R4,R5,LR}       ;; Pop
   \   00000050   ........           B        ??getEqualContent  ;; tailcall
     49                }
     50                return NULL;
   \                     ??getLocation_3:
   \   00000054   0000A0E3           MOV      R0,#+0
   \   00000058   3080BDE8           POP      {R4,R5,PC}       ;; return
     51          }
     52          

   \                                 In segment CODE, align 4, keep-with-next
     53          wchar_t* getWeatherConditions(wchar_t* num, wchar_t* xmlContent) {
   \                     ??getWeatherConditions:
   \   00000000   70402DE9           PUSH     {R4-R6,LR}
   \   00000004   04D04DE2           SUB      SP,SP,#+4
   \   00000008   0040A0E1           MOV      R4,R0
   \   0000000C   0150A0E1           MOV      R5,R1
     54            wchar_t* tag = NULL;
     55            for (int i=0; i<wstrlen(xmlContent);i++){
   \   00000010   0010A0E3           MOV      R1,#+0
   \   00000014   050000EA           B        ??getWeatherConditions_1
     56              if (xmlContent[i] == '"') {
     57                tag = getWSubStr(xmlContent,i+1,wGetIndexOf(xmlContent,'"',1,i+1));
     58                if (compareWchar(tag,num)) {
     59                  delete tag; tag = NULL;
     60                  return getEqualContent(xmlContent,i);
     61                }
     62                if (tag != NULL) { delete tag; tag = NULL; }
   \                     ??getWeatherConditions_2:
   \   00000018   000056E3           CMP      R6,#+0
   \   0000001C   0100000A           BEQ      ??getWeatherConditions_3
   \   00000020   0600A0E1           MOV      R0,R6
   \   00000024   ........           _BLF     `??operator delete`,`??operator delete??rA`
   \                     ??getWeatherConditions_3:
   \   00000028   00109DE5           LDR      R1,[SP, #+0]
   \   0000002C   011081E2           ADD      R1,R1,#+1
   \                     ??getWeatherConditions_1:
   \   00000030   00108DE5           STR      R1,[SP, #+0]
   \   00000034   0500A0E1           MOV      R0,R5
   \   00000038   570100EF           SWI      +343
   \   0000003C   00109DE5           LDR      R1,[SP, #+0]
   \   00000040   000051E1           CMP      R1,R0
   \   00000044   180000AA           BGE      ??getWeatherConditions_4
   \   00000048   810085E0           ADD      R0,R5,R1, LSL #+1
   \   0000004C   B000D0E1           LDRH     R0,[R0, #+0]
   \   00000050   220050E3           CMP      R0,#+34
   \   00000054   F3FFFF1A           BNE      ??getWeatherConditions_3
   \   00000058   013081E2           ADD      R3,R1,#+1
   \   0000005C   0120A0E3           MOV      R2,#+1
   \   00000060   2210A0E3           MOV      R1,#+34
   \   00000064   0500A0E1           MOV      R0,R5
   \   00000068   ........           _BLF     ??wGetIndexOf,??wGetIndexOf??rA
   \   0000006C   0020A0E1           MOV      R2,R0
   \   00000070   00009DE5           LDR      R0,[SP, #+0]
   \   00000074   011080E2           ADD      R1,R0,#+1
   \   00000078   0500A0E1           MOV      R0,R5
   \   0000007C   ........           _BLF     ??getWSubStr,??getWSubStr??rA
   \   00000080   0060A0E1           MOV      R6,R0
   \   00000084   0410A0E1           MOV      R1,R4
   \   00000088   ........           _BLF     ??compareWchar,??compareWchar??rA
   \   0000008C   000050E3           CMP      R0,#+0
   \   00000090   E0FFFF0A           BEQ      ??getWeatherConditions_2
   \   00000094   0600A0E1           MOV      R0,R6
   \   00000098   ........           _BLF     `??operator delete`,`??operator delete??rA`
   \   0000009C   0D10A0E1           MOV      R1,SP
   \   000000A0   0500A0E1           MOV      R0,R5
   \   000000A4   ........           BL       ??getEqualContent
   \   000000A8   7280BDE8           POP      {R1,R4-R6,PC}
     63              }
     64            }
     65            return NULL;
   \                     ??getWeatherConditions_4:
   \   000000AC   0000A0E3           MOV      R0,#+0
   \   000000B0   7280BDE8           POP      {R1,R4-R6,PC}    ;; return
     66          }
     67          

   \                                 In segment CODE, align 4, keep-with-next
     68          Weather* getWeather(wchar_t* fileContent, int& pos, wchar_t* xmlContent) {
   \                     ??getWeather:
   \   00000000   F0432DE9           PUSH     {R4-R9,LR}
   \   00000004   0050A0E1           MOV      R5,R0
   \   00000008   0160A0E1           MOV      R6,R1
   \   0000000C   0270A0E1           MOV      R7,R2
     69            int* states = new int[0x4];
   \   00000010   1000A0E3           MOV      R0,#+16
   \   00000014   ........           _BLF     `??operator new[]`,`??operator new[]??rA`
   \   00000018   0040A0E1           MOV      R4,R0
     70            for (int i=0;i<4;i++)
   \   0000001C   0080A0E3           MOV      R8,#+0
     71              states[i] = getDayState(fileContent,pos);
   \                     ??getWeather_1:
   \   00000020   0610A0E1           MOV      R1,R6
   \   00000024   0500A0E1           MOV      R0,R5
   \   00000028   ........           BL       ??getDayState
   \   0000002C   080184E7           STR      R0,[R4, +R8, LSL #+2]
   \   00000030   018088E2           ADD      R8,R8,#+1
   \   00000034   040058E3           CMP      R8,#+4
   \   00000038   F8FFFFBA           BLT      ??getWeather_1
     72            wchar_t* state_ = int2wstr(states[0x0]);
   \   0000003C   000094E5           LDR      R0,[R4, #+0]
   \   00000040   ........           _BLF     ??int2wstr,??int2wstr??rA
   \   00000044   0080A0E1           MOV      R8,R0
     73            wchar_t* dayState = getWeatherConditions(state_, xmlContent);
   \   00000048   0710A0E1           MOV      R1,R7
   \   0000004C   ........           BL       ??getWeatherConditions
   \   00000050   0090A0E1           MOV      R9,R0
     74            wchar_t* windDirection = getEqualContent(fileContent,pos);
   \   00000054   0610A0E1           MOV      R1,R6
   \   00000058   0500A0E1           MOV      R0,R5
   \   0000005C   ........           BL       ??getEqualContent
   \   00000060   0050A0E1           MOV      R5,R0
     75            wchar_t* longWind = getWeatherConditions(windDirection, xmlContent);
   \   00000064   0710A0E1           MOV      R1,R7
   \   00000068   ........           BL       ??getWeatherConditions
     76            Weather* todayWeather = new Weather(states[0x0],states[0x1],states[0x2],states[0x3],dayState,windDirection,longWind);
   \   0000006C   01002DE9           PUSH     {R0}
   \   00000070   20002DE9           PUSH     {R5}
   \   00000074   00022DE9           PUSH     {R9}
   \   00000078   000094E5           LDR      R0,[R4, #+0]
   \   0000007C   0C3094E5           LDR      R3,[R4, #+12]
   \   00000080   082094E5           LDR      R2,[R4, #+8]
   \   00000084   041094E5           LDR      R1,[R4, #+4]
   \   00000088   ........           _BLF     `??new Weather`,`??new Weather??rA`
   \   0000008C   0050A0E1           MOV      R5,R0
     77            delete states; states = NULL;
   \   00000090   0400A0E1           MOV      R0,R4
   \   00000094   ........           _BLF     `??operator delete`,`??operator delete??rA`
     78            delete state_; state_ = NULL;
   \   00000098   0800A0E1           MOV      R0,R8
   \   0000009C   ........           _BLF     `??operator delete`,`??operator delete??rA`
     79            return todayWeather;
   \   000000A0   0500A0E1           MOV      R0,R5
   \   000000A4   FE83BDE8           POP      {R1-R9,PC}       ;; return
     80          }
     81          

   \                                 In segment CODE, align 4, keep-with-next
     82          Weather* getDayWeather(wchar_t* fileContent, int& i, wchar_t* xmlContent) {
   \                     ??getDayWeather:
   \   00000000   F0432DE9           PUSH     {R4-R9,LR}
   \   00000004   04D04DE2           SUB      SP,SP,#+4
   \   00000008   0040A0E1           MOV      R4,R0
   \   0000000C   0150A0E1           MOV      R5,R1
   \   00000010   0260A0E1           MOV      R6,R2
     83              Weather* todayWeather = NULL;
   \   00000014   0070A0E3           MOV      R7,#+0
   \   00000018   020000EA           B        ??getDayWeather_1
     84          
     85          
     86              while (i < wstrlen(fileContent)) {
     87          
     88                if (fileContent[i] == '<' && fileContent[i+0x1] == 'P') {
     89                  int sizeOfTag = 0;
     90                  wchar_t* tag = getTag(fileContent,i,sizeOfTag);
     91                  i += sizeOfTag;
     92          
     93                  wchar_t* today = getDate();
     94                  if (compareWchar(tag,today))
     95                    todayWeather = getWeather(fileContent,i, xmlContent);
     96                  delete tag;
     97                  delete today;
     98                  if (todayWeather != NULL) break;
     99                 }
    100                i++;
   \                     ??getDayWeather_2:
   \   0000001C   000095E5           LDR      R0,[R5, #+0]
   \   00000020   010080E2           ADD      R0,R0,#+1
   \   00000024   000085E5           STR      R0,[R5, #+0]
   \                     ??getDayWeather_1:
   \   00000028   0400A0E1           MOV      R0,R4
   \   0000002C   570100EF           SWI      +343
   \   00000030   001095E5           LDR      R1,[R5, #+0]
   \   00000034   000051E1           CMP      R1,R0
   \   00000038   220000AA           BGE      ??getDayWeather_3
   \   0000003C   810084E0           ADD      R0,R4,R1, LSL #+1
   \   00000040   B010D0E1           LDRH     R1,[R0, #+0]
   \   00000044   3C0051E3           CMP      R1,#+60
   \   00000048   B200D001           LDRHEQ   R0,[R0, #+2]
   \   0000004C   50005003           CMPEQ    R0,#+80
   \   00000050   F1FFFF1A           BNE      ??getDayWeather_2
   \   00000054   0010A0E3           MOV      R1,#+0
   \   00000058   00108DE5           STR      R1,[SP, #+0]
   \   0000005C   001095E5           LDR      R1,[R5, #+0]
   \   00000060   0D20A0E1           MOV      R2,SP
   \   00000064   0400A0E1           MOV      R0,R4
   \   00000068   ........           BL       ??getTag
   \   0000006C   00109DE5           LDR      R1,[SP, #+0]
   \   00000070   0080A0E1           MOV      R8,R0
   \   00000074   000095E5           LDR      R0,[R5, #+0]
   \   00000078   000081E0           ADD      R0,R1,R0
   \   0000007C   000085E5           STR      R0,[R5, #+0]
   \   00000080   ........           BL       ??getDate
   \   00000084   0090A0E1           MOV      R9,R0
   \   00000088   0910A0E1           MOV      R1,R9
   \   0000008C   0800A0E1           MOV      R0,R8
   \   00000090   ........           _BLF     ??compareWchar,??compareWchar??rA
   \   00000094   000050E3           CMP      R0,#+0
   \   00000098   0400000A           BEQ      ??getDayWeather_4
   \   0000009C   0620A0E1           MOV      R2,R6
   \   000000A0   0510A0E1           MOV      R1,R5
   \   000000A4   0400A0E1           MOV      R0,R4
   \   000000A8   ........           BL       ??getWeather
   \   000000AC   0070A0E1           MOV      R7,R0
   \                     ??getDayWeather_4:
   \   000000B0   0800A0E1           MOV      R0,R8
   \   000000B4   ........           _BLF     `??operator delete`,`??operator delete??rA`
   \   000000B8   0900A0E1           MOV      R0,R9
   \   000000BC   ........           _BLF     `??operator delete`,`??operator delete??rA`
   \   000000C0   000057E3           CMP      R7,#+0
   \   000000C4   D4FFFF0A           BEQ      ??getDayWeather_2
    101              }
    102              
    103             return todayWeather;
   \                     ??getDayWeather_3:
   \   000000C8   0700A0E1           MOV      R0,R7
   \   000000CC   F283BDE8           POP      {R1,R4-R9,PC}    ;; return
    104          }

   \                                 In segment DATA_C, align 4, align-sorted
   \                     `?<Constant L"\\x3c\\x50\\x65\\x72\\x69\\x6f\\x64\\x20\\`:
   \   00000000   3C0050006500       DC8 3CH, 0, 50H, 0, 65H, 0, 72H, 0
   \              7200        
   \   00000008   69006F006400       DC8 69H, 0, 6FH, 0, 64H, 0, 20H, 0
   \              2000        
   \   00000010   530074006100       DC8 53H, 0, 74H, 0, 61H, 0, 72H, 0
   \              7200        
   \   00000018   740044006100       DC8 74H, 0, 44H, 0, 61H, 0, 74H, 0
   \              7400        
   \   00000020   65003D002200       DC8 65H, 0, 3DH, 0, 22H, 0, 25H, 0
   \              2500        
   \   00000028   75002F002500       DC8 75H, 0, 2FH, 0, 25H, 0, 64H, 0
   \              6400        
   \   00000030   2F0025006400       DC8 2FH, 0, 25H, 0, 64H, 0, 22H, 0
   \              2200        
   \   00000038   3E000000           DC8 3EH, 0, 0, 0

   \                                 In segment DATA_C, align 4, align-sorted
   \                     `?<Constant L"\\x25\\x64">`:
   \   00000000   250064000000       DC8 25H, 0, 64H, 0, 0, 0
   \   00000006   0000               DC8 0, 0

   Maximum stack usage in bytes:

     Function                       CSTACK
     --------                       ------
     getDate()                         24
     getDayState(wchar_t *, int &)     12
     getDayWeather(wchar_t *, int &, wchar_t *)
                                       32
     getEqualContent(wchar_t *, int &)
                                       16
     getLocation(wchar_t *, int &)     12
     getTag(wchar_t *, int, int &)     32
     getWeather(wchar_t *, int &, wchar_t *)
                                       40
     getWeatherConditions(wchar_t *, wchar_t *)
                                       20


   Segment part sizes:

     Function/Label                 Bytes
     --------------                 -----
     getDate()                        92
     getTag(wchar_t *, int, int &)   160
     getEqualContent(wchar_t *, int &)
                                      76
     getDayState(wchar_t *, int &)    56
     getLocation(wchar_t *, int &)    92
     getWeatherConditions(wchar_t *, wchar_t *)
                                     180
     getWeather(wchar_t *, int &, wchar_t *)
                                     168
     getDayWeather(wchar_t *, int &, wchar_t *)
                                     208
     ?<Constant L"\x3c\x50\x65\x72\x69\x6f\x64\x20\
                                      60
     ?<Constant L"\x25\x64">           8
      Others                         116

 
 1 148 bytes in segment CODE
    68 bytes in segment DATA_C
 
 1 032 bytes of CODE  memory (+ 116 bytes shared)
    68 bytes of CONST memory

Errors: none
Warnings: none
