##############################################################################
#                                                                            #
# IAR ARM ANSI C/C++ Compiler V4.42A/W32 EVALUATION    07/Jun/2011  15:55:26 #
# Copyright 1999-2005 IAR Systems. All rights reserved.                      #
#                                                                            #
#    Cpu mode        =  interwork                                            #
#    Endian          =  little                                               #
#    Stack alignment =  4                                                    #
#    Source file     =  F:\Phone\Making elf patches\Elf's\GlassUIWidget\mybo #
#                       ok.cpp                                               #
#    Command line    =  "F:\Phone\Making elf patches\Elf's\GlassUIWidget\myb #
#                       ook.cpp" -lC "F:\Phone\Making elf                    #
#                       patches\Elf's\GlassUIWidget\Release\List\" -lA       #
#                       "F:\Phone\Making elf patches\Elf's\GlassUIWidget\Rel #
#                       ease\List\" -o "F:\Phone\Making elf                  #
#                       patches\Elf's\GlassUIWidget\Release\Obj\" -s9        #
#                       --no_unroll --no_inline --cpu_mode arm --endian      #
#                       little --cpu ARM926EJ-S --stack_align 4 --interwork  #
#                       -e --enable_multibytes --fpu None --eec++            #
#                       --dlib_config "F:\Phone\Making elf                   #
#                       patches\IAR\Embedded Workbench 4.0                   #
#                       Evaluation\ARM\LIB\dl5tpainl8n.h" -I                 #
#                       "F:\Phone\Making elf patches\IAR\Embedded Workbench  #
#                       4.0 Evaluation\ARM\INC\"                             #
#    List file       =  F:\Phone\Making elf patches\Elf's\GlassUIWidget\Rele #
#                       ase\List\mybook.lst                                  #
#    Object file     =  F:\Phone\Making elf patches\Elf's\GlassUIWidget\Rele #
#                       ase\Obj\mybook.r79                                   #
#                                                                            #
#                                                                            #
##############################################################################

F:\Phone\Making elf patches\Elf's\GlassUIWidget\mybook.cpp
      1          #include "..\include\Lib_Clara.h"
      2          #include "..\include\Dir.h"
      3          #include "bcfg\config_data.h"
      4          #include "mybook.h"
      5          #include "debug.h"
      6          #include "utils\weather.h"
      7          #include "standby\MetaDataDll.h"
      8          

   \                                 In segment CODE, align 4, keep-with-next
      9          MyBook::MyBook() : awBook(new BOOK) , location(NULL) , dayWeather(NULL), nightWeather(NULL) , weatherToDraw(NULL) , 
   \                     ??MyBook:
   \   00000000   30402DE9           PUSH     {R4,R5,LR}
   \   00000004   0040A0E1           MOV      R4,R0
   \   00000008   1800A0E3           MOV      R0,#+24
   \   0000000C   0050A0E3           MOV      R5,#+0
   \   00000010   ........           _BLF     `??operator new`,`??operator new??rA`
   \   00000014   000084E5           STR      R0,[R4, #+0]
   \   00000018   045084E5           STR      R5,[R4, #+4]
   \   0000001C   085084E5           STR      R5,[R4, #+8]
   \   00000020   0C5084E5           STR      R5,[R4, #+12]
   \   00000024   105084E5           STR      R5,[R4, #+16]
     10          error(false) , hourSeted(-1) , gc(get_DisplayGC()) , dateToDraw(NULL)  , weekToDraw(NULL), monthToDraw(NULL) ,
   \   00000028   0500E0E1           MVN      R0,R5
   \   0000002C   140084E5           STR      R0,[R4, #+20]
   \   00000030   0000A0E3           MOV      R0,#+0
   \   00000034   1800C4E5           STRB     R0,[R4, #+24]
   \   00000038   E50100EF           SWI      +485
   \   0000003C   1C0084E5           STR      R0,[R4, #+28]
     11          metadataDll(NULL) {  
   \   00000040   205084E5           STR      R5,[R4, #+32]
   \   00000044   405084E5           STR      R5,[R4, #+64]
   \   00000048   8C5084E5           STR      R5,[R4, #+140]
   \   0000004C   945084E5           STR      R5,[R4, #+148]
     12            loadDateNames();
   \   00000050   0400A0E1           MOV      R0,R4
   \   00000054   ........           BL       ??loadDateNames
     13          }
   \   00000058   0400A0E1           MOV      R0,R4
   \   0000005C   3080BDE8           POP      {R4,R5,PC}       ;; return

   \                                 In segment CODE, align 4, keep-with-next
     14          void MyBook::fillWcharArray(const wchar_t** dest, const wchar_t** src, int len ) {
     15            for (int i=0; i < len; i++)
   \                     ??fillWcharArray:
   \   00000000   0000A0E3           MOV      R0,#+0
   \   00000004   010053E3           CMP      R3,#+1
   \   00000008   030000AA           BGE      ??fillWcharArray_1
   \   0000000C   1EFF2FE1           BX       LR
     16              dest[i] = src[i];
   \                     ??fillWcharArray_2:
   \   00000010   00C192E7           LDR      R12,[R2, +R0, LSL #+2]
   \   00000014   00C181E7           STR      R12,[R1, +R0, LSL #+2]
   \   00000018   010080E2           ADD      R0,R0,#+1
   \                     ??fillWcharArray_1:
   \   0000001C   030050E1           CMP      R0,R3
   \   00000020   FAFFFFBA           BLT      ??fillWcharArray_2
     17          }
   \   00000024   1EFF2FE1           BX       LR               ;; return

   \                                 In segment CODE, align 4, keep-with-next
     18          void MyBook::loadDateNames() {
     19            const wchar_t* tempWeeks[0x7] = { BCFG_Date_Weekday_Monday, BCFG_Date_Weekday_Tuesday, BCFG_Date_Weekday_Wednesday,
     20            BCFG_Date_Weekday_Thursday, BCFG_Date_Weekday_Friday, BCFG_Date_Weekday_Saturday, BCFG_Date_Weekday_Sunday };
   \                     ??loadDateNames:
   \   00000000   60109FE5           LDR      R1,??loadDateNames_1  ;; `?<Constant {BCFG_Date_Weekday_Monday, BCFG_Dat`
   \   00000004   F0402DE9           PUSH     {R4-R7,LR}
   \   00000008   64D04DE2           SUB      SP,SP,#+100
   \   0000000C   EC5091E8           LDM      R1,{R2,R3,R5-R7,R12,LR}
     21          
     22            const wchar_t* tempMonth[0x12] = { BCFG_Date_Month_January, BCFG_Date_Month_February, BCFG_Date_Month_March,
     23              BCFG_Date_Month_April, BCFG_Date_Month_May, BCFG_Date_Month_June, BCFG_Date_Month_July, BCFG_Date_Month_August,
     24              BCFG_Date_Month_September, BCFG_Date_Month_October, BCFG_Date_Month_November, BCFG_Date_Month_December };
   \   00000010   54109FE5           LDR      R1,??loadDateNames_1+0x4  ;; `?<Constant {BCFG_Date_Month_January, BCFG_Date`
   \   00000014   0040A0E1           MOV      R4,R0
   \   00000018   48008DE2           ADD      R0,SP,#+72
   \   0000001C   EC5080E8           STM      R0,{R2,R3,R5-R7,R12,LR}
   \   00000020   0D00A0E1           MOV      R0,SP
   \   00000024   4830A0E3           MOV      R3,#+72
   \                     ??loadDateNames_2:
   \   00000028   043053E2           SUBS     R3,R3,#+4
   \   0000002C   032091E7           LDR      R2,[R1, R3]
   \   00000030   032080E7           STR      R2,[R0, R3]
   \   00000034   FBFFFF1A           BNE      ??loadDateNames_2
     25          
     26            fillWcharArray(weekNames, tempWeeks, 7);
   \   00000038   0730A0E3           MOV      R3,#+7
   \   0000003C   48208DE2           ADD      R2,SP,#+72
   \   00000040   241084E2           ADD      R1,R4,#+36
   \   00000044   0400A0E1           MOV      R0,R4
   \   00000048   ........           BL       ??fillWcharArray
     27            fillWcharArray(monthNames, tempMonth, 12);
   \   0000004C   0C30A0E3           MOV      R3,#+12
   \   00000050   0D20A0E1           MOV      R2,SP
   \   00000054   441084E2           ADD      R1,R4,#+68
   \   00000058   0400A0E1           MOV      R0,R4
   \   0000005C   ........           BL       ??fillWcharArray
     28          }
   \   00000060   64D08DE2           ADD      SP,SP,#+100
   \   00000064   F080BDE8           POP      {R4-R7,PC}       ;; return
   \                     ??loadDateNames_1:
   \   00000068   ........           DC32     `?<Constant {BCFG_Date_Weekday_Monday, BCFG_Dat`
   \   0000006C   ........           DC32     `?<Constant {BCFG_Date_Month_January, BCFG_Date`
     29          

   \                                 In segment CODE, align 4, keep-with-next
     30          void MyBook::donothing() {}
   \                     ??donothing:
   \   00000000   1EFF2FE1           BX       LR               ;; return
     31          

   \                                 In segment CODE, align 4, keep-with-next
     32          BOOK* MyBook::getBook() const { return this->awBook; }
   \                     ??getBook:
   \   00000000   000090E5           LDR      R0,[R0, #+0]
   \   00000004   1EFF2FE1           BX       LR               ;; return

   \                                 In segment CODE, align 4, keep-with-next
     33          bool MyBook::getError() const { return this->error; }
   \                     ??getError:
   \   00000000   1800D0E5           LDRB     R0,[R0, #+24]
   \   00000004   1EFF2FE1           BX       LR               ;; return

   \                                 In segment CODE, align 4, keep-with-next
     34          u16 MyBook::getFTimer() const { return this->ftimer; }
   \                     ??getFTimer:
   \   00000000   B00AD0E1           LDRH     R0,[R0, #+160]
   \   00000004   1EFF2FE1           BX       LR               ;; return

   \                                 In segment CODE, align 4, keep-with-next
     35          GC* MyBook::getGC() const { return this->gc; }
   \                     ??getGC:
   \   00000000   1C0090E5           LDR      R0,[R0, #+28]
   \   00000004   1EFF2FE1           BX       LR               ;; return

   \                                 In segment CODE, align 4, keep-with-next
     36          int MyBook::getHourSeted() const { return this->hourSeted; }
   \                     ??getHourSeted:
   \   00000000   140090E5           LDR      R0,[R0, #+20]
   \   00000004   1EFF2FE1           BX       LR               ;; return

   \                                 In segment CODE, align 4, keep-with-next
     37          Weather* MyBook::getWeatherToDraw() const { return this->weatherToDraw; }
   \                     ??getWeatherToDraw:
   \   00000000   100090E5           LDR      R0,[R0, #+16]
   \   00000004   1EFF2FE1           BX       LR               ;; return

   \                                 In segment CODE, align 4, keep-with-next
     38          Weather* MyBook::getDayWeather() const { return this->dayWeather; }
   \                     ??getDayWeather:
   \   00000000   080090E5           LDR      R0,[R0, #+8]
   \   00000004   1EFF2FE1           BX       LR               ;; return

   \                                 In segment CODE, align 4, keep-with-next
     39          Weather* MyBook::getNightWeather() const { return this->nightWeather; }
   \                     ??getNightWeather:
   \   00000000   0C0090E5           LDR      R0,[R0, #+12]
   \   00000004   1EFF2FE1           BX       LR               ;; return

   \                                 In segment CODE, align 4, keep-with-next
     40          wchar_t* MyBook::getLocation() const { return this->location; }
   \                     ??getLocation:
   \   00000000   040090E5           LDR      R0,[R0, #+4]
   \   00000004   1EFF2FE1           BX       LR               ;; return
     41          

   \                                 In segment CODE, align 4, keep-with-next
     42          void MyBook::freeWDraw() { delete this->weatherToDraw; this->weatherToDraw = NULL; }
   \                     ??freeWDraw:
   \   00000000   10402DE9           PUSH     {R4,LR}
   \   00000004   0040A0E1           MOV      R4,R0
   \   00000008   100094E5           LDR      R0,[R4, #+16]
   \   0000000C   ........           _BLF     `??delete ~Weather`,`??delete ~Weather??rA`
   \   00000010   0000A0E3           MOV      R0,#+0
   \   00000014   100084E5           STR      R0,[R4, #+16]
   \   00000018   1080BDE8           POP      {R4,PC}          ;; return

   \                                 In segment CODE, align 4, keep-with-next
     43          void MyBook::setHour(int hour) { this->hourSeted = hour; }
   \                     ??setHour:
   \   00000000   141080E5           STR      R1,[R0, #+20]
   \   00000004   1EFF2FE1           BX       LR               ;; return

   \                                 In segment CODE, align 4, keep-with-next
     44          void MyBook::setWDraw(int one) { (one == 1) ? weatherToDraw = new Weather(dayWeather) : weatherToDraw = new Weather(nightWeather); }
   \                     ??setWDraw:
   \   00000000   10402DE9           PUSH     {R4,LR}
   \   00000004   010051E3           CMP      R1,#+1
   \   00000008   0040A0E1           MOV      R4,R0
   \   0000000C   08009405           LDREQ    R0,[R4, #+8]
   \   00000010   0C009415           LDRNE    R0,[R4, #+12]
   \   00000014   ........           _BLF     `??new Weather`,`??new Weather??rA`
   \   00000018   100084E5           STR      R0,[R4, #+16]
   \   0000001C   1080BDE8           POP      {R4,PC}          ;; return

   \                                 In segment CODE, align 4, keep-with-next
     45          void MyBook::setError(bool error) { this->error = error; }
   \                     ??setError:
   \   00000000   1810C0E5           STRB     R1,[R0, #+24]
   \   00000004   1EFF2FE1           BX       LR               ;; return

   \                                 In segment CODE, align 4, keep-with-next
     46          void MyBook::setLocation(wchar_t* location) { this->location = location; }
   \                     ??setLocation:
   \   00000000   041080E5           STR      R1,[R0, #+4]
   \   00000004   1EFF2FE1           BX       LR               ;; return

   \                                 In segment CODE, align 4, keep-with-next
     47          void MyBook::setDayWeather(Weather* day) { this->dayWeather = day; }
   \                     ??setDayWeather:
   \   00000000   081080E5           STR      R1,[R0, #+8]
   \   00000004   1EFF2FE1           BX       LR               ;; return

   \                                 In segment CODE, align 4, keep-with-next
     48          void MyBook::setNightWeather(Weather* night) { this->nightWeather = night; }
   \                     ??setNightWeather:
   \   00000000   0C1080E5           STR      R1,[R0, #+12]
   \   00000004   1EFF2FE1           BX       LR               ;; return
     49          
     50          

   \                                 In segment CODE, align 4, keep-with-next
     51          void MyBook::freeMyVars() {
   \                     ??freeMyVars:
   \   00000000   30402DE9           PUSH     {R4,R5,LR}
   \   00000004   0040A0E1           MOV      R4,R0
     52            if (location != NULL) {
   \   00000008   040094E5           LDR      R0,[R4, #+4]
   \   0000000C   0050A0E3           MOV      R5,#+0
   \   00000010   000050E3           CMP      R0,#+0
   \   00000014   0100000A           BEQ      ??freeMyVars_1
     53              delete location;
   \   00000018   ........           _BLF     `??operator delete`,`??operator delete??rA`
     54              location = NULL;
   \   0000001C   045084E5           STR      R5,[R4, #+4]
     55            }
     56            if (dayWeather != NULL) {
   \                     ??freeMyVars_1:
   \   00000020   080094E5           LDR      R0,[R4, #+8]
   \   00000024   000050E3           CMP      R0,#+0
   \   00000028   0100000A           BEQ      ??freeMyVars_2
     57              delete dayWeather;
   \   0000002C   ........           _BLF     `??delete ~Weather`,`??delete ~Weather??rA`
     58              dayWeather = NULL;
   \   00000030   085084E5           STR      R5,[R4, #+8]
     59            }
     60            if (nightWeather != NULL) {
   \                     ??freeMyVars_2:
   \   00000034   0C0094E5           LDR      R0,[R4, #+12]
   \   00000038   000050E3           CMP      R0,#+0
   \   0000003C   0100000A           BEQ      ??freeMyVars_3
     61              delete nightWeather;   
   \   00000040   ........           _BLF     `??delete ~Weather`,`??delete ~Weather??rA`
     62              nightWeather = NULL;
   \   00000044   0C5084E5           STR      R5,[R4, #+12]
     63            }
     64            if (weatherToDraw != NULL) { 
   \                     ??freeMyVars_3:
   \   00000048   100094E5           LDR      R0,[R4, #+16]
   \   0000004C   000050E3           CMP      R0,#+0
   \   00000050   0100000A           BEQ      ??freeMyVars_4
     65              delete weatherToDraw;
   \   00000054   ........           _BLF     `??delete ~Weather`,`??delete ~Weather??rA`
     66              weatherToDraw = NULL; 
   \   00000058   105084E5           STR      R5,[R4, #+16]
     67            }
     68            if (dateToDraw != NULL) {
   \                     ??freeMyVars_4:
   \   0000005C   940094E5           LDR      R0,[R4, #+148]
   \   00000060   000050E3           CMP      R0,#+0
   \   00000064   3080BD08           POPEQ    {R4,R5,PC}
     69              delete dateToDraw;
   \   00000068   ........           _BLF     `??operator delete`,`??operator delete??rA`
     70              dateToDraw = NULL;
   \   0000006C   945084E5           STR      R5,[R4, #+148]
     71            }
     72          }
   \   00000070   3080BDE8           POP      {R4,R5,PC}       ;; return
     73          

   \                                 In segment CODE, align 4, keep-with-next
     74          void MyBook::loadMetadataDll() {
   \                     ??loadMetadataDll:
   \   00000000   10402DE9           PUSH     {R4,LR}
   \   00000004   0040A0E1           MOV      R4,R0
     75            if (this->metadataDll == NULL) {
   \   00000008   200094E5           LDR      R0,[R4, #+32]
   \   0000000C   000050E3           CMP      R0,#+0
   \   00000010   1080BD18           POPNE    {R4,PC}
     76              w_chdir(GetDir(MEM_INTERNAL|DIR_DLL));
   \   00000014   1900A0E3           MOV      R0,#+25
   \   00000018   050100EF           SWI      +261
   \   0000001C   F70200EF           SWI      +759
     77              this->metadataDll = (METADATA_DLL_DATA*)LoadDLL(L"MetaDataDLL.dll");
   \   00000020   08009FE5           LDR      R0,??loadMetadataDll_1  ;; `?<Constant L"\\x4d\\x65\\x74\\x61\\x44\\x61\\x74\\x61\\`
   \   00000024   0E0100EF           SWI      +270
   \   00000028   200084E5           STR      R0,[R4, #+32]
     78            }
     79          }
   \   0000002C   1080BDE8           POP      {R4,PC}          ;; return
   \                     ??loadMetadataDll_1:
   \   00000030   ........           DC32     `?<Constant L"\\x4d\\x65\\x74\\x61\\x44\\x61\\x74\\x61\\`
     80          

   \                                 In segment CODE, align 4, keep-with-next
     81          void MyBook::unloadMetadataDll() {
   \                     ??unloadMetadataDll:
   \   00000000   10402DE9           PUSH     {R4,LR}
   \   00000004   0040A0E1           MOV      R4,R0
     82            if (this->metadataDll != NULL) {
   \   00000008   200094E5           LDR      R0,[R4, #+32]
   \   0000000C   000050E3           CMP      R0,#+0
   \   00000010   1080BD08           POPEQ    {R4,PC}
     83              UnLoadDLL(this->metadataDll);
   \   00000014   0F0100EF           SWI      +271
     84              this->metadataDll = NULL;
   \   00000018   0000A0E3           MOV      R0,#+0
   \   0000001C   200084E5           STR      R0,[R4, #+32]
     85            }
     86          }
   \   00000020   1080BDE8           POP      {R4,PC}          ;; return

   \                                 In segment DATA_C, align 4, align-sorted
   \                     `?<Constant {BCFG_Date_Weekday_Monday, BCFG_Dat`:
   \   00000000   ............       DC32 BCFG_Date_Weekday_Monday, BCFG_Date_Weekday_Tuesday
   \              ....        
   \   00000008   ............       DC32 BCFG_Date_Weekday_Wednesday, BCFG_Date_Weekday_Thursday
   \              ....        
   \   00000010   ............       DC32 BCFG_Date_Weekday_Friday, BCFG_Date_Weekday_Saturday
   \              ....        
   \   00000018   ........           DC32 BCFG_Date_Weekday_Sunday

   \                                 In segment DATA_C, align 4, align-sorted
   \                     `?<Constant {BCFG_Date_Month_January, BCFG_Date`:
   \   00000000   ............       DC32 BCFG_Date_Month_January, BCFG_Date_Month_February
   \              ....        
   \   00000008   ............       DC32 BCFG_Date_Month_March, BCFG_Date_Month_April, BCFG_Date_Month_May
   \              ............
   \   00000014   ............       DC32 BCFG_Date_Month_June, BCFG_Date_Month_July, BCFG_Date_Month_August
   \              ............
   \   00000020   ............       DC32 BCFG_Date_Month_September, BCFG_Date_Month_October
   \              ....        
   \   00000028   ............       DC32 BCFG_Date_Month_November, BCFG_Date_Month_December
   \              ....        
   \   00000030   000000000000       DC8 0, 0, 0, 0, 0, 0, 0, 0, 0, 0, 0, 0, 0, 0, 0, 0
   \              000000000000
   \              00000000    
   \   00000040   000000000000       DC8 0, 0, 0, 0, 0, 0, 0, 0
   \              0000        

   \                                 In segment DATA_C, align 4, align-sorted
   \                     `?<Constant L"\\x4d\\x65\\x74\\x61\\x44\\x61\\x74\\x61\\`:
   \   00000000   4D0065007400       DC8 4DH, 0, 65H, 0, 74H, 0, 61H, 0
   \              6100        
   \   00000008   440061007400       DC8 44H, 0, 61H, 0, 74H, 0, 61H, 0
   \              6100        
   \   00000010   44004C004C00       DC8 44H, 0, 4CH, 0, 4CH, 0, 2EH, 0
   \              2E00        
   \   00000018   64006C006C00       DC8 64H, 0, 6CH, 0, 6CH, 0, 0, 0
   \              0000        

   \                                 In segment CODE, align 4, keep-with-next
   \   __??Code32?? __code __interwork __atpcs MyBook &MyBook::new MyBook()
   \                     `??new MyBook`:
   \   00000000   00402DE9           PUSH     {LR}
   \   00000004   AC00A0E3           MOV      R0,#+172
   \   00000008   ........           _BLF     `??operator new`,`??operator new??rA`
   \   0000000C   000050E3           CMP      R0,#+0
   \   00000010   0080BD08           POPEQ    {PC}
   \   00000014   0040BDE8           POP      {LR}             ;; Pop
   \   00000018   ........           B        ??MyBook         ;; tailcall

   Maximum stack usage in bytes:

     Function                       CSTACK
     --------                       ------
     MyBook::MyBook()                  12
     MyBook::donothing()                0
     MyBook::fillWcharArray(wchar_t const **, wchar_t const **, int)
                                        0
     MyBook::freeMyVars()              12
     MyBook::freeWDraw()                8
     MyBook::getBook() const            0
     MyBook::getDayWeather() const      0
     MyBook::getError() const           0
     MyBook::getFTimer() const          0
     MyBook::getGC() const              0
     MyBook::getHourSeted() const       0
     MyBook::getLocation() const        0
     MyBook::getNightWeather() const
                                        0
     MyBook::getWeatherToDraw() const
                                        0
     MyBook::loadDateNames()          120
     MyBook::loadMetadataDll()          8
     MyBook::new MyBook()               4
     MyBook::setDayWeather(Weather *)
                                        0
     MyBook::setError(bool)             0
     MyBook::setHour(int)               0
     MyBook::setLocation(wchar_t *)     0
     MyBook::setNightWeather(Weather *)
                                        0
     MyBook::setWDraw(int)              8
     MyBook::unloadMetadataDll()        8


   Segment part sizes:

     Function/Label                 Bytes
     --------------                 -----
     MyBook::MyBook()                 96
     MyBook::fillWcharArray(wchar_t const **, wchar_t const **, int)
                                      40
     MyBook::loadDateNames()         112
     MyBook::donothing()               4
     MyBook::getBook() const           8
     MyBook::getError() const          8
     MyBook::getFTimer() const         8
     MyBook::getGC() const             8
     MyBook::getHourSeted() const      8
     MyBook::getWeatherToDraw() const
                                       8
     MyBook::getDayWeather() const     8
     MyBook::getNightWeather() const
                                       8
     MyBook::getLocation() const       8
     MyBook::freeWDraw()              28
     MyBook::setHour(int)              8
     MyBook::setWDraw(int)            32
     MyBook::setError(bool)            8
     MyBook::setLocation(wchar_t *)    8
     MyBook::setDayWeather(Weather *)
                                       8
     MyBook::setNightWeather(Weather *)
                                       8
     MyBook::freeMyVars()            116
     MyBook::loadMetadataDll()        52
     MyBook::unloadMetadataDll()      36
     ?<Constant {BCFG_Date_Weekday_Monday, BCFG_Dat
                                      28
     ?<Constant {BCFG_Date_Month_January, BCFG_Date
                                      72
     ?<Constant L"\x4d\x65\x74\x61\x44\x61\x74\x61\
                                      32
     MyBook::new MyBook()             28
      Others                         144

 
 800 bytes in segment CODE
 132 bytes in segment DATA_C
 
 656 bytes of CODE  memory (+ 144 bytes shared)
 132 bytes of CONST memory

Errors: none
Warnings: none
