//////////////////////////////////////////////////////////////////////////////
//                                                                           /
// IAR ARM ANSI C/C++ Compiler V4.42A/W32 EVALUATION   07/Jun/2011  16:13:34 /
// Copyright 1999-2005 IAR Systems. All rights reserved.                     /
//                                                                           /
//    Cpu mode        =  interwork                                           /
//    Endian          =  little                                              /
//    Stack alignment =  4                                                   /
//    Source file     =  F:\Phone\Making elf patches\Elf's\GlassUIWidget\sta /
//                       ndby\standbyDraw.cpp                                /
//    Command line    =  "F:\Phone\Making elf patches\Elf's\GlassUIWidget\st /
//                       andby\standbyDraw.cpp" -lC "F:\Phone\Making elf     /
//                       patches\Elf's\GlassUIWidget\Release\List\" -lA      /
//                       "F:\Phone\Making elf patches\Elf's\GlassUIWidget\Re /
//                       lease\List\" -o "F:\Phone\Making elf                /
//                       patches\Elf's\GlassUIWidget\Release\Obj\" -s9       /
//                       --no_unroll --no_inline --cpu_mode arm --endian     /
//                       little --cpu ARM926EJ-S --stack_align 4             /
//                       --interwork -e --enable_multibytes --fpu None       /
//                       --eec++ --dlib_config "F:\Phone\Making elf          /
//                       patches\IAR\Embedded Workbench 4.0                  /
//                       Evaluation\ARM\LIB\dl5tpainl8n.h" -I                /
//                       "F:\Phone\Making elf patches\IAR\Embedded           /
//                       Workbench 4.0 Evaluation\ARM\INC\"                  /
//    List file       =  F:\Phone\Making elf patches\Elf's\GlassUIWidget\Rel /
//                       ease\List\standbyDraw.s79                           /
//                                                                           /
//                                                                           /
//////////////////////////////////////////////////////////////////////////////

        NAME standbyDraw

        RTMODEL "StackAlign4", "USED"
        RTMODEL "__cpu_mode", "__pcs__interwork"
        RTMODEL "__data_model", "absolute"
        RTMODEL "__endian", "little"
        RTMODEL "__rt_version", "6"

        RSEG CSTACK:DATA:NOROOT(2)

        ERROR
//NOTE: This module defines or uses C++ features that are not
//      accessible from assembler code. Assembling this file will
//      not produce an equivalent object file to the one produced
//      by the C++ compiler.

        PUBWEAK `?*?DATA_ID`
`?<Constant L"">` EQU 0
??DataTable0 EQU 0
??DataTable1 EQU 0
??DataTable10 EQU 0
??DataTable11 EQU 0
??DataTable12 EQU 0
??DataTable15 EQU 0
??DataTable16 EQU 0
??DataTable17 EQU 0
??DataTable2 EQU 0
??DataTable20 EQU 0
??DataTable23 EQU 0
??DataTable3 EQU 0
??DataTable4 EQU 0
??DataTable6 EQU 0
??DataTable7 EQU 0
??DataTable8 EQU 0
??DataTable9 EQU 0
        PUBLIC ??DestroyImages
        FUNCTION ??DestroyImages,0203H
        LOCFRAME CSTACK, 12, STACK
        MULTWEAK ??DestroyImages??rT
        PUBLIC ??Draw
        FUNCTION ??Draw,0603H
        LOCFRAME CSTACK, 8, STACK
        MULTWEAK ??Draw??rT
        MULTWEAK ??InitConfig??rA
        PUBLIC ??InitImages
        FUNCTION ??InitImages,0203H
        LOCFRAME CSTACK, 16, STACK
        MULTWEAK ??InitImages??rT
        PUBWEAK ??LPARAM
        FUNCTION ??LPARAM,0203H
        MULTWEAK ??LPARAM??rA
        PUBLIC ??ReconfigElf
        FUNCTION ??ReconfigElf,0203H
        LOCFRAME CSTACK, 12, STACK
        MULTWEAK ??ReconfigElf??rT
        PUBLIC ??SB_ELF_Killed
        FUNCTION ??SB_ELF_Killed,0203H
        LOCFRAME CSTACK, 20, STACK
        MULTWEAK ??SB_ELF_Killed??rT
        PUBLIC ??Send_REDRAW_RELEASE
        FUNCTION ??Send_REDRAW_RELEASE,0203H
        LOCFRAME CSTACK, 8, STACK
        MULTWEAK ??Send_REDRAW_RELEASE??rT
        PUBLIC ??beginFile
        FUNCTION ??beginFile,0203H
        LOCFRAME CSTACK, 32, STACK
        MULTWEAK ??beginFile??rT
        MULTWEAK ??dbtf??rA
        PUBLIC ??drawClock
        FUNCTION ??drawClock,0203H
        LOCFRAME CSTACK, 60, STACK
        MULTWEAK ??drawClock??rT
        MULTWEAK ??drawId3??rA
        PUBLIC ??drawOnStby
        FUNCTION ??drawOnStby,0203H
        LOCFRAME CSTACK, 76, STACK
        MULTWEAK ??drawOnStby??rT
        PUBLIC ??drawStdby
        FUNCTION ??drawStdby,0203H
        LOCFRAME CSTACK, 60, STACK
        MULTWEAK ??drawStdby??rT
        PUBLIC ??drawWeatherContents
        FUNCTION ??drawWeatherContents,0203H
        LOCFRAME CSTACK, 28, STACK
        MULTWEAK ??drawWeatherContents??rT
        PUBLIC ??drawWeatherInfo
        FUNCTION ??drawWeatherInfo,0203H
        LOCFRAME CSTACK, 12, STACK
        MULTWEAK ??drawWeatherInfo??rT
        PUBLIC ??errorInFile
        FUNCTION ??errorInFile,0203H
        LOCFRAME CSTACK, 16, STACK
        MULTWEAK ??errorInFile??rT
        PUBLIC ??finalDraw
        FUNCTION ??finalDraw,0203H
        LOCFRAME CSTACK, 52, STACK
        MULTWEAK ??finalDraw??rT
        MULTWEAK ??freeMyVars??rA
        MULTWEAK ??freeWDraw??rA
        MULTWEAK ??getAverageTemp??rA
        MULTWEAK ??getBook??rA
        MULTWEAK ??getDateTime??rA
        MULTWEAK ??getDayWeather??rA
        MULTWEAK ??getDayWeather??rA_1
        MULTWEAK ??getError??rA
        MULTWEAK ??getGC??rA
        MULTWEAK ??getHourSeted??rA
        MULTWEAK ??getLocation??rA
        MULTWEAK ??getLocation??rA_1
        MULTWEAK ??getNightWeather??rA
        MULTWEAK ??getState??rA
        MULTWEAK ??getStateByHour??rA
        MULTWEAK ??getState_??rA
        MULTWEAK ??getWSubStr??rA
        MULTWEAK ??getWeather??rA
        MULTWEAK ??getWeatherToDraw??rA
        PUBLIC ??ifDrawImage
        FUNCTION ??ifDrawImage,0203H
        LOCFRAME CSTACK, 24, STACK
        MULTWEAK ??ifDrawImage??rT
        PUBLIC ??ifDrawNoMask
        FUNCTION ??ifDrawNoMask,0203H
        LOCFRAME CSTACK, 20, STACK
        MULTWEAK ??ifDrawNoMask??rT
        MULTWEAK ??isDateEqual??rA
        MULTWEAK ??loadDateNames??rA
        MULTWEAK ??loadMetadataDll??rA
        MULTWEAK ??makeAvgState??rA
        PUBLIC ??makeDateMask
        FUNCTION ??makeDateMask,0203H
        LOCFRAME CSTACK, 24, STACK
        MULTWEAK ??makeDateMask??rT
        MULTWEAK ??makeNullWchar??rA
        PUBLIC ??onCloseBEBook
        FUNCTION ??onCloseBEBook,0203H
        LOCFRAME CSTACK, 8, STACK
        MULTWEAK ??onCloseBEBook??rT
        PUBLIC ??onfTimer
        FUNCTION ??onfTimer,0603H
        LOCFRAME CSTACK, 12, STACK
        MULTWEAK ??onfTimer??rT
        MULTWEAK ??openFile??rA
        MULTWEAK `??operator delete??rA`
        MULTWEAK `??operator new??rA`
        MULTWEAK ??searchLine??rA
        MULTWEAK ??setDayWeather??rA
        MULTWEAK ??setError??rA
        MULTWEAK ??setHour??rA
        MULTWEAK ??setLocation??rA
        MULTWEAK ??setNightWeather??rA
        MULTWEAK ??setWDraw??rA
        MULTWEAK ??unloadMetadataDll??rA
        MULTWEAK ??wGetIndexOfLine??rA
        PUBWEAK ?init?tab?DATA_I
        PUBLIC CID_CFontManager
        PUBLIC CID_CImageManager
        PUBLIC CID_CIndicationDeviceManager
        PUBLIC CID_CMetaData
        PUBLIC CID_CTextRenderingManager
        PUBLIC IID_IFontManager
        PUBLIC IID_IImageManager
        PUBLIC IID_IIndicationDeviceManager
        PUBLIC IID_IMetaData
        PUBLIC IID_ITextRenderingManager
        PUBLIC SIonRedraw
        PUBLIC StatusIndication
        PUBLIC clockID
        PUBLIC clockImages
        PUBLIC mybook
        PUBLIC stateImages
        PUBLIC statesID
        
        CFI Names cfiNames0
        CFI StackFrame CFA R13 HUGEDATA
        CFI Resource R0:32, R1:32, R2:32, R3:32, R4:32, R5:32, R6:32, R7:32
        CFI Resource R8:32, R9:32, R10:32, R11:32, R12:32, CPSR:32, R13:32
        CFI Resource R14:32, SPSR:32
        CFI VirtualResource ?RET:32
        CFI EndNames cfiNames0
        
        CFI Common cfiCommon0 Using cfiNames0
        CFI CodeAlign 4
        CFI DataAlign 4
        CFI ReturnAddress ?RET CODE
        CFI CFA R13+0
        CFI R0 Undefined
        CFI R1 Undefined
        CFI R2 Undefined
        CFI R3 Undefined
        CFI R4 SameValue
        CFI R5 SameValue
        CFI R6 SameValue
        CFI R7 SameValue
        CFI R8 SameValue
        CFI R9 SameValue
        CFI R10 SameValue
        CFI R11 SameValue
        CFI R12 Undefined
        CFI CPSR SameValue
        CFI R14 Undefined
        CFI SPSR SameValue
        CFI ?RET R14
        CFI EndCommon cfiCommon0
        
        
        CFI Common cfiCommon1 Using cfiNames0
        CFI CodeAlign 2
        CFI DataAlign 4
        CFI ReturnAddress ?RET CODE
        CFI CFA R13+0
        CFI R0 Undefined
        CFI R1 Undefined
        CFI R2 Undefined
        CFI R3 Undefined
        CFI R4 SameValue
        CFI R5 SameValue
        CFI R6 SameValue
        CFI R7 SameValue
        CFI R8 SameValue
        CFI R9 SameValue
        CFI R10 SameValue
        CFI R11 SameValue
        CFI R12 Undefined
        CFI CPSR SameValue
        CFI R14 Undefined
        CFI SPSR SameValue
        CFI ?RET R14
        CFI EndCommon cfiCommon1
        








































??DestroyImages??rT SYMBOL "??rT", ??DestroyImages

??Draw??rT          SYMBOL "??rT", ??Draw
??InitConfig??rA    SYMBOL "??rA", ??InitConfig

??InitImages??rT    SYMBOL "??rT", ??InitImages

??LPARAM??rA        SYMBOL "??rA", ??LPARAM

??ReconfigElf??rT   SYMBOL "??rT", ??ReconfigElf

??SB_ELF_Killed??rT SYMBOL "??rT", ??SB_ELF_Killed

??Send_REDRAW_RELEASE??rT SYMBOL "??rT", ??Send_REDRAW_RELEASE

??beginFile??rT     SYMBOL "??rT", ??beginFile
??dbtf??rA          SYMBOL "??rA", ??dbtf

??drawClock??rT     SYMBOL "??rT", ??drawClock
??drawId3??rA       SYMBOL "??rA", ??drawId3

??drawOnStby??rT    SYMBOL "??rT", ??drawOnStby

??drawStdby??rT     SYMBOL "??rT", ??drawStdby

??drawWeatherContents??rT SYMBOL "??rT", ??drawWeatherContents

??drawWeatherInfo??rT SYMBOL "??rT", ??drawWeatherInfo

??errorInFile??rT   SYMBOL "??rT", ??errorInFile

??finalDraw??rT     SYMBOL "??rT", ??finalDraw
??freeMyVars??rA    SYMBOL "??rA", ??freeMyVars
??freeWDraw??rA     SYMBOL "??rA", ??freeWDraw
??getAverageTemp??rA SYMBOL "??rA", ??getAverageTemp
??getBook??rA       SYMBOL "??rA", ??getBook
??getDateTime??rA   SYMBOL "??rA", ??getDateTime
??getDayWeather??rA SYMBOL "??rA", ??getDayWeather
??getDayWeather??rA_1 SYMBOL "??rA", ??getDayWeather_1
??getError??rA      SYMBOL "??rA", ??getError
??getGC??rA         SYMBOL "??rA", ??getGC
??getHourSeted??rA  SYMBOL "??rA", ??getHourSeted
??getLocation??rA   SYMBOL "??rA", ??getLocation
??getLocation??rA_1 SYMBOL "??rA", ??getLocation_1
??getNightWeather??rA SYMBOL "??rA", ??getNightWeather
??getState??rA      SYMBOL "??rA", ??getState
??getStateByHour??rA SYMBOL "??rA", ??getStateByHour
??getState_??rA     SYMBOL "??rA", ??getState_
??getWSubStr??rA    SYMBOL "??rA", ??getWSubStr
??getWeather??rA    SYMBOL "??rA", ??getWeather
??getWeatherToDraw??rA SYMBOL "??rA", ??getWeatherToDraw

??ifDrawImage??rT   SYMBOL "??rT", ??ifDrawImage

??ifDrawNoMask??rT  SYMBOL "??rT", ??ifDrawNoMask
??isDateEqual??rA   SYMBOL "??rA", ??isDateEqual
??loadDateNames??rA SYMBOL "??rA", ??loadDateNames
??loadMetadataDll??rA SYMBOL "??rA", ??loadMetadataDll
??makeAvgState??rA  SYMBOL "??rA", ??makeAvgState

??makeDateMask??rT  SYMBOL "??rT", ??makeDateMask
??makeNullWchar??rA SYMBOL "??rA", ??makeNullWchar

??onCloseBEBook??rT SYMBOL "??rT", ??onCloseBEBook

??onfTimer??rT      SYMBOL "??rT", ??onfTimer
??openFile??rA      SYMBOL "??rA", ??openFile
`??operator delete??rA` SYMBOL "??rA", `??operator delete`
`??operator new??rA` SYMBOL "??rA", `??operator new`
??searchLine??rA    SYMBOL "??rA", ??searchLine
??setDayWeather??rA SYMBOL "??rA", ??setDayWeather
??setError??rA      SYMBOL "??rA", ??setError
??setHour??rA       SYMBOL "??rA", ??setHour
??setLocation??rA   SYMBOL "??rA", ??setLocation
??setNightWeather??rA SYMBOL "??rA", ??setNightWeather
??setWDraw??rA      SYMBOL "??rA", ??setWDraw
??unloadMetadataDll??rA SYMBOL "??rA", ??unloadMetadataDll
??wGetIndexOfLine??rA SYMBOL "??rA", ??wGetIndexOfLine

        EXTERN ??InitConfig
        FUNCTION ??InitConfig,0202H
        EXTERN ??dbtf
        FUNCTION ??dbtf,0202H
        EXTERN ??drawId3
        FUNCTION ??drawId3,0202H
        EXTERN ??elf_exit
        FUNCTION ??elf_exit,0602H
        EXTERN ??freeMyVars
        FUNCTION ??freeMyVars,0202H
        EXTERN ??freeWDraw
        FUNCTION ??freeWDraw,0202H
        EXTERN ??getAverageTemp
        FUNCTION ??getAverageTemp,0202H
        EXTERN ??getBook
        FUNCTION ??getBook,0202H
        EXTERN ??getDateTime
        FUNCTION ??getDateTime,0202H
        EXTERN ??getDayWeather
        FUNCTION ??getDayWeather,0202H
        EXTERN ??getDayWeather_1
        FUNCTION ??getDayWeather_1,0202H
        EXTERN ??getError
        FUNCTION ??getError,0202H
        EXTERN ??getGC
        FUNCTION ??getGC,0202H
        EXTERN ??getHourSeted
        FUNCTION ??getHourSeted,0202H
        EXTERN ??getLocation
        FUNCTION ??getLocation,0202H
        EXTERN ??getLocation_1
        FUNCTION ??getLocation_1,0202H
        EXTERN ??getNightWeather
        FUNCTION ??getNightWeather,0202H
        EXTERN ??getState
        FUNCTION ??getState,0202H
        EXTERN ??getStateByHour
        FUNCTION ??getStateByHour,0202H
        EXTERN ??getState_
        FUNCTION ??getState_,0202H
        EXTERN ??getWSubStr
        FUNCTION ??getWSubStr,0202H
        EXTERN ??getWeather
        FUNCTION ??getWeather,0202H
        EXTERN ??getWeatherToDraw
        FUNCTION ??getWeatherToDraw,0202H
        EXTERN ??isDateEqual
        FUNCTION ??isDateEqual,0202H
        EXTERN ??loadDateNames
        FUNCTION ??loadDateNames,0202H
        EXTERN ??loadMetadataDll
        FUNCTION ??loadMetadataDll,0202H
        EXTERN ??makeAvgState
        FUNCTION ??makeAvgState,0202H
        EXTERN ??makeNullWchar
        FUNCTION ??makeNullWchar,0202H
        EXTERN ??openFile
        FUNCTION ??openFile,0202H
        EXTERN `??operator delete`
        FUNCTION `??operator delete`,0202H
        EXTERN `??operator new`
        FUNCTION `??operator new`,0202H
        EXTERN ??searchLine
        FUNCTION ??searchLine,0202H
        EXTERN ??setDayWeather
        FUNCTION ??setDayWeather,0202H
        EXTERN ??setError
        FUNCTION ??setError,0202H
        EXTERN ??setHour
        FUNCTION ??setHour,0202H
        EXTERN ??setLocation
        FUNCTION ??setLocation,0202H
        EXTERN ??setNightWeather
        FUNCTION ??setNightWeather,0202H
        EXTERN ??setWDraw
        FUNCTION ??setWDraw,0202H
        EXTERN ??unloadMetadataDll
        FUNCTION ??unloadMetadataDll,0202H
        EXTERN ??wGetIndexOfLine
        FUNCTION ??wGetIndexOfLine,0202H
        EXTERN BCFG_DateTime_Date_Position_X
        EXTERN BCFG_DateTime_Date_Position_Y
        EXTERN BCFG_DateTime_Time_AnalogClock_Hour_Position_X
        EXTERN BCFG_DateTime_Time_AnalogClock_Hour_Position_Y
        EXTERN BCFG_DateTime_Time_DigitalClock_AMPM_Position_X
        EXTERN BCFG_DateTime_Time_DigitalClock_AMPM_Position_Y
        EXTERN BCFG_DateTime_Time_DigitalClock_Position_X
        EXTERN BCFG_DateTime_Time_DigitalClock_Position_Y
        EXTERN BCFG_Date_Align
        EXTERN BCFG_Date_Enable
        EXTERN BCFG_Date_FontSize
        EXTERN BCFG_Date_TextColor
        EXTERN BCFG_Images_AccuWeatherLogo_Enable
        EXTERN BCFG_Images_AccuWeatherLogo_Position_X
        EXTERN BCFG_Images_AccuWeatherLogo_Position_Y
        EXTERN BCFG_Images_Background_Enable
        EXTERN BCFG_Images_Background_Position_X
        EXTERN BCFG_Images_Background_Position_Y
        EXTERN BCFG_Images_Clock_Enable
        EXTERN BCFG_Images_Clock_Position_X
        EXTERN BCFG_Images_Clock_Position_Y
        EXTERN BCFG_Images_DayState_Enable
        EXTERN BCFG_Images_DayState_Position_X
        EXTERN BCFG_Images_DayState_Position_Y
        EXTERN BCFG_Path_Clock
        EXTERN BCFG_StatesFolder
        EXTERN BCFG_Tags_AverageTemperature_Enable
        EXTERN BCFG_Tags_DayState_Align
        EXTERN BCFG_Tags_DayState_Enable
        EXTERN BCFG_Tags_DayState_FontSize
        EXTERN BCFG_Tags_DayState_LineSpacing
        EXTERN BCFG_Tags_DayState_Position_X
        EXTERN BCFG_Tags_DayState_Position_Y
        EXTERN BCFG_Tags_DayState_TextColor
        EXTERN BCFG_Tags_Location_Align
        EXTERN BCFG_Tags_Location_Enable
        EXTERN BCFG_Tags_Location_FontSize
        EXTERN BCFG_Tags_Location_Position_X
        EXTERN BCFG_Tags_Location_Position_Y
        EXTERN BCFG_Tags_Location_TextColor
        EXTERN BCFG_Tags_Time_Day
        EXTERN BCFG_Tags_Time_Night
        EXTERN BCFG_Time_AMPM_Align
        EXTERN BCFG_Time_AMPM_Enable
        EXTERN BCFG_Time_AMPM_FontSize
        EXTERN BCFG_Time_AMPM_TextColor
        EXTERN BCFG_Time_AnalogClock_State_Position
        EXTERN BCFG_Time_DigitalClock_Align
        EXTERN BCFG_Time_DigitalClock_Enable
        EXTERN BCFG_Time_DigitalClock_FontSize
        EXTERN BCFG_Time_DigitalClock_TextColor
        EXTERN BCFG_Time_Hour_Align
        EXTERN BCFG_Time_Hour_Enable
        EXTERN BCFG_Time_Hour_FontSize
        EXTERN BCFG_Time_Hour_TextColor
        EXTERN BCFG_Time_State_Align
        EXTERN BCFG_Time_State_Enable
        EXTERN BCFG_Time_State_FontSize
        EXTERN BCFG_Time_State_TextColor
        EXTERN BCFG_Time_Type
        EXTERN BCFG_XMLBGLogoFolder
        EXTERN successed_config_name
        EXTERN successed_config_path

// F:\Phone\Making elf patches\Elf's\GlassUIWidget\standby\standbyDraw.cpp
//    1 #include "..\..\include\Lib_Clara.h"

        RSEG CODE:CODE:NOROOT(2)
        CFI Block cfiBlock0 Using cfiCommon0
        CFI Function ??LPARAM
        ARM
// __??Code32?? __code __interwork __atpcs LPARAM::LPARAM(int)
??LPARAM:
        STR      R1,[R0, #+0]
        BX       LR               ;; return
        CFI EndBlock cfiBlock0

        RSEG CODE:CODE:NOROOT(2)
        CFI Block cfiBlock1 Using cfiCommon1
        CFI NoFunction
        THUMB
??Send_REDRAW_RELEASE??rT:
        BX       PC
        Nop      
        CFI EndBlock cfiBlock1
        REQUIRE ??Send_REDRAW_RELEASE
//    2 #include "..\..\include\Dir.h"
//    3 #include "..\..\include\cfg_items.h"
//    4 #include "..\bcfg\config_data.h"
//    5 #include "..\bcfg\conf_loader.h"
//    6 #include "..\file\openfile.h"
//    7 #include "..\file\fileAnaliser.h"
//    8 #include "..\utils\weather.h"
//    9 #include "..\utils\utils.h"
//   10 #include "..\mybook.h"
//   11 #include "..\classes.h"

        RSEG DATA_I:DATA:SORT:NOROOT(2)
// UUID __data IID_IFontManager
IID_IFontManager:
        DS8 16
        REQUIRE `?<Initializer for IID_IFontManager>`

        RSEG DATA_I:DATA:SORT:NOROOT(2)
// UUID __data CID_CFontManager
CID_CFontManager:
        DS8 16
        REQUIRE `?<Initializer for CID_CFontManager>`

        RSEG DATA_I:DATA:SORT:NOROOT(2)
// UUID __data IID_ITextRenderingManager
IID_ITextRenderingManager:
        DS8 16
        REQUIRE `?<Initializer for IID_ITextRenderingManager>`

        RSEG DATA_I:DATA:SORT:NOROOT(2)
// UUID __data CID_CTextRenderingManager
CID_CTextRenderingManager:
        DS8 16
        REQUIRE `?<Initializer for CID_CTextRenderingManager>`

        RSEG DATA_I:DATA:SORT:NOROOT(2)
// UUID __data IID_IImageManager
IID_IImageManager:
        DS8 16
        REQUIRE `?<Initializer for IID_IImageManager>`

        RSEG DATA_I:DATA:SORT:NOROOT(2)
// UUID __data CID_CImageManager
CID_CImageManager:
        DS8 16
        REQUIRE `?<Initializer for CID_CImageManager>`

        RSEG DATA_I:DATA:SORT:NOROOT(2)
// UUID __data IID_IMetaData
IID_IMetaData:
        DS8 16
        REQUIRE `?<Initializer for IID_IMetaData>`

        RSEG DATA_I:DATA:SORT:NOROOT(2)
// UUID __data CID_CMetaData
CID_CMetaData:
        DS8 16
        REQUIRE `?<Initializer for CID_CMetaData>`

        RSEG DATA_I:DATA:SORT:NOROOT(2)
// UUID __data IID_IIndicationDeviceManager
IID_IIndicationDeviceManager:
        DS8 16
        REQUIRE `?<Initializer for IID_IIndicationDeviceManager`

        RSEG DATA_I:DATA:SORT:NOROOT(2)
// UUID __data CID_CIndicationDeviceManager
CID_CIndicationDeviceManager:
        DS8 16
        REQUIRE `?<Initializer for CID_CIndicationDeviceManager`
//   12 #include "standbyDraw.h"
//   13 #include "stdby.h" 

        RSEG DATA_I:DATA:SORT:NOROOT(2)
// wchar_t __data statesID[70]
statesID:
        DS8 140
        REQUIRE `?<Initializer for statesID>`
// wchar_t __data clockID[96]
clockID:
        DS8 192
        REQUIRE `?<Initializer for clockID>`
// void (*__data SIonRedraw)(DISP_OBJ *, int, int, int)
SIonRedraw:
        DS8 4
        REQUIRE `?<Initializer for SIonRedraw>`
// DISP_OBJ *__data StatusIndication
StatusIndication:
        DS8 4
        REQUIRE `?<Initializer for StatusIndication>`
// wchar_t *__data stateImages[68]
stateImages:
        DS8 272
        REQUIRE `?<Initializer for stateImages>`
// wchar_t *__data clockImages[96]
clockImages:
        DS8 384
        REQUIRE `?<Initializer for clockImages>`
//   14 #include "id3.h"
//   15 #include "..\debug.h"
//   16 MyBook* mybook;
mybook:
        DS8 4
        REQUIRE `?<Initializer for mybook>`
//   17 
//   18 //<!--bookmanager

        RSEG CODE:CODE:NOROOT(2)
        CFI Block cfiBlock2 Using cfiCommon0
        CFI Function ??Send_REDRAW_RELEASE
        ARM
//   19 void Send_REDRAW_RELEASE() {
??Send_REDRAW_RELEASE:
        PUSH     {R4,LR}
        CFI ?RET Frame(CFA, -4)
        CFI R4 Frame(CFA, -8)
        CFI CFA R13+8
//   20   REDRAW_RELEASE_MESSAGE * sbm= new REDRAW_RELEASE_MESSAGE;
        MOV      R0,#+24
        _BLF     `??operator new`,`??operator new??rA`
        MOV      R4,R0
//   21   memset(sbm,0,sizeof(REDRAW_RELEASE_MESSAGE));
        MOV      R2,#+24
        MOV      R1,#+0
        SWI      +274
//   22   sbm->SB_OldOnRedraw=SIonRedraw;
        LDR      R0,??Send_REDRAW_RELEASE_1  ;; statesID + 332
        LDR      R0,[R0, #+0]
        STR      R0,[R4, #+0]
//   23   sbm->SB_NewOnRedraw=Draw;
        LDR      R0,??DataTable19  ;; ??Draw
        STR      R0,[R4, #+4]
//   24   UI_Event_wData(SBY_REDRAW_RELEASE_EVENT ,sbm,(void (*)(void*))mfree_adr());
        SWI      +33028
        MOV      R2,R0
        MOV      R1,R4
        MOV      R0,#+227
        ORR      R0,R0,#0x300
        SWI      +425
//   25 }
        POP      {R4,PC}          ;; return
        DATA
??Send_REDRAW_RELEASE_1:
        DC32     statesID + 332
        CFI EndBlock cfiBlock2

        RSEG CODE:CODE:NOROOT(2)
        CFI Block cfiBlock3 Using cfiCommon1
        CFI NoFunction
        THUMB
??ReconfigElf??rT:
        BX       PC
        Nop      
        CFI EndBlock cfiBlock3
        REQUIRE ??ReconfigElf
//   26 

        RSEG CODE:CODE:NOROOT(2)
        CFI Block cfiBlock4 Using cfiCommon0
        CFI Function ??ReconfigElf
        ARM
//   27 int ReconfigElf(void *mess ,BOOK *book)
//   28 {
??ReconfigElf:
        PUSH     {R4,R5,LR}
        CFI ?RET Frame(CFA, -4)
        CFI R5 Frame(CFA, -8)
        CFI R4 Frame(CFA, -12)
        CFI CFA R13+12
        MOV      R4,R0
//   29   RECONFIG_EVENT_DATA *reconf=(RECONFIG_EVENT_DATA *)mess;
//   30   int result=0;
//   31   if (wstrcmpi(reconf->path,successed_config_path)==0 && wstrcmpi(reconf->name,successed_config_name)==0)
        LDR      R0,??ReconfigElf_1  ;; successed_config_path
        MOV      R5,#+0
        LDR      R1,[R0, #+0]
        MOV      R0,R4
        SWI      +671
        CMP      R0,#+0
        BNE      ??ReconfigElf_2
        LDR      R0,??ReconfigElf_1+0x4  ;; successed_config_name
        LDR      R1,[R0, #+0]
        ADD      R0,R4,#+128
        SWI      +671
        CMP      R0,#+0
        BNE      ??ReconfigElf_2
//   32   {
//   33     InitConfig();
//   34     mybook->setHour(-1);
        LDR      R4,??DataTable18  ;; statesID
        _BLF     ??InitConfig,??InitConfig??rA
        LDR      R0,[R4, #+996]
        MVN      R1,R5
        _BLF     ??setHour,??setHour??rA
//   35     mybook->loadDateNames();
        LDR      R0,[R4, #+996]
//   36     makeDateMask();
//   37     result=1;
        MOV      R5,#+1
        _BLF     ??loadDateNames,??loadDateNames??rA
        BL       ??makeDateMask
//   38   }
//   39   return(result);
??ReconfigElf_2:
        MOV      R0,R5
        POP      {R4,R5,PC}       ;; return
        DATA
??ReconfigElf_1:
        DC32     successed_config_path
        DC32     successed_config_name
        CFI EndBlock cfiBlock4
//   40 }

        RSEG CODE:CODE:NOROOT(2)
        CFI Block cfiBlock5 Using cfiCommon1
        CFI NoFunction
        THUMB
??drawOnStby??rT:
        BX       PC
        Nop      
        CFI EndBlock cfiBlock5
        REQUIRE ??drawOnStby
//   41 
//   42 //-->
//   43 

        RSEG CODE:CODE:NOROOT(2)
        CFI Block cfiBlock6 Using cfiCommon0
        CFI Function ??drawOnStby
        ARM
//   44 void drawOnStby(wchar_t* message, int fontSize, int align, int x, int y, int textColor ) {
??drawOnStby:
        PUSH     {R1,R2,R4-R11,LR}
        CFI ?RET Frame(CFA, -4)
        CFI R11 Frame(CFA, -8)
        CFI R10 Frame(CFA, -12)
        CFI R9 Frame(CFA, -16)
        CFI R8 Frame(CFA, -20)
        CFI R7 Frame(CFA, -24)
        CFI R6 Frame(CFA, -28)
        CFI R5 Frame(CFA, -32)
        CFI R4 Frame(CFA, -36)
        CFI CFA R13+44
        LDR      R5,[SP, #+44]
        LDR      R6,[SP, #+48]
        MOV      R11,R0
        MOV      R4,R3
//   45   int displayWidth = Display_GetWidth( 0 );
        MOV      R0,#+0
        SWI      +601
        MOV      R7,R0
//   46   int displayHeigth = Display_GetHeight( 0 );
        MOV      R0,#+0
        SWI      +600
        MOV      R8,R0
//   47   int msgSize = wstrlen(message);
        MOV      R0,R11
        SWI      +343
        MOV      R9,R0
//   48   if (searchLine(message)) {
        MOV      R0,R11
        _BLF     ??searchLine,??searchLine??rA
        CMP      R0,#+0
        BEQ      ??drawOnStby_1
//   49     int indexLine = wGetIndexOfLine(message);
        MOV      R0,R11
        _BLF     ??wGetIndexOfLine,??wGetIndexOfLine??rA
        MOV      R9,R0
//   50     wchar_t* line1 = getWSubStr(message,0,indexLine-1);
        SUB      R2,R9,#+1
        MOV      R1,#+0
        MOV      R0,R11
        _BLF     ??getWSubStr,??getWSubStr??rA
        MOV      R10,R0
//   51     wchar_t* line2 = getWSubStr(message,indexLine+2,wstrlen(message));
        MOV      R0,R11
        SWI      +343
        MOV      R2,R0
        ADD      R1,R9,#+2
        MOV      R0,R11
        _BLF     ??getWSubStr,??getWSubStr??rA
        MOV      R11,R0
//   52     msgSize = wstrlen(line1);
        MOV      R0,R10
        SWI      +343
//   53     
//   54     TEXTID drawText = TextID_Create(line1, ENC_UCS2 , msgSize);
        MOV      R2,R0
        MOV      R1,#+0
        MOV      R0,R10
        SWI      +349
        MOV      R9,R0
//   55     SetFont(fontSize);
        LDR      R0,[SP, #+0]
        SWI      +497
//   56     DrawString( drawText , align , x , y , displayWidth, displayHeigth , 60 , 0x05 , textColor , textColor );
        MOV      R0,R6
        PUSH     {R0}
        CFI CFA R13+48
        PUSH     {R0}
        CFI CFA R13+52
        MOV      R3,R5
        MOV      R2,R4
        MOV      R0,#+5
        PUSH     {R0}
        CFI CFA R13+56
        MOV      R0,#+60
        PUSH     {R0}
        CFI CFA R13+60
        PUSH     {R8}
        CFI CFA R13+64
        PUSH     {R7}
        CFI CFA R13+68
        LDR      R1,[SP, #+28]
        MOV      R0,R9
        SWI      +493
//   57     TextID_Destroy( drawText );
        MOV      R0,R9
        SWI      +353
//   58 
//   59     delete line1; 
        MOV      R0,R10
        _BLF     `??operator delete`,`??operator delete??rA`
//   60     line1 = NULL;
//   61     drawOnStby(line2, fontSize, align, x, y + BCFG_Tags_DayState_LineSpacing, textColor );
        LDR      R0,??drawOnStby_2  ;; BCFG_Tags_DayState_LineSpacing
        PUSH     {R6}
        CFI CFA R13+72
        LDR      R0,[R0, #+0]
        MOV      R3,R4
        ADD      R0,R0,R5
        PUSH     {R0}
        CFI CFA R13+76
        LDR      R2,[SP, #+36]
        LDR      R1,[SP, #+32]
        MOV      R0,R11
        BL       ??drawOnStby
//   62     delete line2;
        MOV      R0,R11
        _BLF     `??operator delete`,`??operator delete??rA`
//   63     line2 = NULL;
        ADD      SP,SP,#+32
        CFI CFA R13+44
        POP      {R0,R1,R4-R11,PC}
//   64   }
//   65   else {
//   66     TEXTID drawText = TextID_Create(message, ENC_UCS2 , msgSize);
??drawOnStby_1:
        MOV      R2,R9
        MOV      R1,#+0
        MOV      R0,R11
        SWI      +349
        MOV      R9,R0
//   67     SetFont(fontSize);
        LDR      R0,[SP, #+0]
        SWI      +497
//   68     DrawString( drawText , align , x , y , displayWidth, displayHeigth , 60 , 0x05 , textColor , textColor );
        MOV      R0,R6
        PUSH     {R0}
        CFI CFA R13+48
        PUSH     {R6}
        CFI CFA R13+52
        MOV      R3,R5
        MOV      R0,#+5
        PUSH     {R0}
        CFI CFA R13+56
        MOV      R2,R4
        MOV      R0,#+60
        PUSH     {R0}
        CFI CFA R13+60
        PUSH     {R8}
        CFI CFA R13+64
        PUSH     {R7}
        CFI CFA R13+68
        LDR      R1,[SP, #+28]
        MOV      R0,R9
        SWI      +493
//   69     TextID_Destroy( drawText );
        MOV      R0,R9
        SWI      +353
        ADD      SP,SP,#+24
        CFI CFA R13+44
//   70   }
//   71 }
        POP      {R0,R1,R4-R11,PC}  ;; return
        DATA
??drawOnStby_2:
        DC32     BCFG_Tags_DayState_LineSpacing
        CFI EndBlock cfiBlock6

        RSEG CODE:CODE:NOROOT(2)
        CFI Block cfiBlock7 Using cfiCommon1
        CFI NoFunction
        THUMB
??ifDrawImage??rT:
        BX       PC
        Nop      
        CFI EndBlock cfiBlock7
        REQUIRE ??ifDrawImage
//   72 

        RSEG CODE:CODE:NOROOT(2)
        CFI Block cfiBlock8 Using cfiCommon0
        CFI Function ??ifDrawImage
        ARM
//   73 void ifDrawImage( bool _drawImage, int x, int y, const wchar_t& imgID) {
??ifDrawImage:
        PUSH     {R4-R6,LR}
        CFI ?RET Frame(CFA, -4)
        CFI R6 Frame(CFA, -8)
        CFI R5 Frame(CFA, -12)
        CFI R4 Frame(CFA, -16)
        CFI CFA R13+16
        MOV      R4,R1
        MOV      R5,R2
        MOV      R6,R3
//   74   if (_drawImage)
        CMP      R0,#+0
        POPEQ    {R4-R6,PC}
//   75     DrawImage(mybook->getGC(), x , y, imgID );
        LDR      R0,??DataTable5  ;; statesID + 996
        LDR      R0,[R0, #+0]
        _BLF     ??getGC,??getGC??rA
        LDRH     R1,[R6, #+0]
        MOV      R3,#+0
        MOV      R2,R5
        PUSH     {R1}
        CFI CFA R13+20
        MOV      R1,#+0
        PUSH     {R1}
        CFI CFA R13+24
        MOV      R1,R4
        SWI      +320
        ADD      SP,SP,#+8
        CFI CFA R13+16
//   76 }
        POP      {R4-R6,PC}       ;; return
        CFI EndBlock cfiBlock8

        RSEG CODE:CODE:NOROOT(2)
        CFI Block cfiBlock9 Using cfiCommon1
        CFI NoFunction
        THUMB
??Draw??rT:
        BX       PC
        Nop      
        CFI EndBlock cfiBlock9
        REQUIRE ??Draw
//   77 

        RSEG CODE:CODE:NOROOT(2)
        CFI Block cfiBlock10 Using cfiCommon0
        CFI Function ??Draw
        ARM
//   78 void Draw(DISP_OBJ* db,int r1, int r2,int r3) { //change lines for w800
??Draw:
        PUSH     {R4,LR}
        CFI ?RET Frame(CFA, -4)
        CFI R4 Frame(CFA, -8)
        CFI CFA R13+8
//   79   if (SIonRedraw) SIonRedraw(db,r1,r2,r3);
        LDR      R4,??DataTable22  ;; statesID
        LDR      R12,[R4, #+332]
        CMP      R12,#+0
        BEQ      ??Draw_1
        BLX      R12
//   80   ifDrawImage( BCFG_Images_Background_Enable, BCFG_Images_Background_Position_X, BCFG_Images_Background_Position_Y,
//   81               statesID[0x0] );
??Draw_1:
        LDR      R0,??Draw_2      ;; BCFG_Images_Background_Enable
        LDR      R1,??Draw_2+0x4  ;; BCFG_Images_Background_Position_Y
        LDR      R0,[R0, #+0]
        LDR      R2,[R1, #+0]
        LDR      R1,??Draw_2+0x8  ;; BCFG_Images_Background_Position_X
        CMP      R0,#+0
        LDR      R1,[R1, #+0]
        MOVNE    R0,#+1
        MOV      R3,R4
        BL       ??ifDrawImage
//   82   if (!FindBook(get_IsAudioPlayerBook())) {
        SWI      +33419
        SWI      +304
        CMP      R0,#+0
        LDR      R0,[R4, #+996]
        BNE      ??Draw_3
//   83     mybook->unloadMetadataDll();
        _BLF     ??unloadMetadataDll,??unloadMetadataDll??rA
//   84     drawWeatherContents();
        BL       ??drawWeatherContents
        POP      {R4,PC}
//   85   }
//   86   else {
//   87     mybook->loadMetadataDll();
??Draw_3:
        _BLF     ??loadMetadataDll,??loadMetadataDll??rA
//   88     drawId3(mybook);
        LDR      R0,[R4, #+996]
        _BLF     ??drawId3,??drawId3??rA
//   89   }
//   90 } 
        POP      {R4,PC}          ;; return
        DATA
??Draw_2:
        DC32     BCFG_Images_Background_Enable
        DC32     BCFG_Images_Background_Position_Y
        DC32     BCFG_Images_Background_Position_X
        CFI EndBlock cfiBlock10

        RSEG CODE:CODE:NOROOT(2)
        CFI Block cfiBlock11 Using cfiCommon1
        CFI NoFunction
        THUMB
??ifDrawNoMask??rT:
        BX       PC
        Nop      
        CFI EndBlock cfiBlock11
        REQUIRE ??ifDrawNoMask
//   91 

        RSEG CODE:CODE:NOROOT(2)
        CFI Block cfiBlock12 Using cfiCommon0
        CFI Function ??ifDrawNoMask
        ARM
//   92 void ifDrawNoMask(bool contentIf, wchar_t* message, int fontSize, int align, int x, int y, unsigned int color) {
??ifDrawNoMask:
        PUSH     {R4,R5,LR}
        CFI ?RET Frame(CFA, -4)
        CFI R5 Frame(CFA, -8)
        CFI R4 Frame(CFA, -12)
        CFI CFA R13+12
        LDR      R4,[SP, #+16]
        LDR      R5,[SP, #+20]
        MOV      R12,R0
        MOV      R0,R1
        MOV      R1,R2
        MOV      R2,R3
        LDR      R3,[SP, #+12]
//   93   if (contentIf)
        CMP      R12,#+0
        POPEQ    {R4,R5,PC}
//   94     drawOnStby( message, fontSize, align, x, y, color);
        PUSH     {R5}
        CFI CFA R13+16
        PUSH     {R4}
        CFI CFA R13+20
        BL       ??drawOnStby
        ADD      SP,SP,#+8
        CFI CFA R13+12
//   95 }
        POP      {R4,R5,PC}       ;; return
        CFI EndBlock cfiBlock12

        RSEG CODE:CODE:NOROOT(2)
        CFI Block cfiBlock13 Using cfiCommon1
        CFI NoFunction
        THUMB
??drawStdby??rT:
        BX       PC
        Nop      
        CFI EndBlock cfiBlock13
        REQUIRE ??drawStdby
//   96 
//   97 
//   98 

        RSEG CODE:CODE:NOROOT(2)
        CFI Block cfiBlock14 Using cfiCommon0
        CFI Function ??drawStdby
        ARM
//   99 void drawStdby(wchar_t* message,int fontSize, int align, int x1, int y1, int x2, int y2, int textColor ) {
??drawStdby:
        PUSH     {R4-R11,LR}
        CFI ?RET Frame(CFA, -4)
        CFI R11 Frame(CFA, -8)
        CFI R10 Frame(CFA, -12)
        CFI R9 Frame(CFA, -16)
        CFI R8 Frame(CFA, -20)
        CFI R7 Frame(CFA, -24)
        CFI R6 Frame(CFA, -28)
        CFI R5 Frame(CFA, -32)
        CFI R4 Frame(CFA, -36)
        CFI CFA R13+36
        LDR      R7,[SP, #+36]
        LDR      R10,[SP, #+48]
        LDR      R8,[SP, #+40]
        LDR      R9,[SP, #+44]
        MOV      R11,R0
        MOV      R4,R1
        MOV      R5,R2
        MOV      R6,R3
//  100   int msgSize = wstrlen(message);
        SWI      +343
//  101   TEXTID drawText = TextID_Create(message, ENC_UCS2 , msgSize);
        MOV      R2,R0
        MOV      R1,#+0
        MOV      R0,R11
        SWI      +349
        MOV      R11,R0
//  102   SetFont(fontSize);
        MOV      R0,R4
        SWI      +497
//  103   DrawString( drawText , align , x1, y1 -16, x2, y2 -16, 60 , 0x05 , textColor , textColor );
        MOV      R0,R10
        PUSH     {R0}
        CFI CFA R13+40
        PUSH     {R10}
        CFI CFA R13+44
        SUB      R3,R7,#+16
        MOV      R0,#+5
        PUSH     {R0}
        CFI CFA R13+48
        MOV      R2,R6
        MOV      R1,R5
        MOV      R0,#+60
        PUSH     {R0}
        CFI CFA R13+52
        SUB      R0,R9,#+16
        PUSH     {R0}
        CFI CFA R13+56
        PUSH     {R8}
        CFI CFA R13+60
        MOV      R0,R11
        SWI      +493
//  104   TextID_Destroy( drawText );
        MOV      R0,R11
        SWI      +353
//  105 }
        ADD      SP,SP,#+24
        CFI CFA R13+36
        POP      {R4-R11,PC}      ;; return
        CFI EndBlock cfiBlock14

        RSEG CODE:CODE:NOROOT(2)
        CFI Block cfiBlock15 Using cfiCommon1
        CFI NoFunction
        THUMB
??drawClock??rT:
        BX       PC
        Nop      
        CFI EndBlock cfiBlock15
        REQUIRE ??drawClock
//  106 

        RSEG CODE:CODE:NOROOT(2)
        CFI Block cfiBlock16 Using cfiCommon0
        CFI Function ??drawClock
        ARM
//  107 void drawClock(int hour, int min) {
??drawClock:
        PUSH     {R1,R5-R10,LR}
        CFI ?RET Frame(CFA, -4)
        CFI R10 Frame(CFA, -8)
        CFI R9 Frame(CFA, -12)
        CFI R8 Frame(CFA, -16)
        CFI R7 Frame(CFA, -20)
        CFI R6 Frame(CFA, -24)
        CFI R5 Frame(CFA, -28)
        CFI CFA R13+32
//  108   wchar_t* tempHour = NULL;
//  109   if (BCFG_Time_Type == 0) { //analog clock
        LDR      R10,??drawClock_1  ;; `?<Constant L"\\x25\\x64\\x3a\\x25\\x64">`
        MOV      R9,R0
        LDR      R0,??drawClock_1+0x4  ;; BCFG_Time_Type
        SUB      SP,SP,#+4
        CFI CFA R13+36
        LDR      R0,[R0, #+0]
        CMP      R0,#+0
        BNE      ??drawClock_2
//  110     RECT statePos = BCFG_Time_AnalogClock_State_Position;
        LDR      R0,??drawClock_1+0x8  ;; BCFG_Time_AnalogClock_State_Position
        LDRH     R2,[R0, #+0]
        LDRH     R6,[R0, #+2]
        LDRH     R7,[R0, #+4]
        LDRH     R8,[R0, #+6]
//  111     ifDrawImage( BCFG_Images_Clock_Enable, BCFG_Images_Clock_Position_X, BCFG_Images_Clock_Position_Y,
//  112                 clockID[min] );
        LDR      R0,??drawClock_1+0xC  ;; BCFG_Images_Clock_Enable
        STRH     R2,[SP, #+0]
        LDR      R2,??DataTable18  ;; statesID
        LDR      R0,[R0, #+0]
        ADD      R1,R2,R1, LSL #+1
        ADD      R3,R1,#+140
        LDR      R1,??drawClock_1+0x10  ;; BCFG_Images_Clock_Position_Y
        CMP      R0,#+0
        LDR      R2,[R1, #+0]
        LDR      R1,??drawClock_1+0x14  ;; BCFG_Images_Clock_Position_X
        MOVNE    R0,#+1
        LDR      R1,[R1, #+0]
        BL       ??ifDrawImage
//  113     tempHour = makeNullWchar( 3 );
        MOV      R0,#+3
        _BLF     ??makeNullWchar,??makeNullWchar??rA
        MOV      R5,R0
//  114     snwprintf( tempHour, 3, L"%d", hour);
        MOV      R3,R9
        ADD      R2,R10,#+44
        MOV      R1,#+3
        SWI      +277
//  115     ifDrawNoMask( BCFG_Time_Hour_Enable, tempHour, BCFG_Time_Hour_FontSize, BCFG_Time_Hour_Align,
//  116                  BCFG_DateTime_Time_AnalogClock_Hour_Position_X, BCFG_DateTime_Time_AnalogClock_Hour_Position_Y - 16, BCFG_Time_Hour_TextColor );
        LDR      R0,??drawClock_1+0x18  ;; BCFG_Time_Hour_Enable
        LDR      R1,??drawClock_1+0x1C  ;; BCFG_Time_Hour_TextColor
        LDR      R0,[R0, #+0]
        LDR      R1,[R1, #+0]
        CMP      R0,#+0
        PUSH     {R1}
        CFI CFA R13+40
        LDR      R1,??drawClock_1+0x20  ;; BCFG_DateTime_Time_AnalogClock_Hour_Position_Y
        MOVNE    R0,#+1
        LDR      R1,[R1, #+0]
        SUB      R1,R1,#+16
        PUSH     {R1}
        CFI CFA R13+44
        LDR      R1,??drawClock_1+0x24  ;; BCFG_DateTime_Time_AnalogClock_Hour_Position_X
        LDR      R1,[R1, #+0]
        PUSH     {R1}
        CFI CFA R13+48
        LDR      R1,??drawClock_1+0x28  ;; BCFG_Time_Hour_Align
        LDR      R3,[R1, #+0]
        LDR      R1,??drawClock_1+0x2C  ;; BCFG_Time_Hour_FontSize
        LDR      R2,[R1, #+0]
        MOV      R1,R5
        BL       ??ifDrawNoMask
//  117     delete tempHour;  tempHour = NULL;
        MOV      R0,R5
        _BLF     `??operator delete`,`??operator delete??rA`
//  118     if (BCFG_Time_State_Enable)
        LDR      R0,??drawClock_1+0x30  ;; BCFG_Time_State_Enable
        LDR      R0,[R0, #+0]
        ADD      SP,SP,#+12
        CFI CFA R13+36
        CMP      R0,#+0
        POPEQ    {R0,R1,R5-R10,PC}
//  119       drawStdby( mybook->hourState, BCFG_Time_State_FontSize, BCFG_Time_State_Align,
//  120                 statePos.x1, statePos.y1, statePos.x2, statePos.y2, BCFG_Time_State_TextColor );
        LDR      R0,??drawClock_1+0x34  ;; BCFG_Time_State_TextColor
        LDR      R0,[R0, #+0]
        PUSH     {R0}
        CFI CFA R13+40
        LDR      R0,??drawClock_1+0x38  ;; BCFG_Time_State_Align
        PUSH     {R8}
        CFI CFA R13+44
        PUSH     {R6}
        CFI CFA R13+48
        PUSH     {R7}
        CFI CFA R13+52
        LDR      R2,[R0, #+0]
        LDR      R0,??drawClock_1+0x3C  ;; BCFG_Time_State_FontSize
        LDRH     R3,[SP, #+16]
        LDR      R1,[R0, #+0]
        LDR      R0,??DataTable5  ;; statesID + 996
        LDR      R0,[R0, #+0]
        LDR      R0,[R0, #+144]
        BL       ??drawStdby
        ADD      SP,SP,#+16
        CFI CFA R13+36
        POP      {R0,R1,R5-R10,PC}
//  121    }
//  122   
//  123   else {  //digital clock
//  124     tempHour = makeNullWchar( 7 );
??drawClock_2:
        MOV      R0,#+7
        _BLF     ??makeNullWchar,??makeNullWchar??rA
        MOV      R5,R0
//  125     wchar_t* hourMask = L"";
//  126     (min > 10 ? (hourMask = L"%d:%d") : (hourMask = L"%d:0%d") );
        LDR      R0,[SP, #+4]
        CMP      R0,#+11
//  127     snwprintf( tempHour, 7, hourMask, (hour%12), min);
        PUSH     {R0}
        CFI CFA R13+40
        LDR      R0,??drawClock_1+0x40  ;; 0x2aaaaaab
        MOVGE    R2,R10
        SMULL    R1,R3,R9,R0
        MOV      R1,#+12
        ASR      R3,R3,#+1
        ADD      R3,R3,R9, LSR #+31
        MUL      R3,R1,R3
        ADDLT    R2,R10,#+12
        SUB      R3,R9,R3
        MOV      R1,#+7
        MOV      R0,R5
        SWI      +277
//  128     ifDrawNoMask( BCFG_Time_DigitalClock_Enable, tempHour, BCFG_Time_DigitalClock_FontSize, BCFG_Time_DigitalClock_Align,
//  129                  BCFG_DateTime_Time_DigitalClock_Position_X, BCFG_DateTime_Time_DigitalClock_Position_Y - 16, BCFG_Time_DigitalClock_TextColor );
        LDR      R0,??drawClock_1+0x44  ;; BCFG_Time_DigitalClock_Enable
        LDR      R1,??drawClock_1+0x48  ;; BCFG_Time_DigitalClock_TextColor
        LDR      R0,[R0, #+0]
        ADD      SP,SP,#+4
        CFI CFA R13+36
        LDR      R1,[R1, #+0]
        CMP      R0,#+0
        PUSH     {R1}
        CFI CFA R13+40
        LDR      R1,??drawClock_1+0x4C  ;; BCFG_DateTime_Time_DigitalClock_Position_Y
        MOVNE    R0,#+1
        LDR      R1,[R1, #+0]
        MOVEQ    R0,#+0
        SUB      R1,R1,#+16
        PUSH     {R1}
        CFI CFA R13+44
        LDR      R1,??drawClock_1+0x50  ;; BCFG_DateTime_Time_DigitalClock_Position_X
        LDR      R1,[R1, #+0]
        PUSH     {R1}
        CFI CFA R13+48
        LDR      R1,??drawClock_1+0x54  ;; BCFG_Time_DigitalClock_Align
        LDR      R3,[R1, #+0]
        LDR      R1,??drawClock_1+0x58  ;; BCFG_Time_DigitalClock_FontSize
        LDR      R2,[R1, #+0]
        MOV      R1,R5
        BL       ??ifDrawNoMask
//  130     wchar_t* ampm = ((hour >= BCFG_Tags_Time_Night || hour < BCFG_Tags_Time_Day) ? L"pm" : L"am");
        LDR      R0,??DataTable13  ;; BCFG_Tags_Time_Night
        LDR      R0,[R0, #+0]
        ADD      SP,SP,#+12
        CFI CFA R13+36
        CMP      R9,R0
        BCS      ??drawClock_3
        LDR      R0,??DataTable14  ;; BCFG_Tags_Time_Day
        LDR      R0,[R0, #+0]
        CMP      R9,R0
        BCS      ??drawClock_4
??drawClock_3:
        ADD      R1,R10,#+28
        B        ??drawClock_5
??drawClock_4:
        ADD      R1,R10,#+36
//  131     ifDrawNoMask( BCFG_Time_AMPM_Enable, ampm, BCFG_Time_AMPM_FontSize, BCFG_Time_AMPM_Align,
//  132                  BCFG_DateTime_Time_DigitalClock_AMPM_Position_X, BCFG_DateTime_Time_DigitalClock_AMPM_Position_Y - 16,
//  133                  BCFG_Time_AMPM_TextColor );
??drawClock_5:
        LDR      R0,??drawClock_1+0x5C  ;; BCFG_Time_AMPM_Enable
        LDR      R2,??drawClock_1+0x60  ;; BCFG_Time_AMPM_TextColor
        LDR      R0,[R0, #+0]
        LDR      R2,[R2, #+0]
        CMP      R0,#+0
        PUSH     {R2}
        CFI CFA R13+40
        LDR      R2,??drawClock_1+0x64  ;; BCFG_DateTime_Time_DigitalClock_AMPM_Position_Y
        MOVNE    R0,#+1
        LDR      R2,[R2, #+0]
        SUB      R2,R2,#+16
        PUSH     {R2}
        CFI CFA R13+44
        LDR      R2,??drawClock_1+0x68  ;; BCFG_DateTime_Time_DigitalClock_AMPM_Position_X
        LDR      R2,[R2, #+0]
        PUSH     {R2}
        CFI CFA R13+48
        LDR      R2,??drawClock_1+0x6C  ;; BCFG_Time_AMPM_Align
        LDR      R3,[R2, #+0]
        LDR      R2,??drawClock_1+0x70  ;; BCFG_Time_AMPM_FontSize
        LDR      R2,[R2, #+0]
        BL       ??ifDrawNoMask
//  134     delete tempHour; tempHour = NULL;
        MOV      R0,R5
        _BLF     `??operator delete`,`??operator delete??rA`
        ADD      SP,SP,#+12
        CFI CFA R13+36
//  135   }
//  136 }
        POP      {R0,R1,R5-R10,PC}
        DATA
??drawClock_1:
        DC32     `?<Constant L"\\x25\\x64\\x3a\\x25\\x64">`
        DC32     BCFG_Time_Type
        DC32     BCFG_Time_AnalogClock_State_Position
        DC32     BCFG_Images_Clock_Enable
        DC32     BCFG_Images_Clock_Position_Y
        DC32     BCFG_Images_Clock_Position_X
        DC32     BCFG_Time_Hour_Enable
        DC32     BCFG_Time_Hour_TextColor
        DC32     BCFG_DateTime_Time_AnalogClock_Hour_Position_Y
        DC32     BCFG_DateTime_Time_AnalogClock_Hour_Position_X
        DC32     BCFG_Time_Hour_Align
        DC32     BCFG_Time_Hour_FontSize
        DC32     BCFG_Time_State_Enable
        DC32     BCFG_Time_State_TextColor
        DC32     BCFG_Time_State_Align
        DC32     BCFG_Time_State_FontSize
        DC32     0x2aaaaaab
        DC32     BCFG_Time_DigitalClock_Enable
        DC32     BCFG_Time_DigitalClock_TextColor
        DC32     BCFG_DateTime_Time_DigitalClock_Position_Y
        DC32     BCFG_DateTime_Time_DigitalClock_Position_X
        DC32     BCFG_Time_DigitalClock_Align
        DC32     BCFG_Time_DigitalClock_FontSize
        DC32     BCFG_Time_AMPM_Enable
        DC32     BCFG_Time_AMPM_TextColor
        DC32     BCFG_DateTime_Time_DigitalClock_AMPM_Position_Y
        DC32     BCFG_DateTime_Time_DigitalClock_AMPM_Position_X
        DC32     BCFG_Time_AMPM_Align
        DC32     BCFG_Time_AMPM_FontSize
        CFI EndBlock cfiBlock16

        RSEG CODE:CODE:NOROOT(2)
        DATA
??DataTable5:
        DC32     statesID + 996

        RSEG CODE:CODE:NOROOT(2)
        CFI Block cfiBlock17 Using cfiCommon1
        CFI NoFunction
        THUMB
??finalDraw??rT:
        BX       PC
        Nop      
        CFI EndBlock cfiBlock17
        REQUIRE ??finalDraw
//  137 

        RSEG CODE:CODE:NOROOT(2)
        CFI Block cfiBlock18 Using cfiCommon0
        CFI Function ??finalDraw
        ARM
//  138 void finalDraw(wchar_t* location, wchar_t* state, int dayState, int averageTemp) {
??finalDraw:
        PUSH     {R3,R6-R11,LR}
        CFI ?RET Frame(CFA, -4)
        CFI R11 Frame(CFA, -8)
        CFI R10 Frame(CFA, -12)
        CFI R9 Frame(CFA, -16)
        CFI R8 Frame(CFA, -20)
        CFI R7 Frame(CFA, -24)
        CFI R6 Frame(CFA, -28)
        CFI CFA R13+32
        MOV      R7,R0
//  139   //<!--images
//  140   //bg removed cuz it's default for music too so we always need it.
//  141   ifDrawImage( BCFG_Images_AccuWeatherLogo_Enable, BCFG_Images_AccuWeatherLogo_Position_X, BCFG_Images_AccuWeatherLogo_Position_Y,
//  142               statesID[0x1] );
        LDR      R0,??finalDraw_1  ;; BCFG_Images_AccuWeatherLogo_Enable
        LDR      R3,??finalDraw_1+0x4  ;; statesID + 2
        LDR      R0,[R0, #+0]
        MOV      R6,R1
        LDR      R1,??finalDraw_1+0x8  ;; BCFG_Images_AccuWeatherLogo_Position_Y
        MOV      R8,R2
        LDR      R2,[R1, #+0]
        LDR      R1,??finalDraw_1+0xC  ;; BCFG_Images_AccuWeatherLogo_Position_X
        CMP      R0,#+0
        LDR      R1,[R1, #+0]
        MOVNE    R0,#+1
        BL       ??ifDrawImage
//  143   ifDrawImage( BCFG_Images_DayState_Enable, BCFG_Images_DayState_Position_X, BCFG_Images_DayState_Position_Y,
//  144               statesID[dayState+0x1] );
        LDR      R1,??DataTable22  ;; statesID
        LDR      R0,??finalDraw_1+0x10  ;; BCFG_Images_DayState_Enable
        ADD      R1,R1,R8, LSL #+1
        LDR      R0,[R0, #+0]
        ADD      R3,R1,#+2
        LDR      R1,??finalDraw_1+0x14  ;; BCFG_Images_DayState_Position_Y
        CMP      R0,#+0
        LDR      R2,[R1, #+0]
        LDR      R1,??finalDraw_1+0x18  ;; BCFG_Images_DayState_Position_X
        MOVNE    R0,#+1
        LDR      R1,[R1, #+0]
        BL       ??ifDrawImage
//  145   //-->
//  146   //<!--text
//  147   ifDrawNoMask(BCFG_Tags_Location_Enable , location, BCFG_Tags_Location_FontSize , BCFG_Tags_Location_Align , 
//  148                BCFG_Tags_Location_Position_X , BCFG_Tags_Location_Position_Y - 16 , BCFG_Tags_Location_TextColor);
        LDR      R0,??finalDraw_1+0x1C  ;; BCFG_Tags_Location_Enable
        LDR      R1,??finalDraw_1+0x20  ;; BCFG_Tags_Location_TextColor
        LDR      R0,[R0, #+0]
        LDR      R1,[R1, #+0]
        CMP      R0,#+0
        PUSH     {R1}
        CFI CFA R13+36
        LDR      R1,??finalDraw_1+0x24  ;; BCFG_Tags_Location_Position_Y
        MOVNE    R0,#+1
        LDR      R1,[R1, #+0]
        SUB      R1,R1,#+16
        PUSH     {R1}
        CFI CFA R13+40
        LDR      R1,??finalDraw_1+0x28  ;; BCFG_Tags_Location_Position_X
        LDR      R1,[R1, #+0]
        PUSH     {R1}
        CFI CFA R13+44
        LDR      R1,??finalDraw_1+0x2C  ;; BCFG_Tags_Location_Align
        LDR      R3,[R1, #+0]
        LDR      R1,??finalDraw_1+0x30  ;; BCFG_Tags_Location_FontSize
        LDR      R2,[R1, #+0]
        MOV      R1,R7
        BL       ??ifDrawNoMask
        LDR      R0,??finalDraw_1+0x34  ;; BCFG_Tags_DayState_Position_Y
        LDR      R0,[R0, #+0]
        SUB      R7,R0,#+16
        LDR      R0,??finalDraw_1+0x38  ;; BCFG_Tags_DayState_FontSize
        LDR      R8,[R0, #+0]
        LDR      R0,??finalDraw_1+0x3C  ;; BCFG_Tags_DayState_Align
        LDR      R9,[R0, #+0]
        LDR      R0,??finalDraw_1+0x40  ;; BCFG_Tags_DayState_Position_X
        LDR      R10,[R0, #+0]
        LDR      R0,??finalDraw_1+0x44  ;; BCFG_Tags_DayState_TextColor
        LDR      R11,[R0, #+0]
        LDR      R0,??finalDraw_1+0x48  ;; BCFG_Tags_AverageTemperature_Enable
        LDR      R0,[R0, #+0]
        ADD      SP,SP,#+12
        CFI CFA R13+32
        CMP      R0,#+0
        BEQ      ??finalDraw_2
//  149   
//  150   if (BCFG_Tags_AverageTemperature_Enable) {// %d
//  151     wchar_t* stateAvg = makeAvgState( state, averageTemp );
        LDR      R1,[SP, #+0]
        MOV      R0,R6
        _BLF     ??makeAvgState,??makeAvgState??rA
        MOV      R6,R0
//  152     ifDrawNoMask( BCFG_Tags_AverageTemperature_Enable, stateAvg, BCFG_Tags_DayState_FontSize, BCFG_Tags_DayState_Align,
//  153                  BCFG_Tags_DayState_Position_X, BCFG_Tags_DayState_Position_Y - 16, BCFG_Tags_DayState_TextColor );
        PUSH     {R11}
        CFI CFA R13+36
        PUSH     {R7}
        CFI CFA R13+40
        PUSH     {R10}
        CFI CFA R13+44
        MOV      R3,R9
        MOV      R2,R8
        MOV      R1,R6
        MOV      R0,#+1
        BL       ??ifDrawNoMask
//  154     delete stateAvg; stateAvg = NULL;
        MOV      R0,R6
        _BLF     `??operator delete`,`??operator delete??rA`
        B        ??finalDraw_3
        CFI CFA R13+32
//  155   }
//  156   else
//  157     ifDrawNoMask( BCFG_Tags_DayState_Enable , state , BCFG_Tags_DayState_FontSize , BCFG_Tags_DayState_Align ,
//  158                  BCFG_Tags_DayState_Position_X, BCFG_Tags_DayState_Position_Y - 16 , BCFG_Tags_DayState_TextColor );
??finalDraw_2:
        LDR      R0,??finalDraw_1+0x4C  ;; BCFG_Tags_DayState_Enable
        MOV      R3,R9
        LDR      R0,[R0, #+0]
        PUSH     {R11}
        CFI CFA R13+36
        CMP      R0,#+0
        MOVNE    R0,#+1
        PUSH     {R7}
        CFI CFA R13+40
        PUSH     {R10}
        CFI CFA R13+44
        MOV      R2,R8
        MOV      R1,R6
        BL       ??ifDrawNoMask
//  159   
//  160   ifDrawNoMask( BCFG_Date_Enable , mybook->dateToDraw , BCFG_Date_FontSize, BCFG_Date_Align ,
//  161                BCFG_DateTime_Date_Position_X , BCFG_DateTime_Date_Position_Y - 16, BCFG_Date_TextColor );
??finalDraw_3:
        LDR      R0,??finalDraw_1+0x50  ;; BCFG_Date_Enable
        LDR      R1,??finalDraw_1+0x54  ;; BCFG_Date_TextColor
        ADD      SP,SP,#+12
        CFI CFA R13+32
        LDR      R0,[R0, #+0]
        LDR      R1,[R1, #+0]
        CMP      R0,#+0
        PUSH     {R1}
        CFI CFA R13+36
        LDR      R1,??finalDraw_1+0x58  ;; BCFG_DateTime_Date_Position_Y
        MOVNE    R0,#+1
        LDR      R1,[R1, #+0]
        SUB      R1,R1,#+16
        PUSH     {R1}
        CFI CFA R13+40
        LDR      R1,??finalDraw_1+0x5C  ;; BCFG_DateTime_Date_Position_X
        LDR      R1,[R1, #+0]
        PUSH     {R1}
        CFI CFA R13+44
        LDR      R1,??finalDraw_1+0x60  ;; BCFG_Date_Align
        LDR      R3,[R1, #+0]
        LDR      R1,??finalDraw_1+0x64  ;; BCFG_Date_FontSize
        LDR      R2,[R1, #+0]
        LDR      R1,??finalDraw_1+0x68  ;; statesID + 996
        LDR      R1,[R1, #+0]
        LDR      R1,[R1, #+148]
        BL       ??ifDrawNoMask
//  162   
//  163   //-->
//  164 }
        POP      {R0-R3,R6-R11,PC}
        DATA
??finalDraw_1:
        DC32     BCFG_Images_AccuWeatherLogo_Enable
        DC32     statesID + 2
        DC32     BCFG_Images_AccuWeatherLogo_Position_Y
        DC32     BCFG_Images_AccuWeatherLogo_Position_X
        DC32     BCFG_Images_DayState_Enable
        DC32     BCFG_Images_DayState_Position_Y
        DC32     BCFG_Images_DayState_Position_X
        DC32     BCFG_Tags_Location_Enable
        DC32     BCFG_Tags_Location_TextColor
        DC32     BCFG_Tags_Location_Position_Y
        DC32     BCFG_Tags_Location_Position_X
        DC32     BCFG_Tags_Location_Align
        DC32     BCFG_Tags_Location_FontSize
        DC32     BCFG_Tags_DayState_Position_Y
        DC32     BCFG_Tags_DayState_FontSize
        DC32     BCFG_Tags_DayState_Align
        DC32     BCFG_Tags_DayState_Position_X
        DC32     BCFG_Tags_DayState_TextColor
        DC32     BCFG_Tags_AverageTemperature_Enable
        DC32     BCFG_Tags_DayState_Enable
        DC32     BCFG_Date_Enable
        DC32     BCFG_Date_TextColor
        DC32     BCFG_DateTime_Date_Position_Y
        DC32     BCFG_DateTime_Date_Position_X
        DC32     BCFG_Date_Align
        DC32     BCFG_Date_FontSize
        DC32     statesID + 996
        CFI EndBlock cfiBlock18

        RSEG CODE:CODE:NOROOT(2)
        CFI Block cfiBlock19 Using cfiCommon1
        CFI NoFunction
        THUMB
??onfTimer??rT:
        BX       PC
        Nop      
        CFI EndBlock cfiBlock19
        REQUIRE ??onfTimer
//  165 

        RSEG CODE:CODE:NOROOT(2)
        CFI Block cfiBlock20 Using cfiCommon0
        CFI Function ??onfTimer
        ARM
//  166 void onfTimer (u16 tmr , LPARAM) {
??onfTimer:
        PUSH     {R4,LR}
        CFI ?RET Frame(CFA, -4)
        CFI R4 Frame(CFA, -8)
        CFI CFA R13+8
        SUB      SP,SP,#+4
        CFI CFA R13+12
//  167   if (0 == strcmp(Display_GetTopBook(0)->xbook->name, "StandbyBook"))
        LDR      R4,??DataTable18  ;; statesID
        MOV      R0,#+0
        SWI      +795
        LDR      R0,[R0, #+0]
        LDR      R1,??onfTimer_1  ;; `?<Constant "StandbyBook">`
        LDR      R0,[R0, #+4]
        SWI      +345
        CMP      R0,#+0
        BNE      ??onfTimer_2
//  168     DispObject_InvalidateRect(StatusIndication,0);  
        LDR      R0,[R4, #+336]
        MOV      R1,#+0
        SWI      +495
//  169   Timer_ReSet(&mybook->ftimer,1000,onfTimer,0);
??onfTimer_2:
        MOV      R1,#+0
        MOV      R0,SP
        _BLF     ??LPARAM,??LPARAM??rA
        LDR      R0,[R4, #+996]
        LDR      R3,[SP, #+0]
        LDR      R2,??DataTable25  ;; ??onfTimer
        MOV      R1,#+1000
        ADD      R0,R0,#+160
        SWI      +296
//  170 }
        POP      {R0,R4,PC}       ;; return
        DATA
??onfTimer_1:
        DC32     `?<Constant "StandbyBook">`
        CFI EndBlock cfiBlock20

        RSEG CODE:CODE:NOROOT(2)
        CFI Block cfiBlock21 Using cfiCommon1
        CFI NoFunction
        THUMB
??makeDateMask??rT:
        BX       PC
        Nop      
        CFI EndBlock cfiBlock21
        REQUIRE ??makeDateMask
//  171 

        RSEG CODE:CODE:NOROOT(2)
        CFI Block cfiBlock22 Using cfiCommon0
        CFI Function ??makeDateMask
        ARM
//  172 void makeDateMask() { //0 = segunda, 1 = tera, ... , 6 = domingo
??makeDateMask:
        PUSH     {R4-R7,LR}
        CFI ?RET Frame(CFA, -4)
        CFI R7 Frame(CFA, -8)
        CFI R6 Frame(CFA, -12)
        CFI R5 Frame(CFA, -16)
        CFI R4 Frame(CFA, -20)
        CFI CFA R13+20
//  173   if (mybook->dateToDraw != NULL) { delete mybook->dateToDraw; mybook->dateToDraw = NULL; }
        LDR      R4,??DataTable18  ;; statesID
        SUB      SP,SP,#+4
        CFI CFA R13+24
        LDR      R0,[R4, #+996]
        LDR      R0,[R0, #+148]
        CMP      R0,#+0
        BEQ      ??makeDateMask_1
        _BLF     `??operator delete`,`??operator delete??rA`
        LDR      R0,[R4, #+996]
        MOV      R1,#+0
        STR      R1,[R0, #+148]
//  174   char _weekDay;
//  175   DATE_GetWeekDay(&mybook->now.date, &_weekDay);
??makeDateMask_1:
        LDR      R0,[R4, #+996]
//  176   int weekday = _weekDay;
//  177   if (weekday < 1 && weekday > 6)
//  178     weekday = 0;
//  179   mybook->weekToDraw = mybook->weekNames[weekday];
//  180   int month = mybook->now.date.mon;
//  181   mybook->monthToDraw = mybook->monthNames[ (month > 0 ? month - 0x1 : 0x0) ];
//  182   int dateLength = wstrlen(mybook->weekToDraw) + wstrlen(mybook->monthToDraw) + 5;
//  183   wchar_t* dateToDraw = makeNullWchar( dateLength );
//  184   wstrcpy(dateToDraw, mybook->weekToDraw);
//  185   wstrcat(dateToDraw, L", ");
        LDR      R6,??makeDateMask_2  ;; `?<Constant L"\\x2c\\x20">`
        MOV      R1,SP
        ADD      R0,R0,#+152
        SWI      +668
        LDRB     R1,[SP, #+0]
        LDR      R0,[R4, #+996]
        ADD      R1,R0,R1, LSL #+2
        LDR      R1,[R1, #+36]
        STR      R1,[R0, #+64]
        LDRB     R1,[R0, #+154]
        CMP      R1,#+1
        SUBGE    R1,R1,#+1
        MOVLT    R1,#+0
        ADD      R1,R0,R1, LSL #+2
        LDR      R1,[R1, #+68]
        STR      R1,[R0, #+140]
        LDR      R0,[R0, #+64]
        SWI      +343
        MOV      R5,R0
        LDR      R0,[R4, #+996]
        LDR      R0,[R0, #+140]
        SWI      +343
        ADD      R0,R0,R5
        ADD      R0,R0,#+5
        _BLF     ??makeNullWchar,??makeNullWchar??rA
        MOV      R5,R0
        LDR      R0,[R4, #+996]
        LDR      R1,[R0, #+64]
        MOV      R0,R5
        SWI      +338
        MOV      R1,R6
        MOV      R0,R5
        SWI      +340
//  186   wstrcat(dateToDraw, mybook->monthToDraw);
        LDR      R0,[R4, #+996]
        LDR      R1,[R0, #+140]
        MOV      R0,R5
        SWI      +340
//  187   wchar_t* day = makeNullWchar( 4 );
        MOV      R0,#+4
        _BLF     ??makeNullWchar,??makeNullWchar??rA
        MOV      R7,R0
//  188   int intDay = mybook->now.date.day;
//  189   snwprintf( day, 4, L" %d", intDay);
        LDR      R0,[R4, #+996]
        ADD      R2,R6,#+8
        LDRB     R3,[R0, #+155]
        MOV      R1,#+4
        MOV      R0,R7
        SWI      +277
//  190   wstrcat(dateToDraw, day);
        MOV      R1,R7
        MOV      R0,R5
        SWI      +340
//  191   mybook->dateToDraw = dateToDraw;
        LDR      R0,[R4, #+996]
        STR      R5,[R0, #+148]
//  192   delete day;
        MOV      R0,R7
        _BLF     `??operator delete`,`??operator delete??rA`
//  193 }
        POP      {R0,R4-R7,PC}    ;; return
        DATA
??makeDateMask_2:
        DC32     `?<Constant L"\\x2c\\x20">`
        CFI EndBlock cfiBlock22

        RSEG CODE:CODE:NOROOT(2)
        CFI Block cfiBlock23 Using cfiCommon1
        CFI NoFunction
        THUMB
??drawWeatherContents??rT:
        BX       PC
        Nop      
        CFI EndBlock cfiBlock23
        REQUIRE ??drawWeatherContents
//  194 

        RSEG CODE:CODE:NOROOT(2)
        CFI Block cfiBlock24 Using cfiCommon0
        CFI Function ??drawWeatherContents
        ARM
//  195 void drawWeatherContents() {
??drawWeatherContents:
        PUSH     {R4-R7,LR}
        CFI ?RET Frame(CFA, -4)
        CFI R7 Frame(CFA, -8)
        CFI R6 Frame(CFA, -12)
        CFI R5 Frame(CFA, -16)
        CFI R4 Frame(CFA, -20)
        CFI CFA R13+20
//  196   //18 ~ 06: night, 06 ~ 18: day
//  197   mybook->now = getDateTime();
        LDR      R4,??DataTable18  ;; statesID
        SUB      SP,SP,#+8
        CFI CFA R13+28
        MOV      R0,SP
        _BLF     ??getDateTime,??getDateTime??rA
        LDR      R0,[R4, #+996]
        MOV      R1,SP
        LDRH     R2,[R1, #0]
        STRH     R2,[R0, #+152]!
        LDRH     R2,[R1, #+2]
        STRH     R2,[R0, #+2]
        LDRH     R2,[R1, #+4]
        STRH     R2,[R0, #+4]
        LDRH     R2,[R1, #+6]
        STRH     R2,[R0, #+6]
//  198 
//  199   if (mybook->getHourSeted() == -1) {
        LDR      R0,[R4, #+996]
        _BLF     ??getHourSeted,??getHourSeted??rA
        CMN      R0,#+1
        BNE      ??drawWeatherContents_1
//  200     if (mybook->getWeatherToDraw() != NULL) mybook->freeWDraw();
        LDR      R0,[R4, #+996]
        _BLF     ??getWeatherToDraw,??getWeatherToDraw??rA
        CMP      R0,#+0
        BEQ      ??drawWeatherContents_2
        LDR      R0,[R4, #+996]
        _BLF     ??freeWDraw,??freeWDraw??rA
//  201     mybook->setHour(mybook->now.time.hour);
??drawWeatherContents_2:
        LDR      R0,[R4, #+996]
        LDRB     R1,[R0, #+156]
        _BLF     ??setHour,??setHour??rA
//  202 
//  203     if (mybook->now.time.hour >= BCFG_Tags_Time_Night || mybook->now.time.hour < BCFG_Tags_Time_Day) //need to check that later, midnight weather!
        LDR      R0,[R4, #+996]
        LDR      R2,??DataTable13  ;; BCFG_Tags_Time_Night
        LDRB     R1,[R0, #+156]
        LDR      R2,[R2, #+0]
        CMP      R1,R2
        BCS      ??drawWeatherContents_3
        LDR      R2,??DataTable14  ;; BCFG_Tags_Time_Day
        LDR      R2,[R2, #+0]
        CMP      R1,R2
        BCS      ??drawWeatherContents_4
//  204       mybook->setWDraw(2);
??drawWeatherContents_3:
        MOV      R1,#+2
        B        ??drawWeatherContents_5
//  205     else
//  206       mybook->setWDraw(1);
??drawWeatherContents_4:
        MOV      R1,#+1
??drawWeatherContents_5:
        _BLF     ??setWDraw,??setWDraw??rA
//  207   }
//  208   
//  209   if (mybook->getHourSeted() != mybook->now.time.hour) {
??drawWeatherContents_1:
        LDR      R0,[R4, #+996]
        _BLF     ??getHourSeted,??getHourSeted??rA
        MOV      R1,R0
        LDR      R0,[R4, #+996]
        LDRB     R2,[R0, #+156]
        CMP      R1,R2
        BEQ      ??drawWeatherContents_6
//  210     mybook->setHour(-1);
        MVN      R1,#+0
        _BLF     ??setHour,??setHour??rA
//  211     mybook->hourState = getStateByHour(mybook->now.time.hour);
        LDR      R0,[R4, #+996]
        LDRB     R0,[R0, #+156]
        _BLF     ??getStateByHour,??getStateByHour??rA
        LDR      R1,[R4, #+996]
        STR      R0,[R1, #+144]
//  212   }
//  213 
//  214   finalDraw(mybook->getLocation(), mybook->getWeatherToDraw()->getState_(),
//  215             mybook->getWeatherToDraw()->getState(), mybook->getWeatherToDraw()->getAverageTemp());
??drawWeatherContents_6:
        LDR      R0,[R4, #+996]
        _BLF     ??getWeatherToDraw,??getWeatherToDraw??rA
        _BLF     ??getAverageTemp,??getAverageTemp??rA
        MOV      R5,R0
        LDR      R0,[R4, #+996]
        _BLF     ??getWeatherToDraw,??getWeatherToDraw??rA
        _BLF     ??getState,??getState??rA
        MOV      R6,R0
        LDR      R0,[R4, #+996]
        _BLF     ??getWeatherToDraw,??getWeatherToDraw??rA
        _BLF     ??getState_,??getState_??rA
        MOV      R7,R0
        LDR      R0,[R4, #+996]
        _BLF     ??getLocation,??getLocation??rA
        MOV      R3,R5
        MOV      R2,R6
        MOV      R1,R7
        BL       ??finalDraw
//  216   drawClock(mybook->now.time.hour, mybook->now.time.min);
        LDR      R0,[R4, #+996]
        LDRB     R1,[R0, #+157]
        LDRB     R0,[R0, #+156]
        BL       ??drawClock
//  217   if (isDateEqual(&mybook->now,&mybook->dateOfWeather) != 0) {
        LDR      R0,[R4, #+996]
        ADD      R1,R0,#+162
        ADD      R0,R0,#+152
        _BLF     ??isDateEqual,??isDateEqual??rA
        CMP      R0,#+0
        POPEQ    {R0,R1,R4-R7,PC}
//  218     mybook->setHour(-1);
        LDR      R0,[R4, #+996]
        MVN      R1,#+0
        _BLF     ??setHour,??setHour??rA
//  219     beginFile();
        BL       ??beginFile
//  220   }  
//  221 }
        POP      {R0,R1,R4-R7,PC}  ;; return
        CFI EndBlock cfiBlock24

        RSEG CODE:CODE:NOROOT(2)
        DATA
??DataTable13:
        DC32     BCFG_Tags_Time_Night

        RSEG CODE:CODE:NOROOT(2)
        DATA
??DataTable14:
        DC32     BCFG_Tags_Time_Day

        RSEG CODE:CODE:NOROOT(2)
        CFI Block cfiBlock25 Using cfiCommon1
        CFI NoFunction
        THUMB
??errorInFile??rT:
        BX       PC
        Nop      
        CFI EndBlock cfiBlock25
        REQUIRE ??errorInFile
//  222 

        RSEG CODE:CODE:NOROOT(2)
        CFI Block cfiBlock26 Using cfiCommon0
        CFI Function ??errorInFile
        ARM
//  223 void errorInFile(wchar_t* message) {
??errorInFile:
        PUSH     {R4,LR}
        CFI ?RET Frame(CFA, -4)
        CFI R4 Frame(CFA, -8)
        CFI CFA R13+8
        MOV      R4,R0
//  224   MessageBox(0x6FFFFFFF,TextID_Create(message,ENC_UCS2 , wstrlen(message)), NOIMAGE, 1, 0,0);
        SWI      +343
        MOV      R2,R0
        MOV      R1,#+0
        MOV      R0,R4
//  225   mybook->setError(true);
        LDR      R4,??DataTable18  ;; statesID
        SWI      +349
        MOV      R1,#+0
        PUSH     {R1}
        CFI CFA R13+12
        PUSH     {R1}
        CFI CFA R13+16
        MOV      R3,#+1
        MOV      R2,#+255
        ORR      R2,R2,#0xFF00
        MOV      R1,R0
        MVN      R0,#-1879048192
        SWI      +599
        LDR      R0,[R4, #+996]
        MOV      R1,#+1
        _BLF     ??setError,??setError??rA
//  226   message = NULL;
//  227   FreeBook(mybook->getBook());
        LDR      R0,[R4, #+996]
        _BLF     ??getBook,??getBook??rA
        SWI      +303
//  228 }
        POP      {R0,R1,R4,PC}    ;; return
        CFI EndBlock cfiBlock26

        RSEG CODE:CODE:NOROOT(2)
        CFI Block cfiBlock27 Using cfiCommon1
        CFI NoFunction
        THUMB
??beginFile??rT:
        BX       PC
        Nop      
        CFI EndBlock cfiBlock27
        REQUIRE ??beginFile
//  229 

        RSEG CODE:CODE:NOROOT(2)
        CFI Block cfiBlock28 Using cfiCommon0
        CFI Function ??beginFile
        ARM
//  230 void beginFile() {
??beginFile:
        PUSH     {R4-R7,LR}
        CFI ?RET Frame(CFA, -4)
        CFI R7 Frame(CFA, -8)
        CFI R6 Frame(CFA, -12)
        CFI R5 Frame(CFA, -16)
        CFI R4 Frame(CFA, -20)
        CFI CFA R13+20
//  231   dbtf("loading file");
//  232   wchar_t* fileContent = openFile(BCFG_XMLBGLogoFolder,L"weather.txt");
        LDR      R5,??DataTable21  ;; BCFG_XMLBGLogoFolder
        LDR      R7,??beginFile_1  ;; `?<Constant "loading file">`
        SUB      SP,SP,#+12
        CFI CFA R13+32
        MOV      R0,R7
        _BLF     ??dbtf,??dbtf??rA
        ADD      R1,R7,#+16
        MOV      R0,R5
        _BLF     ??openFile,??openFile??rA
        MOV      R4,R0
//  233   wchar_t* conditionXml = openFile(BCFG_XMLBGLogoFolder, L"condition.xml");
        ADD      R1,R7,#+40
        MOV      R0,R5
        _BLF     ??openFile,??openFile??rA
        MOV      R5,R0
//  234   if (fileContent != NULL && conditionXml != NULL) {
        CMP      R4,#+0
        CMPNE    R5,#+0
        BEQ      ??beginFile_2
//  235     int pos = 0;
//  236     mybook->freeMyVars();
        LDR      R6,??DataTable18  ;; statesID
        MOV      R1,#+0
        STR      R1,[SP, #+0]
        LDR      R0,[R6, #+996]
        _BLF     ??freeMyVars,??freeMyVars??rA
//  237     mybook->setLocation(getLocation(fileContent, pos));
        MOV      R1,SP
        MOV      R0,R4
        _BLF     ??getLocation_1,??getLocation??rA_1
        MOV      R1,R0
        LDR      R0,[R6, #+996]
        _BLF     ??setLocation,??setLocation??rA
//  238 
//  239     if (mybook->getLocation() == NULL) 
        LDR      R0,[R6, #+996]
        _BLF     ??getLocation,??getLocation??rA
        CMP      R0,#+0
        BNE      ??beginFile_3
//  240       errorInFile(L"Error in location! Update your file weather.txt and run the elf again!");
        ADD      R0,R7,#+68
??beginFile_4:
        BL       ??errorInFile
        B        ??beginFile_5
//  241     else {
//  242       mybook->setDayWeather(getDayWeather(fileContent, pos, conditionXml));
??beginFile_3:
        MOV      R2,R5
        MOV      R1,SP
        MOV      R0,R4
        _BLF     ??getDayWeather,??getDayWeather??rA
        MOV      R1,R0
        LDR      R0,[R6, #+996]
        _BLF     ??setDayWeather,??setDayWeather??rA
//  243 
//  244       if (mybook->getDayWeather() == NULL) errorInFile(L"Error in Day Weather! Update your file weather.txt and run the elf again!");
        LDR      R0,[R6, #+996]
        _BLF     ??getDayWeather_1,??getDayWeather??rA_1
        CMP      R0,#+0
        ADDEQ    R0,R7,#+212
        BEQ      ??beginFile_4
//  245       else {
//  246         mybook->setNightWeather(getWeather(fileContent,pos, conditionXml));
        MOV      R2,R5
        MOV      R1,SP
        MOV      R0,R4
        _BLF     ??getWeather,??getWeather??rA
        MOV      R1,R0
        LDR      R0,[R6, #+996]
        _BLF     ??setNightWeather,??setNightWeather??rA
//  247         if (mybook->getNightWeather() == NULL) errorInFile(L"Error in Night Weather! Update your file weather.txt and run the elf again!");
        LDR      R0,[R6, #+996]
        _BLF     ??getNightWeather,??getNightWeather??rA
        CMP      R0,#+0
        BNE      ??beginFile_6
        ADD      R0,R7,#+360
        B        ??beginFile_4
//  248         else { mybook->dateOfWeather = getDateTime(); mybook->now = mybook->dateOfWeather; makeDateMask(); 
??beginFile_6:
        ADD      R0,SP,#+4
        _BLF     ??getDateTime,??getDateTime??rA
        LDR      R0,[R6, #+996]
        ADD      R1,SP,#+4
        LDRH     R2,[R1, #0]
        STRH     R2,[R0, #+162]!
        LDRH     R2,[R1, #+2]
        STRH     R2,[R0, #+2]
        LDRH     R2,[R1, #+4]
        STRH     R2,[R0, #+4]
        LDRH     R2,[R1, #+6]
        STRH     R2,[R0, #+6]
        LDR      R0,[R6, #+996]
        ADD      R1,R0,#+152
        ADD      R0,R0,#+162
        LDRH     R2,[R0, #0]
        STRH     R2,[R1, #+0]
        LDRH     R2,[R0, #+2]
        STRH     R2,[R1, #+2]
        LDRH     R2,[R0, #+4]
        STRH     R2,[R1, #+4]
        LDRH     R2,[R0, #+6]
        STRH     R2,[R1, #+6]
        BL       ??makeDateMask
//  249           mybook->hourState = getStateByHour(mybook->now.time.hour); }
        LDR      R0,[R6, #+996]
        LDRB     R0,[R0, #+156]
        _BLF     ??getStateByHour,??getStateByHour??rA
        LDR      R1,[R6, #+996]
        STR      R0,[R1, #+144]
//  250       }
//  251     }
//  252     delete fileContent;
??beginFile_5:
        MOV      R0,R4
        _BLF     `??operator delete`,`??operator delete??rA`
//  253     delete conditionXml;
        MOV      R0,R5
        _BLF     `??operator delete`,`??operator delete??rA`
        POP      {R0-R2,R4-R7,PC}
//  254   } 
//  255   else
//  256     errorInFile(L"Error while trying to open weather.txt and condition.xml!");
??beginFile_2:
        ADD      R0,R7,#+512
        BL       ??errorInFile
//  257 }
        POP      {R0-R2,R4-R7,PC}  ;; return
        DATA
??beginFile_1:
        DC32     `?<Constant "loading file">`
        CFI EndBlock cfiBlock28

        RSEG CODE:CODE:NOROOT(2)
        CFI Block cfiBlock29 Using cfiCommon1
        CFI NoFunction
        THUMB
??SB_ELF_Killed??rT:
        BX       PC
        Nop      
        CFI EndBlock cfiBlock29
        REQUIRE ??SB_ELF_Killed
//  258 

        RSEG CODE:CODE:NOROOT(2)
        CFI Block cfiBlock30 Using cfiCommon0
        CFI Function ??SB_ELF_Killed
        ARM
//  259 int SB_ELF_Killed(void *mess ,BOOK* book) {
??SB_ELF_Killed:
        PUSH     {R4-R7,LR}
        CFI ?RET Frame(CFA, -4)
        CFI R7 Frame(CFA, -8)
        CFI R6 Frame(CFA, -12)
        CFI R5 Frame(CFA, -16)
        CFI R4 Frame(CFA, -20)
        CFI CFA R13+20
//  260   REDRAW_RELEASE_MESSAGE* sbm=(REDRAW_RELEASE_MESSAGE*)mess;
//  261   REDRAW_RELEASE_MESSAGE* res = 0;
//  262   if (sbm->SB_NewOnRedraw==SIonRedraw) {
        LDR      R5,??DataTable18  ;; statesID
        MOV      R4,R0
        LDR      R0,[R4, #+4]
        LDR      R1,[R5, #+332]
        CMP      R0,R1
        BNE      ??SB_ELF_Killed_1
//  263     res=new REDRAW_RELEASE_MESSAGE;
        MOV      R0,#+24
        _BLF     `??operator new`,`??operator new??rA`
        MOV      R6,R0
//  264     memcpy(res,sbm,sizeof(REDRAW_RELEASE_MESSAGE));
        MOV      R2,#+24
        MOV      R1,R4
        SWI      +275
//  265     if (sbm->SB_OldOnRedraw!=EMPTY_REDRAW_METHOD) SIonRedraw=sbm->SB_OldOnRedraw;
        LDR      R0,[R4, #+0]
//  266     DISP_DESC_SetOnRedraw(DispObject_GetDESC(StatusIndication),Draw);
        LDR      R4,??DataTable19  ;; ??Draw
        MVN      R7,#+0
        CMP      R0,R7
        STRNE    R0,[R5, #+332]
        LDR      R0,[R5, #+336]
        SWI      +543
        MOV      R1,R4
        SWI      +552
//  267     res->SB_OldOnRedraw=EMPTY_REDRAW_METHOD;
        STR      R7,[R6, #+0]
//  268     res->SB_NewOnRedraw=Draw;
        STR      R4,[R6, #+4]
//  269   }
//  270   if (res) {
        CMP      R6,#+0
        BEQ      ??SB_ELF_Killed_1
//  271     UI_Event_wData(SBY_REDRAW_RELEASE_EVENT ,res,(void (*)(void*))mfree_adr());
        SWI      +33028
        MOV      R2,R0
        MOV      R1,R6
        MOV      R0,#+227
        ORR      R0,R0,#0x300
        SWI      +425
//  272     return BLOCK_EVENT_GLOBALLY;
        MOV      R0,#+154
        ORR      R0,R0,#0x200
        POP      {R4-R7,PC}
//  273   }
//  274   return 0;
??SB_ELF_Killed_1:
        MOV      R0,#+0
        POP      {R4-R7,PC}       ;; return
        CFI EndBlock cfiBlock30
//  275 }

        RSEG CODE:CODE:NOROOT(2)
        DATA
??DataTable18:
        DC32     statesID

        RSEG CODE:CODE:NOROOT(2)
        DATA
??DataTable19:
        DC32     ??Draw

        RSEG CODE:CODE:NOROOT(2)
        CFI Block cfiBlock31 Using cfiCommon1
        CFI NoFunction
        THUMB
??InitImages??rT:
        BX       PC
        Nop      
        CFI EndBlock cfiBlock31
        REQUIRE ??InitImages
//  276 

        RSEG CODE:CODE:NOROOT(2)
        CFI Block cfiBlock32 Using cfiCommon0
        CFI Function ??InitImages
        ARM
//  277 void InitImages(void) {
??InitImages:
        PUSH     {R4-R6,LR}
        CFI ?RET Frame(CFA, -4)
        CFI R6 Frame(CFA, -8)
        CFI R5 Frame(CFA, -12)
        CFI R4 Frame(CFA, -16)
        CFI CFA R13+16
//  278   ImageID_Get(BCFG_XMLBGLogoFolder,L"background.png",&statesID[0x0]);
        LDR      R4,??DataTable22  ;; statesID
        LDR      R5,??DataTable21  ;; BCFG_XMLBGLogoFolder
        LDR      R6,??InitImages_1  ;; `?<Constant L"\\x62\\x61\\x63\\x6b\\x67\\x72\\x6f\\x75\\`
        MOV      R2,R4
        MOV      R1,R6
        MOV      R0,R5
        SWI      +716
//  279   ImageID_Get(BCFG_XMLBGLogoFolder,L"logo.png",&statesID[0x1]);
        ADD      R2,R4,#+2
        ADD      R1,R6,#+32
        MOV      R0,R5
        SWI      +716
//  280   for (int i = 0 ; i < 44 ; i++) ImageID_Get(BCFG_StatesFolder,stateImages[i],&statesID[i+0x2]);
        MOV      R5,#+0
??InitImages_2:
        ADD      R0,R4,R5, LSL #+1
        ADD      R2,R0,#+4
        ADD      R0,R4,R5, LSL #+2
        LDR      R1,[R0, #+340]
        LDR      R0,??InitImages_1+0x4  ;; BCFG_StatesFolder
        ADD      R5,R5,#+1
        SWI      +716
        CMP      R5,#+44
        BLT      ??InitImages_2
//  281   for (int i = 0 ; i < 60 ; i++)ImageID_Get(BCFG_Path_Clock,clockImages[i],&clockID[i]);
        MOV      R5,#+0
??InitImages_3:
        ADD      R0,R4,R5, LSL #+1
        ADD      R2,R0,#+140
        ADD      R0,R4,R5, LSL #+2
        LDR      R1,[R0, #+612]
        LDR      R0,??InitImages_1+0x8  ;; BCFG_Path_Clock
        ADD      R5,R5,#+1
        SWI      +716
        CMP      R5,#+60
        BLT      ??InitImages_3
//  282 }
        POP      {R4-R6,PC}       ;; return
        DATA
??InitImages_1:
        DC32     `?<Constant L"\\x62\\x61\\x63\\x6b\\x67\\x72\\x6f\\x75\\`
        DC32     BCFG_StatesFolder
        DC32     BCFG_Path_Clock
        CFI EndBlock cfiBlock32

        RSEG CODE:CODE:NOROOT(2)
        DATA
??DataTable21:
        DC32     BCFG_XMLBGLogoFolder

        RSEG CODE:CODE:NOROOT(2)
        CFI Block cfiBlock33 Using cfiCommon1
        CFI NoFunction
        THUMB
??DestroyImages??rT:
        BX       PC
        Nop      
        CFI EndBlock cfiBlock33
        REQUIRE ??DestroyImages
//  283 

        RSEG CODE:CODE:NOROOT(2)
        CFI Block cfiBlock34 Using cfiCommon0
        CFI Function ??DestroyImages
        ARM
//  284 void DestroyImages(void) {
??DestroyImages:
        PUSH     {R4,R5,LR}
        CFI ?RET Frame(CFA, -4)
        CFI R5 Frame(CFA, -8)
        CFI R4 Frame(CFA, -12)
        CFI CFA R13+12
//  285   for (int i = 0 ; i < 46 ; i++) ImageID_Free(statesID[i]);
        LDR      R5,??DataTable22  ;; statesID
        MOV      R4,#+0
??DestroyImages_1:
        ADD      R0,R5,R4, LSL #+1
        LDRH     R0,[R0, #+0]
        ADD      R4,R4,#+1
        SWI      +717
        CMP      R4,#+46
        BLT      ??DestroyImages_1
//  286   for (int i = 0 ; i < 60 ; i++) ImageID_Free(clockID[i]);
        MOV      R4,#+0
??DestroyImages_2:
        ADD      R0,R5,R4, LSL #+1
        LDRH     R0,[R0, #+140]
        ADD      R4,R4,#+1
        SWI      +717
        CMP      R4,#+60
        BLT      ??DestroyImages_2
//  287 }
        POP      {R4,R5,PC}       ;; return
        CFI EndBlock cfiBlock34

        RSEG CODE:CODE:NOROOT(2)
        DATA
??DataTable22:
        DC32     statesID

        RSEG CODE:CODE:NOROOT(2)
        CFI Block cfiBlock35 Using cfiCommon1
        CFI NoFunction
        THUMB
??drawWeatherInfo??rT:
        BX       PC
        Nop      
        CFI EndBlock cfiBlock35
        REQUIRE ??drawWeatherInfo
//  288 

        RSEG CODE:CODE:NOROOT(2)
        CFI Block cfiBlock36 Using cfiCommon0
        CFI Function ??drawWeatherInfo
        ARM
//  289 void drawWeatherInfo(MyBook* book) {
??drawWeatherInfo:
        PUSH     {R4,LR}
        CFI ?RET Frame(CFA, -4)
        CFI R4 Frame(CFA, -8)
        CFI CFA R13+8
//  290   mybook = book;
        LDR      R4,??DataTable26  ;; statesID
        SUB      SP,SP,#+4
        CFI CFA R13+12
        STR      R0,[R4, #+996]
//  291   beginFile();
        BL       ??beginFile
//  292 
//  293   if (!mybook->getError()) {
        LDR      R0,[R4, #+996]
        _BLF     ??getError,??getError??rA
        CMP      R0,#+0
        POPNE    {R0,R4,PC}
//  294     InitImages();
        BL       ??InitImages
//  295     StatusIndication = GUIObject_GetDispObject( (GUI*)List_Get(Find_StandbyBook()->xguilist->guilist,0) );
        SWI      +305
        LDR      R0,[R0, #+20]
        MOV      R1,#+0
        LDR      R0,[R0, #+4]
        SWI      +429
        SWI      +360
        STR      R0,[R4, #+336]
//  296     SIonRedraw=DispObject_GetOnRedraw(StatusIndication);
        SWI      +553
        STR      R0,[R4, #+332]
//  297     DISP_DESC_SetOnRedraw(DispObject_GetDESC(StatusIndication),Draw);
        LDR      R0,[R4, #+336]
        SWI      +543
        LDR      R1,??DataTable24  ;; ??Draw
        SWI      +552
//  298     mybook->ftimer=Timer_Set(1000,onfTimer,0);
        MOV      R1,#+0
        MOV      R0,SP
        _BLF     ??LPARAM,??LPARAM??rA
        LDR      R2,[SP, #+0]
        LDR      R1,??DataTable25  ;; ??onfTimer
        MOV      R0,#+1000
        SWI      +297
        LDR      R1,[R4, #+996]
        STRH     R0,[R1, #+160]
//  299   }
//  300 }
        POP      {R0,R4,PC}       ;; return
        CFI EndBlock cfiBlock36

        RSEG CODE:CODE:NOROOT(2)
        DATA
??DataTable24:
        DC32     ??Draw

        RSEG CODE:CODE:NOROOT(2)
        DATA
??DataTable25:
        DC32     ??onfTimer

        RSEG CODE:CODE:NOROOT(2)
        CFI Block cfiBlock37 Using cfiCommon1
        CFI NoFunction
        THUMB
??onCloseBEBook??rT:
        BX       PC
        Nop      
        CFI EndBlock cfiBlock37
        REQUIRE ??onCloseBEBook
//  301 

        RSEG CODE:CODE:NOROOT(2)
        CFI Block cfiBlock38 Using cfiCommon0
        CFI Function ??onCloseBEBook
        ARM
//  302 void onCloseBEBook(BOOK* book) {
??onCloseBEBook:
        PUSH     {R4,LR}
        CFI ?RET Frame(CFA, -4)
        CFI R4 Frame(CFA, -8)
        CFI CFA R13+8
//  303   if (book)  {
        CMP      R0,#+0
        POPEQ    {R4,PC}
//  304     if (StatusIndication) {
        LDR      R4,??DataTable26  ;; statesID
        LDR      R0,[R4, #+336]
        CMP      R0,#+0
        BEQ      ??onCloseBEBook_1
//  305       Timer_Kill(&mybook->ftimer);
        LDR      R0,[R4, #+996]
        ADD      R0,R0,#+160
        SWI      +298
//  306       DestroyImages();
        BL       ??DestroyImages
//  307       DISP_DESC_SetOnRedraw(DispObject_GetDESC(StatusIndication),SIonRedraw);
        LDR      R0,[R4, #+336]
        SWI      +543
        LDR      R1,[R4, #+332]
        SWI      +552
//  308       DispObject_InvalidateRect(StatusIndication,0);
        LDR      R0,[R4, #+336]
        MOV      R1,#+0
        SWI      +495
//  309       Send_REDRAW_RELEASE();
        BL       ??Send_REDRAW_RELEASE
//  310     }
//  311     mybook->freeMyVars();
??onCloseBEBook_1:
        LDR      R0,[R4, #+996]
        _BLF     ??freeMyVars,??freeMyVars??rA
//  312     delete mybook;
        LDR      R0,[R4, #+996]
        _BLF     `??operator delete`,`??operator delete??rA`
//  313     SUBPROC(elf_exit);
        LDR      R0,??onCloseBEBook_2  ;; ??elf_exit
        SWI      +264
//  314   }
//  315 }
        POP      {R4,PC}          ;; return
        DATA
??onCloseBEBook_2:
        DC32     ??elf_exit
        CFI EndBlock cfiBlock38

        RSEG CODE:CODE:NOROOT(2)
        DATA
??DataTable26:
        DC32     statesID

        RSEG CODE:CODE:NOROOT(2)
        CFI Block cfiBlock39 Using cfiCommon0
        CFI NoFunction
        ARM
`??operator new??rA`:
        LDR      R12,??Subroutine19_0  ;; `??operator new`
        BX       R12
        DATA
??Subroutine19_0:
        DC32     `??operator new`
        CFI EndBlock cfiBlock39

        RSEG CODE:CODE:NOROOT(2)
        CFI Block cfiBlock40 Using cfiCommon0
        CFI NoFunction
        ARM
??InitConfig??rA:
        LDR      R12,??Subroutine20_0  ;; ??InitConfig
        BX       R12
        DATA
??Subroutine20_0:
        DC32     ??InitConfig
        CFI EndBlock cfiBlock40

        RSEG CODE:CODE:NOROOT(2)
        CFI Block cfiBlock41 Using cfiCommon0
        CFI NoFunction
        ARM
??setHour??rA:
        LDR      R12,??Subroutine21_0  ;; ??setHour
        BX       R12
        DATA
??Subroutine21_0:
        DC32     ??setHour
        CFI EndBlock cfiBlock41

        RSEG CODE:CODE:NOROOT(2)
        CFI Block cfiBlock42 Using cfiCommon0
        CFI NoFunction
        ARM
??loadDateNames??rA:
        LDR      R12,??Subroutine22_0  ;; ??loadDateNames
        BX       R12
        DATA
??Subroutine22_0:
        DC32     ??loadDateNames
        CFI EndBlock cfiBlock42

        RSEG CODE:CODE:NOROOT(2)
        CFI Block cfiBlock43 Using cfiCommon0
        CFI NoFunction
        ARM
??searchLine??rA:
        LDR      R12,??Subroutine23_0  ;; ??searchLine
        BX       R12
        DATA
??Subroutine23_0:
        DC32     ??searchLine
        CFI EndBlock cfiBlock43

        RSEG CODE:CODE:NOROOT(2)
        CFI Block cfiBlock44 Using cfiCommon0
        CFI NoFunction
        ARM
??wGetIndexOfLine??rA:
        LDR      R12,??Subroutine24_0  ;; ??wGetIndexOfLine
        BX       R12
        DATA
??Subroutine24_0:
        DC32     ??wGetIndexOfLine
        CFI EndBlock cfiBlock44

        RSEG CODE:CODE:NOROOT(2)
        CFI Block cfiBlock45 Using cfiCommon0
        CFI NoFunction
        ARM
??getWSubStr??rA:
        LDR      R12,??Subroutine25_0  ;; ??getWSubStr
        BX       R12
        DATA
??Subroutine25_0:
        DC32     ??getWSubStr
        CFI EndBlock cfiBlock45

        RSEG CODE:CODE:NOROOT(2)
        CFI Block cfiBlock46 Using cfiCommon0
        CFI NoFunction
        ARM
`??operator delete??rA`:
        LDR      R12,??Subroutine26_0  ;; `??operator delete`
        BX       R12
        DATA
??Subroutine26_0:
        DC32     `??operator delete`
        CFI EndBlock cfiBlock46

        RSEG CODE:CODE:NOROOT(2)
        CFI Block cfiBlock47 Using cfiCommon0
        CFI NoFunction
        ARM
??getGC??rA:
        LDR      R12,??Subroutine27_0  ;; ??getGC
        BX       R12
        DATA
??Subroutine27_0:
        DC32     ??getGC
        CFI EndBlock cfiBlock47

        RSEG CODE:CODE:NOROOT(2)
        CFI Block cfiBlock48 Using cfiCommon0
        CFI NoFunction
        ARM
??unloadMetadataDll??rA:
        LDR      R12,??Subroutine28_0  ;; ??unloadMetadataDll
        BX       R12
        DATA
??Subroutine28_0:
        DC32     ??unloadMetadataDll
        CFI EndBlock cfiBlock48

        RSEG CODE:CODE:NOROOT(2)
        CFI Block cfiBlock49 Using cfiCommon0
        CFI NoFunction
        ARM
??loadMetadataDll??rA:
        LDR      R12,??Subroutine29_0  ;; ??loadMetadataDll
        BX       R12
        DATA
??Subroutine29_0:
        DC32     ??loadMetadataDll
        CFI EndBlock cfiBlock49

        RSEG CODE:CODE:NOROOT(2)
        CFI Block cfiBlock50 Using cfiCommon0
        CFI NoFunction
        ARM
??drawId3??rA:
        LDR      R12,??Subroutine30_0  ;; ??drawId3
        BX       R12
        DATA
??Subroutine30_0:
        DC32     ??drawId3
        CFI EndBlock cfiBlock50

        RSEG CODE:CODE:NOROOT(2)
        CFI Block cfiBlock51 Using cfiCommon0
        CFI NoFunction
        ARM
??makeNullWchar??rA:
        LDR      R12,??Subroutine31_0  ;; ??makeNullWchar
        BX       R12
        DATA
??Subroutine31_0:
        DC32     ??makeNullWchar
        CFI EndBlock cfiBlock51

        RSEG CODE:CODE:NOROOT(2)
        CFI Block cfiBlock52 Using cfiCommon0
        CFI NoFunction
        ARM
??makeAvgState??rA:
        LDR      R12,??Subroutine32_0  ;; ??makeAvgState
        BX       R12
        DATA
??Subroutine32_0:
        DC32     ??makeAvgState
        CFI EndBlock cfiBlock52

        RSEG CODE:CODE:NOROOT(2)
        CFI Block cfiBlock53 Using cfiCommon0
        CFI NoFunction
        ARM
??LPARAM??rA:
        LDR      R12,??Subroutine33_0  ;; ??LPARAM
        BX       R12
        DATA
??Subroutine33_0:
        DC32     ??LPARAM
        CFI EndBlock cfiBlock53

        RSEG CODE:CODE:NOROOT(2)
        CFI Block cfiBlock54 Using cfiCommon0
        CFI NoFunction
        ARM
??getDateTime??rA:
        LDR      R12,??Subroutine34_0  ;; ??getDateTime
        BX       R12
        DATA
??Subroutine34_0:
        DC32     ??getDateTime
        CFI EndBlock cfiBlock54

        RSEG CODE:CODE:NOROOT(2)
        CFI Block cfiBlock55 Using cfiCommon0
        CFI NoFunction
        ARM
??getHourSeted??rA:
        LDR      R12,??Subroutine35_0  ;; ??getHourSeted
        BX       R12
        DATA
??Subroutine35_0:
        DC32     ??getHourSeted
        CFI EndBlock cfiBlock55

        RSEG CODE:CODE:NOROOT(2)
        CFI Block cfiBlock56 Using cfiCommon0
        CFI NoFunction
        ARM
??getWeatherToDraw??rA:
        LDR      R12,??Subroutine36_0  ;; ??getWeatherToDraw
        BX       R12
        DATA
??Subroutine36_0:
        DC32     ??getWeatherToDraw
        CFI EndBlock cfiBlock56

        RSEG CODE:CODE:NOROOT(2)
        CFI Block cfiBlock57 Using cfiCommon0
        CFI NoFunction
        ARM
??freeWDraw??rA:
        LDR      R12,??Subroutine37_0  ;; ??freeWDraw
        BX       R12
        DATA
??Subroutine37_0:
        DC32     ??freeWDraw
        CFI EndBlock cfiBlock57

        RSEG CODE:CODE:NOROOT(2)
        CFI Block cfiBlock58 Using cfiCommon0
        CFI NoFunction
        ARM
??setWDraw??rA:
        LDR      R12,??Subroutine38_0  ;; ??setWDraw
        BX       R12
        DATA
??Subroutine38_0:
        DC32     ??setWDraw
        CFI EndBlock cfiBlock58

        RSEG CODE:CODE:NOROOT(2)
        CFI Block cfiBlock59 Using cfiCommon0
        CFI NoFunction
        ARM
??getStateByHour??rA:
        LDR      R12,??Subroutine39_0  ;; ??getStateByHour
        BX       R12
        DATA
??Subroutine39_0:
        DC32     ??getStateByHour
        CFI EndBlock cfiBlock59

        RSEG CODE:CODE:NOROOT(2)
        CFI Block cfiBlock60 Using cfiCommon0
        CFI NoFunction
        ARM
??getAverageTemp??rA:
        LDR      R12,??Subroutine40_0  ;; ??getAverageTemp
        BX       R12
        DATA
??Subroutine40_0:
        DC32     ??getAverageTemp
        CFI EndBlock cfiBlock60

        RSEG CODE:CODE:NOROOT(2)
        CFI Block cfiBlock61 Using cfiCommon0
        CFI NoFunction
        ARM
??getState??rA:
        LDR      R12,??Subroutine41_0  ;; ??getState
        BX       R12
        DATA
??Subroutine41_0:
        DC32     ??getState
        CFI EndBlock cfiBlock61

        RSEG CODE:CODE:NOROOT(2)
        CFI Block cfiBlock62 Using cfiCommon0
        CFI NoFunction
        ARM
??getState_??rA:
        LDR      R12,??Subroutine42_0  ;; ??getState_
        BX       R12
        DATA
??Subroutine42_0:
        DC32     ??getState_
        CFI EndBlock cfiBlock62

        RSEG CODE:CODE:NOROOT(2)
        CFI Block cfiBlock63 Using cfiCommon0
        CFI NoFunction
        ARM
??getLocation??rA:
        LDR      R12,??Subroutine43_0  ;; ??getLocation
        BX       R12
        DATA
??Subroutine43_0:
        DC32     ??getLocation
        CFI EndBlock cfiBlock63

        RSEG CODE:CODE:NOROOT(2)
        CFI Block cfiBlock64 Using cfiCommon0
        CFI NoFunction
        ARM
??isDateEqual??rA:
        LDR      R12,??Subroutine44_0  ;; ??isDateEqual
        BX       R12
        DATA
??Subroutine44_0:
        DC32     ??isDateEqual
        CFI EndBlock cfiBlock64

        RSEG CODE:CODE:NOROOT(2)
        CFI Block cfiBlock65 Using cfiCommon0
        CFI NoFunction
        ARM
??setError??rA:
        LDR      R12,??Subroutine45_0  ;; ??setError
        BX       R12
        DATA
??Subroutine45_0:
        DC32     ??setError
        CFI EndBlock cfiBlock65

        RSEG CODE:CODE:NOROOT(2)
        CFI Block cfiBlock66 Using cfiCommon0
        CFI NoFunction
        ARM
??getBook??rA:
        LDR      R12,??Subroutine46_0  ;; ??getBook
        BX       R12
        DATA
??Subroutine46_0:
        DC32     ??getBook
        CFI EndBlock cfiBlock66

        RSEG CODE:CODE:NOROOT(2)
        CFI Block cfiBlock67 Using cfiCommon0
        CFI NoFunction
        ARM
??dbtf??rA:
        LDR      R12,??Subroutine47_0  ;; ??dbtf
        BX       R12
        DATA
??Subroutine47_0:
        DC32     ??dbtf
        CFI EndBlock cfiBlock67

        RSEG CODE:CODE:NOROOT(2)
        CFI Block cfiBlock68 Using cfiCommon0
        CFI NoFunction
        ARM
??openFile??rA:
        LDR      R12,??Subroutine48_0  ;; ??openFile
        BX       R12
        DATA
??Subroutine48_0:
        DC32     ??openFile
        CFI EndBlock cfiBlock68

        RSEG CODE:CODE:NOROOT(2)
        CFI Block cfiBlock69 Using cfiCommon0
        CFI NoFunction
        ARM
??freeMyVars??rA:
        LDR      R12,??Subroutine49_0  ;; ??freeMyVars
        BX       R12
        DATA
??Subroutine49_0:
        DC32     ??freeMyVars
        CFI EndBlock cfiBlock69

        RSEG CODE:CODE:NOROOT(2)
        CFI Block cfiBlock70 Using cfiCommon0
        CFI NoFunction
        ARM
??getLocation??rA_1:
        LDR      R12,??Subroutine50_0  ;; ??getLocation_1
        BX       R12
        DATA
??Subroutine50_0:
        DC32     ??getLocation_1
        CFI EndBlock cfiBlock70

        RSEG CODE:CODE:NOROOT(2)
        CFI Block cfiBlock71 Using cfiCommon0
        CFI NoFunction
        ARM
??setLocation??rA:
        LDR      R12,??Subroutine51_0  ;; ??setLocation
        BX       R12
        DATA
??Subroutine51_0:
        DC32     ??setLocation
        CFI EndBlock cfiBlock71

        RSEG CODE:CODE:NOROOT(2)
        CFI Block cfiBlock72 Using cfiCommon0
        CFI NoFunction
        ARM
??getDayWeather??rA:
        LDR      R12,??Subroutine52_0  ;; ??getDayWeather
        BX       R12
        DATA
??Subroutine52_0:
        DC32     ??getDayWeather
        CFI EndBlock cfiBlock72

        RSEG CODE:CODE:NOROOT(2)
        CFI Block cfiBlock73 Using cfiCommon0
        CFI NoFunction
        ARM
??setDayWeather??rA:
        LDR      R12,??Subroutine53_0  ;; ??setDayWeather
        BX       R12
        DATA
??Subroutine53_0:
        DC32     ??setDayWeather
        CFI EndBlock cfiBlock73

        RSEG CODE:CODE:NOROOT(2)
        CFI Block cfiBlock74 Using cfiCommon0
        CFI NoFunction
        ARM
??getDayWeather??rA_1:
        LDR      R12,??Subroutine54_0  ;; ??getDayWeather_1
        BX       R12
        DATA
??Subroutine54_0:
        DC32     ??getDayWeather_1
        CFI EndBlock cfiBlock74

        RSEG CODE:CODE:NOROOT(2)
        CFI Block cfiBlock75 Using cfiCommon0
        CFI NoFunction
        ARM
??getWeather??rA:
        LDR      R12,??Subroutine55_0  ;; ??getWeather
        BX       R12
        DATA
??Subroutine55_0:
        DC32     ??getWeather
        CFI EndBlock cfiBlock75

        RSEG CODE:CODE:NOROOT(2)
        CFI Block cfiBlock76 Using cfiCommon0
        CFI NoFunction
        ARM
??setNightWeather??rA:
        LDR      R12,??Subroutine56_0  ;; ??setNightWeather
        BX       R12
        DATA
??Subroutine56_0:
        DC32     ??setNightWeather
        CFI EndBlock cfiBlock76

        RSEG CODE:CODE:NOROOT(2)
        CFI Block cfiBlock77 Using cfiCommon0
        CFI NoFunction
        ARM
??getNightWeather??rA:
        LDR      R12,??Subroutine57_0  ;; ??getNightWeather
        BX       R12
        DATA
??Subroutine57_0:
        DC32     ??getNightWeather
        CFI EndBlock cfiBlock77

        RSEG CODE:CODE:NOROOT(2)
        CFI Block cfiBlock78 Using cfiCommon0
        CFI NoFunction
        ARM
??getError??rA:
        LDR      R12,??Subroutine58_0  ;; ??getError
        BX       R12
        DATA
??Subroutine58_0:
        DC32     ??getError
        CFI EndBlock cfiBlock78

        RSEG DATA_ID:CONST:SORT:NOROOT(2)
`?<Initializer for IID_IFontManager>`:
        DATA
        DC8 149, 208, 95, 202, 15, 48, 79, 146, 148, 59, 19, 137, 33, 47, 9
        DC8 215

        RSEG DATA_ID:CONST:SORT:NOROOT(2)
`?<Initializer for CID_CFontManager>`:
        DATA
        DC8 130, 172, 151, 155, 88, 68, 65, 57, 160, 211, 230, 207, 114, 181
        DC8 128, 105

        RSEG DATA_ID:CONST:SORT:NOROOT(2)
`?<Initializer for IID_ITextRenderingManager>`:
        DATA
        DC8 206, 145, 123, 98, 227, 58, 77, 199, 133, 36, 121, 30, 111, 1, 3, 9

        RSEG DATA_ID:CONST:SORT:NOROOT(2)
`?<Initializer for CID_CTextRenderingManager>`:
        DATA
        DC8 207, 220, 205, 157, 174, 109, 64, 174, 179, 151, 56, 176, 93, 45
        DC8 53, 157

        RSEG DATA_ID:CONST:SORT:NOROOT(2)
`?<Initializer for IID_IImageManager>`:
        DATA
        DC8 99, 239, 165, 49, 255, 209, 78, 37, 166, 36, 96, 10, 150, 129, 63
        DC8 197

        RSEG DATA_ID:CONST:SORT:NOROOT(2)
`?<Initializer for CID_CImageManager>`:
        DATA
        DC8 134, 45, 249, 149, 28, 59, 75, 36, 183, 77, 143, 152, 112, 30, 93
        DC8 20

        RSEG DATA_ID:CONST:SORT:NOROOT(2)
`?<Initializer for IID_IMetaData>`:
        DATA
        DC8 177, 235, 79, 151, 176, 221, 66, 9, 182, 150, 206, 17, 45, 94, 216
        DC8 232

        RSEG DATA_ID:CONST:SORT:NOROOT(2)
`?<Initializer for CID_CMetaData>`:
        DATA
        DC8 11, 205, 149, 15, 159, 182, 78, 122, 167, 205, 202, 29, 135, 186
        DC8 154, 39

        RSEG DATA_ID:CONST:SORT:NOROOT(2)
`?<Initializer for IID_IIndicationDeviceManager`:
        DATA
        DC8 13, 68, 191, 134, 134, 234, 76, 138, 174, 123, 186, 38, 64, 200, 99
        DC8 16

        RSEG DATA_ID:CONST:SORT:NOROOT(2)
`?<Initializer for CID_CIndicationDeviceManager`:
        DATA
        DC8 63, 72, 254, 39, 100, 248, 73, 7, 160, 230, 234, 43, 192, 224, 204
        DC8 200

        RSEG DATA_ID:CONST:SORT:NOROOT(2)
`?<Initializer for statesID>`:
        DATA
        DC16 65535, 65535, 65535, 65535, 65535, 65535, 65535, 65535, 65535
        DC16 65535, 65535, 65535, 65535, 65535, 65535, 65535, 65535, 65535
        DC16 65535, 65535, 65535, 65535, 65535, 65535, 65535, 65535, 65535
        DC16 65535, 65535, 65535, 65535, 65535, 65535, 65535, 65535, 65535
        DC16 65535, 65535, 65535, 65535, 65535, 65535, 65535, 65535, 65535
        DC16 65535
        DC8 0, 0, 0, 0, 0, 0, 0, 0, 0, 0, 0, 0, 0, 0, 0, 0
        DC8 0, 0, 0, 0, 0, 0, 0, 0, 0, 0, 0, 0, 0, 0, 0, 0
        DC8 0, 0, 0, 0, 0, 0, 0, 0, 0, 0, 0, 0, 0, 0, 0, 0
`?<Initializer for clockID>`:
        DC16 65535, 65535, 65535, 65535, 65535, 65535, 65535, 65535, 65535
        DC16 65535, 65535, 65535, 65535, 65535, 65535, 65535, 65535, 65535
        DC16 65535, 65535, 65535, 65535, 65535, 65535, 65535, 65535, 65535
        DC16 65535, 65535, 65535, 65535, 65535, 65535, 65535, 65535, 65535
        DC16 65535, 65535, 65535, 65535, 65535, 65535, 65535, 65535, 65535
        DC16 65535, 65535, 65535, 65535, 65535, 65535, 65535, 65535, 65535
        DC16 65535, 65535, 65535, 65535, 65535, 65535
        DC8 0, 0, 0, 0, 0, 0, 0, 0, 0, 0, 0, 0, 0, 0, 0, 0
        DC8 0, 0, 0, 0, 0, 0, 0, 0, 0, 0, 0, 0, 0, 0, 0, 0
        DC8 0, 0, 0, 0, 0, 0, 0, 0, 0, 0, 0, 0, 0, 0, 0, 0
        DC8 0, 0, 0, 0, 0, 0, 0, 0, 0, 0, 0, 0, 0, 0, 0, 0
        DC8 0, 0, 0, 0, 0, 0, 0, 0
`?<Initializer for SIonRedraw>`:
        DC8 0, 0, 0, 0
`?<Initializer for StatusIndication>`:
        DC8 0, 0, 0, 0
`?<Initializer for stateImages>`:
        DC32 `?<Constant L"\\x31\\x2e\\x70\\x6e\\x67">`
        DC32 `?<Constant L"\\x32\\x2e\\x70\\x6e\\x67">`
        DC32 `?<Constant L"\\x33\\x2e\\x70\\x6e\\x67">`
        DC32 `?<Constant L"\\x34\\x2e\\x70\\x6e\\x67">`
        DC32 `?<Constant L"\\x35\\x2e\\x70\\x6e\\x67">`
        DC32 `?<Constant L"\\x36\\x2e\\x70\\x6e\\x67">`
        DC32 `?<Constant L"\\x37\\x2e\\x70\\x6e\\x67">`
        DC32 `?<Constant L"\\x38\\x2e\\x70\\x6e\\x67">`
        DC32 `?<Constant L"\\x31\\x2e\\x70\\x6e\\x67">`
        DC32 `?<Constant L"\\x31\\x2e\\x70\\x6e\\x67">`
        DC32 `?<Constant L"\\x39\\x2e\\x70\\x6e\\x67">`
        DC32 `?<Constant L"\\x31\\x30\\x2e\\x70\\x6e\\x67">`
        DC32 `?<Constant L"\\x31\\x31\\x2e\\x70\\x6e\\x67">`
        DC32 `?<Constant L"\\x31\\x32\\x2e\\x70\\x6e\\x67">`
        DC32 `?<Constant L"\\x31\\x33\\x2e\\x70\\x6e\\x67">`
        DC32 `?<Constant L"\\x31\\x34\\x2e\\x70\\x6e\\x67">`
        DC32 `?<Constant L"\\x31\\x35\\x2e\\x70\\x6e\\x67">`
        DC32 `?<Constant L"\\x31\\x36\\x2e\\x70\\x6e\\x67">`
        DC32 `?<Constant L"\\x31\\x37\\x2e\\x70\\x6e\\x67">`
        DC32 `?<Constant L"\\x31\\x38\\x2e\\x70\\x6e\\x67">`
        DC32 `?<Constant L"\\x31\\x39\\x2e\\x70\\x6e\\x67">`
        DC32 `?<Constant L"\\x32\\x30\\x2e\\x70\\x6e\\x67">`
        DC32 `?<Constant L"\\x32\\x31\\x2e\\x70\\x6e\\x67">`
        DC32 `?<Constant L"\\x32\\x32\\x2e\\x70\\x6e\\x67">`
        DC32 `?<Constant L"\\x32\\x33\\x2e\\x70\\x6e\\x67">`
        DC32 `?<Constant L"\\x32\\x34\\x2e\\x70\\x6e\\x67">`
        DC32 `?<Constant L"\\x31\\x2e\\x70\\x6e\\x67">`
        DC32 `?<Constant L"\\x31\\x2e\\x70\\x6e\\x67">`
        DC32 `?<Constant L"\\x32\\x35\\x2e\\x70\\x6e\\x67">`
        DC32 `?<Constant L"\\x32\\x36\\x2e\\x70\\x6e\\x67">`
        DC32 `?<Constant L"\\x32\\x37\\x2e\\x70\\x6e\\x67">`
        DC32 `?<Constant L"\\x32\\x38\\x2e\\x70\\x6e\\x67">`
        DC32 `?<Constant L"\\x32\\x39\\x2e\\x70\\x6e\\x67">`
        DC32 `?<Constant L"\\x33\\x30\\x2e\\x70\\x6e\\x67">`
        DC32 `?<Constant L"\\x33\\x31\\x2e\\x70\\x6e\\x67">`
        DC32 `?<Constant L"\\x33\\x32\\x2e\\x70\\x6e\\x67">`
        DC32 `?<Constant L"\\x33\\x33\\x2e\\x70\\x6e\\x67">`
        DC32 `?<Constant L"\\x33\\x34\\x2e\\x70\\x6e\\x67">`
        DC32 `?<Constant L"\\x33\\x35\\x2e\\x70\\x6e\\x67">`
        DC32 `?<Constant L"\\x33\\x36\\x2e\\x70\\x6e\\x67">`
        DC32 `?<Constant L"\\x33\\x37\\x2e\\x70\\x6e\\x67">`
        DC32 `?<Constant L"\\x33\\x37\\x2e\\x70\\x6e\\x67">`
        DC32 `?<Constant L"\\x33\\x38\\x2e\\x70\\x6e\\x67">`
        DC32 `?<Constant L"\\x33\\x39\\x2e\\x70\\x6e\\x67">`
        DC8 0, 0, 0, 0, 0, 0, 0, 0, 0, 0, 0, 0, 0, 0, 0, 0
        DC8 0, 0, 0, 0, 0, 0, 0, 0, 0, 0, 0, 0, 0, 0, 0, 0
        DC8 0, 0, 0, 0, 0, 0, 0, 0, 0, 0, 0, 0, 0, 0, 0, 0
        DC8 0, 0, 0, 0, 0, 0, 0, 0, 0, 0, 0, 0, 0, 0, 0, 0
        DC8 0, 0, 0, 0, 0, 0, 0, 0, 0, 0, 0, 0, 0, 0, 0, 0
        DC8 0, 0, 0, 0, 0, 0, 0, 0, 0, 0, 0, 0, 0, 0, 0, 0
`?<Initializer for clockImages>`:
        DC32 `?<Constant L"\\x30\\x2e\\x70\\x6e\\x67">`
        DC32 `?<Constant L"\\x31\\x2e\\x70\\x6e\\x67">`
        DC32 `?<Constant L"\\x32\\x2e\\x70\\x6e\\x67">`
        DC32 `?<Constant L"\\x33\\x2e\\x70\\x6e\\x67">`
        DC32 `?<Constant L"\\x34\\x2e\\x70\\x6e\\x67">`
        DC32 `?<Constant L"\\x35\\x2e\\x70\\x6e\\x67">`
        DC32 `?<Constant L"\\x36\\x2e\\x70\\x6e\\x67">`
        DC32 `?<Constant L"\\x37\\x2e\\x70\\x6e\\x67">`
        DC32 `?<Constant L"\\x38\\x2e\\x70\\x6e\\x67">`
        DC32 `?<Constant L"\\x39\\x2e\\x70\\x6e\\x67">`
        DC32 `?<Constant L"\\x31\\x30\\x2e\\x70\\x6e\\x67">`
        DC32 `?<Constant L"\\x31\\x31\\x2e\\x70\\x6e\\x67">`
        DC32 `?<Constant L"\\x31\\x32\\x2e\\x70\\x6e\\x67">`
        DC32 `?<Constant L"\\x31\\x33\\x2e\\x70\\x6e\\x67">`
        DC32 `?<Constant L"\\x31\\x34\\x2e\\x70\\x6e\\x67">`
        DC32 `?<Constant L"\\x31\\x35\\x2e\\x70\\x6e\\x67">`
        DC32 `?<Constant L"\\x31\\x36\\x2e\\x70\\x6e\\x67">`
        DC32 `?<Constant L"\\x31\\x37\\x2e\\x70\\x6e\\x67">`
        DC32 `?<Constant L"\\x31\\x38\\x2e\\x70\\x6e\\x67">`
        DC32 `?<Constant L"\\x31\\x39\\x2e\\x70\\x6e\\x67">`
        DC32 `?<Constant L"\\x32\\x30\\x2e\\x70\\x6e\\x67">`
        DC32 `?<Constant L"\\x32\\x31\\x2e\\x70\\x6e\\x67">`
        DC32 `?<Constant L"\\x32\\x32\\x2e\\x70\\x6e\\x67">`
        DC32 `?<Constant L"\\x32\\x33\\x2e\\x70\\x6e\\x67">`
        DC32 `?<Constant L"\\x32\\x34\\x2e\\x70\\x6e\\x67">`
        DC32 `?<Constant L"\\x32\\x35\\x2e\\x70\\x6e\\x67">`
        DC32 `?<Constant L"\\x32\\x36\\x2e\\x70\\x6e\\x67">`
        DC32 `?<Constant L"\\x32\\x37\\x2e\\x70\\x6e\\x67">`
        DC32 `?<Constant L"\\x32\\x38\\x2e\\x70\\x6e\\x67">`
        DC32 `?<Constant L"\\x32\\x39\\x2e\\x70\\x6e\\x67">`
        DC32 `?<Constant L"\\x33\\x30\\x2e\\x70\\x6e\\x67">`
        DC32 `?<Constant L"\\x33\\x31\\x2e\\x70\\x6e\\x67">`
        DC32 `?<Constant L"\\x33\\x32\\x2e\\x70\\x6e\\x67">`
        DC32 `?<Constant L"\\x33\\x33\\x2e\\x70\\x6e\\x67">`
        DC32 `?<Constant L"\\x33\\x34\\x2e\\x70\\x6e\\x67">`
        DC32 `?<Constant L"\\x33\\x35\\x2e\\x70\\x6e\\x67">`
        DC32 `?<Constant L"\\x33\\x36\\x2e\\x70\\x6e\\x67">`
        DC32 `?<Constant L"\\x33\\x37\\x2e\\x70\\x6e\\x67">`
        DC32 `?<Constant L"\\x33\\x38\\x2e\\x70\\x6e\\x67">`
        DC32 `?<Constant L"\\x33\\x39\\x2e\\x70\\x6e\\x67">`
        DC32 `?<Constant L"\\x34\\x30\\x2e\\x70\\x6e\\x67">`
        DC32 `?<Constant L"\\x34\\x31\\x2e\\x70\\x6e\\x67">`
        DC32 `?<Constant L"\\x34\\x32\\x2e\\x70\\x6e\\x67">`
        DC32 `?<Constant L"\\x34\\x33\\x2e\\x70\\x6e\\x67">`
        DC32 `?<Constant L"\\x34\\x34\\x2e\\x70\\x6e\\x67">`
        DC32 `?<Constant L"\\x34\\x35\\x2e\\x70\\x6e\\x67">`
        DC32 `?<Constant L"\\x34\\x36\\x2e\\x70\\x6e\\x67">`
        DC32 `?<Constant L"\\x34\\x37\\x2e\\x70\\x6e\\x67">`
        DC32 `?<Constant L"\\x34\\x38\\x2e\\x70\\x6e\\x67">`
        DC32 `?<Constant L"\\x34\\x39\\x2e\\x70\\x6e\\x67">`
        DC32 `?<Constant L"\\x35\\x30\\x2e\\x70\\x6e\\x67">`
        DC32 `?<Constant L"\\x35\\x31\\x2e\\x70\\x6e\\x67">`
        DC32 `?<Constant L"\\x35\\x32\\x2e\\x70\\x6e\\x67">`
        DC32 `?<Constant L"\\x35\\x33\\x2e\\x70\\x6e\\x67">`
        DC32 `?<Constant L"\\x35\\x34\\x2e\\x70\\x6e\\x67">`
        DC32 `?<Constant L"\\x35\\x35\\x2e\\x70\\x6e\\x67">`
        DC32 `?<Constant L"\\x35\\x36\\x2e\\x70\\x6e\\x67">`
        DC32 `?<Constant L"\\x35\\x37\\x2e\\x70\\x6e\\x67">`
        DC32 `?<Constant L"\\x35\\x38\\x2e\\x70\\x6e\\x67">`
        DC32 `?<Constant L"\\x35\\x39\\x2e\\x70\\x6e\\x67">`
        DC8 0, 0, 0, 0, 0, 0, 0, 0, 0, 0, 0, 0, 0, 0, 0, 0
        DC8 0, 0, 0, 0, 0, 0, 0, 0, 0, 0, 0, 0, 0, 0, 0, 0
        DC8 0, 0, 0, 0, 0, 0, 0, 0, 0, 0, 0, 0, 0, 0, 0, 0
        DC8 0, 0, 0, 0, 0, 0, 0, 0, 0, 0, 0, 0, 0, 0, 0, 0
        DC8 0, 0, 0, 0, 0, 0, 0, 0, 0, 0, 0, 0, 0, 0, 0, 0
        DC8 0, 0, 0, 0, 0, 0, 0, 0, 0, 0, 0, 0, 0, 0, 0, 0
        DC8 0, 0, 0, 0, 0, 0, 0, 0, 0, 0, 0, 0, 0, 0, 0, 0
        DC8 0, 0, 0, 0, 0, 0, 0, 0, 0, 0, 0, 0, 0, 0, 0, 0
        DC8 0, 0, 0, 0, 0, 0, 0, 0, 0, 0, 0, 0, 0, 0, 0, 0
`?<Initializer for mybook>`:
        DC8 0, 0, 0, 0

        RSEG DATA_ID:CONST:SORT:NOROOT(2)
`?*?DATA_ID`:

        RSEG INITTAB:CODE:ROOT(2)
        DATA
?init?tab?DATA_I:
        DCD      sfe(DATA_I) - sfb(DATA_I), sfb(DATA_I), sfb(DATA_ID)

        RSEG DATA_C:CONST:SORT:NOROOT(2)
`?<Constant L"\\x36\\x2e\\x70\\x6e\\x67">`:
        DATA
        DC8 36H, 0, 2EH, 0, 70H, 0, 6EH, 0
        DC8 67H, 0, 0, 0

        RSEG DATA_C:CONST:SORT:NOROOT(2)
`?<Constant L"\\x25\\x64\\x3a\\x25\\x64">`:
        DATA
        DC8 25H, 0, 64H, 0, 3AH, 0, 25H, 0
        DC8 64H, 0, 0, 0
        DC8 25H, 0, 64H, 0, 3AH, 0, 30H, 0
        DC8 25H, 0, 64H, 0, 0, 0
        DC8 0, 0
        DC8 70H, 0, 6DH, 0, 0, 0
        DC8 0, 0
        DC8 61H, 0, 6DH, 0, 0, 0
        DC8 0, 0
        DC8 25H, 0, 64H, 0, 0, 0
        DC8 0, 0

        RSEG DATA_C:CONST:SORT:NOROOT(2)
`?<Constant L"\\x2c\\x20">`:
        DATA
        DC8 2CH, 0, 20H, 0, 0, 0
        DC8 0, 0
        DC8 20H, 0, 25H, 0, 64H, 0, 0, 0

        RSEG DATA_C:CONST:SORT:NOROOT(2)
`?<Constant "loading file">`:
        DATA
        DC8 "loading file"
        DC8 0, 0, 0
        DC8 77H, 0, 65H, 0, 61H, 0, 74H, 0
        DC8 68H, 0, 65H, 0, 72H, 0, 2EH, 0
        DC8 74H, 0, 78H, 0, 74H, 0, 0, 0
        DC8 63H, 0, 6FH, 0, 6EH, 0, 64H, 0
        DC8 69H, 0, 74H, 0, 69H, 0, 6FH, 0
        DC8 6EH, 0, 2EH, 0, 78H, 0, 6DH, 0
        DC8 6CH, 0, 0, 0
        DC8 45H, 0, 72H, 0, 72H, 0, 6FH, 0
        DC8 72H, 0, 20H, 0, 69H, 0, 6EH, 0
        DC8 20H, 0, 6CH, 0, 6FH, 0, 63H, 0
        DC8 61H, 0, 74H, 0, 69H, 0, 6FH, 0
        DC8 6EH, 0, 21H, 0, 20H, 0, 55H, 0
        DC8 70H, 0, 64H, 0, 61H, 0, 74H, 0
        DC8 65H, 0, 20H, 0, 79H, 0, 6FH, 0
        DC8 75H, 0, 72H, 0, 20H, 0, 66H, 0
        DC8 69H, 0, 6CH, 0, 65H, 0, 20H, 0
        DC8 77H, 0, 65H, 0, 61H, 0, 74H, 0
        DC8 68H, 0, 65H, 0, 72H, 0, 2EH, 0
        DC8 74H, 0, 78H, 0, 74H, 0, 20H, 0
        DC8 61H, 0, 6EH, 0, 64H, 0, 20H, 0
        DC8 72H, 0, 75H, 0, 6EH, 0, 20H, 0
        DC8 74H, 0, 68H, 0, 65H, 0, 20H, 0
        DC8 65H, 0, 6CH, 0, 66H, 0, 20H, 0
        DC8 61H, 0, 67H, 0, 61H, 0, 69H, 0
        DC8 6EH, 0, 21H, 0, 0, 0
        DC8 0, 0
        DC8 45H, 0, 72H, 0, 72H, 0, 6FH, 0
        DC8 72H, 0, 20H, 0, 69H, 0, 6EH, 0
        DC8 20H, 0, 44H, 0, 61H, 0, 79H, 0
        DC8 20H, 0, 57H, 0, 65H, 0, 61H, 0
        DC8 74H, 0, 68H, 0, 65H, 0, 72H, 0
        DC8 21H, 0, 20H, 0, 55H, 0, 70H, 0
        DC8 64H, 0, 61H, 0, 74H, 0, 65H, 0
        DC8 20H, 0, 79H, 0, 6FH, 0, 75H, 0
        DC8 72H, 0, 20H, 0, 66H, 0, 69H, 0
        DC8 6CH, 0, 65H, 0, 20H, 0, 77H, 0
        DC8 65H, 0, 61H, 0, 74H, 0, 68H, 0
        DC8 65H, 0, 72H, 0, 2EH, 0, 74H, 0
        DC8 78H, 0, 74H, 0, 20H, 0, 61H, 0
        DC8 6EH, 0, 64H, 0, 20H, 0, 72H, 0
        DC8 75H, 0, 6EH, 0, 20H, 0, 74H, 0
        DC8 68H, 0, 65H, 0, 20H, 0, 65H, 0
        DC8 6CH, 0, 66H, 0, 20H, 0, 61H, 0
        DC8 67H, 0, 61H, 0, 69H, 0, 6EH, 0
        DC8 21H, 0, 0, 0
        DC8 45H, 0, 72H, 0, 72H, 0, 6FH, 0
        DC8 72H, 0, 20H, 0, 69H, 0, 6EH, 0
        DC8 20H, 0, 4EH, 0, 69H, 0, 67H, 0
        DC8 68H, 0, 74H, 0, 20H, 0, 57H, 0
        DC8 65H, 0, 61H, 0, 74H, 0, 68H, 0
        DC8 65H, 0, 72H, 0, 21H, 0, 20H, 0
        DC8 55H, 0, 70H, 0, 64H, 0, 61H, 0
        DC8 74H, 0, 65H, 0, 20H, 0, 79H, 0
        DC8 6FH, 0, 75H, 0, 72H, 0, 20H, 0
        DC8 66H, 0, 69H, 0, 6CH, 0, 65H, 0
        DC8 20H, 0, 77H, 0, 65H, 0, 61H, 0
        DC8 74H, 0, 68H, 0, 65H, 0, 72H, 0
        DC8 2EH, 0, 74H, 0, 78H, 0, 74H, 0
        DC8 20H, 0, 61H, 0, 6EH, 0, 64H, 0
        DC8 20H, 0, 72H, 0, 75H, 0, 6EH, 0
        DC8 20H, 0, 74H, 0, 68H, 0, 65H, 0
        DC8 20H, 0, 65H, 0, 6CH, 0, 66H, 0
        DC8 20H, 0, 61H, 0, 67H, 0, 61H, 0
        DC8 69H, 0, 6EH, 0, 21H, 0, 0, 0
        DC8 45H, 0, 72H, 0, 72H, 0, 6FH, 0
        DC8 72H, 0, 20H, 0, 77H, 0, 68H, 0
        DC8 69H, 0, 6CH, 0, 65H, 0, 20H, 0
        DC8 74H, 0, 72H, 0, 79H, 0, 69H, 0
        DC8 6EH, 0, 67H, 0, 20H, 0, 74H, 0
        DC8 6FH, 0, 20H, 0, 6FH, 0, 70H, 0
        DC8 65H, 0, 6EH, 0, 20H, 0, 77H, 0
        DC8 65H, 0, 61H, 0, 74H, 0, 68H, 0
        DC8 65H, 0, 72H, 0, 2EH, 0, 74H, 0
        DC8 78H, 0, 74H, 0, 20H, 0, 61H, 0
        DC8 6EH, 0, 64H, 0, 20H, 0, 63H, 0
        DC8 6FH, 0, 6EH, 0, 64H, 0, 69H, 0
        DC8 74H, 0, 69H, 0, 6FH, 0, 6EH, 0
        DC8 2EH, 0, 78H, 0, 6DH, 0, 6CH, 0
        DC8 21H, 0, 0, 0

        RSEG DATA_C:CONST:SORT:NOROOT(2)
`?<Constant L"\\x33\\x31\\x2e\\x70\\x6e\\x67">`:
        DATA
        DC8 33H, 0, 31H, 0, 2EH, 0, 70H, 0
        DC8 6EH, 0, 67H, 0, 0, 0
        DC8 0, 0

        RSEG DATA_C:CONST:SORT:NOROOT(2)
`?<Constant L"\\x62\\x61\\x63\\x6b\\x67\\x72\\x6f\\x75\\`:
        DATA
        DC8 62H, 0, 61H, 0, 63H, 0, 6BH, 0
        DC8 67H, 0, 72H, 0, 6FH, 0, 75H, 0
        DC8 6EH, 0, 64H, 0, 2EH, 0, 70H, 0
        DC8 6EH, 0, 67H, 0, 0, 0
        DC8 0, 0
        DC8 6CH, 0, 6FH, 0, 67H, 0, 6FH, 0
        DC8 2EH, 0, 70H, 0, 6EH, 0, 67H, 0
        DC8 0, 0
        DC8 0, 0

        RSEG DATA_C:CONST:SORT:NOROOT(2)
`?<Constant L"\\x31\\x2e\\x70\\x6e\\x67">`:
        DATA
        DC8 31H, 0, 2EH, 0, 70H, 0, 6EH, 0
        DC8 67H, 0, 0, 0

        RSEG DATA_C:CONST:SORT:NOROOT(2)
`?<Constant L"\\x32\\x2e\\x70\\x6e\\x67">`:
        DATA
        DC8 32H, 0, 2EH, 0, 70H, 0, 6EH, 0
        DC8 67H, 0, 0, 0

        RSEG DATA_C:CONST:SORT:NOROOT(2)
`?<Constant L"\\x33\\x2e\\x70\\x6e\\x67">`:
        DATA
        DC8 33H, 0, 2EH, 0, 70H, 0, 6EH, 0
        DC8 67H, 0, 0, 0

        RSEG DATA_C:CONST:SORT:NOROOT(2)
`?<Constant L"\\x34\\x2e\\x70\\x6e\\x67">`:
        DATA
        DC8 34H, 0, 2EH, 0, 70H, 0, 6EH, 0
        DC8 67H, 0, 0, 0

        RSEG DATA_C:CONST:SORT:NOROOT(2)
`?<Constant L"\\x35\\x2e\\x70\\x6e\\x67">`:
        DATA
        DC8 35H, 0, 2EH, 0, 70H, 0, 6EH, 0
        DC8 67H, 0, 0, 0

        RSEG DATA_C:CONST:SORT:NOROOT(2)
`?<Constant L"\\x37\\x2e\\x70\\x6e\\x67">`:
        DATA
        DC8 37H, 0, 2EH, 0, 70H, 0, 6EH, 0
        DC8 67H, 0, 0, 0

        RSEG DATA_C:CONST:SORT:NOROOT(2)
`?<Constant L"\\x38\\x2e\\x70\\x6e\\x67">`:
        DATA
        DC8 38H, 0, 2EH, 0, 70H, 0, 6EH, 0
        DC8 67H, 0, 0, 0

        RSEG DATA_C:CONST:SORT:NOROOT(2)
`?<Constant L"\\x39\\x2e\\x70\\x6e\\x67">`:
        DATA
        DC8 39H, 0, 2EH, 0, 70H, 0, 6EH, 0
        DC8 67H, 0, 0, 0

        RSEG DATA_C:CONST:SORT:NOROOT(2)
`?<Constant L"\\x31\\x30\\x2e\\x70\\x6e\\x67">`:
        DATA
        DC8 31H, 0, 30H, 0, 2EH, 0, 70H, 0
        DC8 6EH, 0, 67H, 0, 0, 0
        DC8 0, 0

        RSEG DATA_C:CONST:SORT:NOROOT(2)
`?<Constant L"\\x31\\x31\\x2e\\x70\\x6e\\x67">`:
        DATA
        DC8 31H, 0, 31H, 0, 2EH, 0, 70H, 0
        DC8 6EH, 0, 67H, 0, 0, 0
        DC8 0, 0

        RSEG DATA_C:CONST:SORT:NOROOT(2)
`?<Constant L"\\x31\\x32\\x2e\\x70\\x6e\\x67">`:
        DATA
        DC8 31H, 0, 32H, 0, 2EH, 0, 70H, 0
        DC8 6EH, 0, 67H, 0, 0, 0
        DC8 0, 0

        RSEG DATA_C:CONST:SORT:NOROOT(2)
`?<Constant L"\\x31\\x33\\x2e\\x70\\x6e\\x67">`:
        DATA
        DC8 31H, 0, 33H, 0, 2EH, 0, 70H, 0
        DC8 6EH, 0, 67H, 0, 0, 0
        DC8 0, 0

        RSEG DATA_C:CONST:SORT:NOROOT(2)
`?<Constant L"\\x31\\x34\\x2e\\x70\\x6e\\x67">`:
        DATA
        DC8 31H, 0, 34H, 0, 2EH, 0, 70H, 0
        DC8 6EH, 0, 67H, 0, 0, 0
        DC8 0, 0

        RSEG DATA_C:CONST:SORT:NOROOT(2)
`?<Constant L"\\x31\\x35\\x2e\\x70\\x6e\\x67">`:
        DATA
        DC8 31H, 0, 35H, 0, 2EH, 0, 70H, 0
        DC8 6EH, 0, 67H, 0, 0, 0
        DC8 0, 0

        RSEG DATA_C:CONST:SORT:NOROOT(2)
`?<Constant L"\\x31\\x36\\x2e\\x70\\x6e\\x67">`:
        DATA
        DC8 31H, 0, 36H, 0, 2EH, 0, 70H, 0
        DC8 6EH, 0, 67H, 0, 0, 0
        DC8 0, 0

        RSEG DATA_C:CONST:SORT:NOROOT(2)
`?<Constant L"\\x31\\x37\\x2e\\x70\\x6e\\x67">`:
        DATA
        DC8 31H, 0, 37H, 0, 2EH, 0, 70H, 0
        DC8 6EH, 0, 67H, 0, 0, 0
        DC8 0, 0

        RSEG DATA_C:CONST:SORT:NOROOT(2)
`?<Constant L"\\x31\\x38\\x2e\\x70\\x6e\\x67">`:
        DATA
        DC8 31H, 0, 38H, 0, 2EH, 0, 70H, 0
        DC8 6EH, 0, 67H, 0, 0, 0
        DC8 0, 0

        RSEG DATA_C:CONST:SORT:NOROOT(2)
`?<Constant L"\\x31\\x39\\x2e\\x70\\x6e\\x67">`:
        DATA
        DC8 31H, 0, 39H, 0, 2EH, 0, 70H, 0
        DC8 6EH, 0, 67H, 0, 0, 0
        DC8 0, 0

        RSEG DATA_C:CONST:SORT:NOROOT(2)
`?<Constant L"\\x32\\x30\\x2e\\x70\\x6e\\x67">`:
        DATA
        DC8 32H, 0, 30H, 0, 2EH, 0, 70H, 0
        DC8 6EH, 0, 67H, 0, 0, 0
        DC8 0, 0

        RSEG DATA_C:CONST:SORT:NOROOT(2)
`?<Constant L"\\x32\\x31\\x2e\\x70\\x6e\\x67">`:
        DATA
        DC8 32H, 0, 31H, 0, 2EH, 0, 70H, 0
        DC8 6EH, 0, 67H, 0, 0, 0
        DC8 0, 0

        RSEG DATA_C:CONST:SORT:NOROOT(2)
`?<Constant L"\\x32\\x32\\x2e\\x70\\x6e\\x67">`:
        DATA
        DC8 32H, 0, 32H, 0, 2EH, 0, 70H, 0
        DC8 6EH, 0, 67H, 0, 0, 0
        DC8 0, 0

        RSEG DATA_C:CONST:SORT:NOROOT(2)
`?<Constant L"\\x32\\x33\\x2e\\x70\\x6e\\x67">`:
        DATA
        DC8 32H, 0, 33H, 0, 2EH, 0, 70H, 0
        DC8 6EH, 0, 67H, 0, 0, 0
        DC8 0, 0

        RSEG DATA_C:CONST:SORT:NOROOT(2)
`?<Constant L"\\x32\\x34\\x2e\\x70\\x6e\\x67">`:
        DATA
        DC8 32H, 0, 34H, 0, 2EH, 0, 70H, 0
        DC8 6EH, 0, 67H, 0, 0, 0
        DC8 0, 0

        RSEG DATA_C:CONST:SORT:NOROOT(2)
`?<Constant L"\\x32\\x35\\x2e\\x70\\x6e\\x67">`:
        DATA
        DC8 32H, 0, 35H, 0, 2EH, 0, 70H, 0
        DC8 6EH, 0, 67H, 0, 0, 0
        DC8 0, 0

        RSEG DATA_C:CONST:SORT:NOROOT(2)
`?<Constant L"\\x32\\x36\\x2e\\x70\\x6e\\x67">`:
        DATA
        DC8 32H, 0, 36H, 0, 2EH, 0, 70H, 0
        DC8 6EH, 0, 67H, 0, 0, 0
        DC8 0, 0

        RSEG DATA_C:CONST:SORT:NOROOT(2)
`?<Constant L"\\x32\\x37\\x2e\\x70\\x6e\\x67">`:
        DATA
        DC8 32H, 0, 37H, 0, 2EH, 0, 70H, 0
        DC8 6EH, 0, 67H, 0, 0, 0
        DC8 0, 0

        RSEG DATA_C:CONST:SORT:NOROOT(2)
`?<Constant L"\\x32\\x38\\x2e\\x70\\x6e\\x67">`:
        DATA
        DC8 32H, 0, 38H, 0, 2EH, 0, 70H, 0
        DC8 6EH, 0, 67H, 0, 0, 0
        DC8 0, 0

        RSEG DATA_C:CONST:SORT:NOROOT(2)
`?<Constant L"\\x32\\x39\\x2e\\x70\\x6e\\x67">`:
        DATA
        DC8 32H, 0, 39H, 0, 2EH, 0, 70H, 0
        DC8 6EH, 0, 67H, 0, 0, 0
        DC8 0, 0

        RSEG DATA_C:CONST:SORT:NOROOT(2)
`?<Constant L"\\x33\\x30\\x2e\\x70\\x6e\\x67">`:
        DATA
        DC8 33H, 0, 30H, 0, 2EH, 0, 70H, 0
        DC8 6EH, 0, 67H, 0, 0, 0
        DC8 0, 0

        RSEG DATA_C:CONST:SORT:NOROOT(2)
`?<Constant "StandbyBook">`:
        DATA
        DC8 "StandbyBook"

        RSEG DATA_C:CONST:SORT:NOROOT(2)
`?<Constant L"\\x33\\x32\\x2e\\x70\\x6e\\x67">`:
        DATA
        DC8 33H, 0, 32H, 0, 2EH, 0, 70H, 0
        DC8 6EH, 0, 67H, 0, 0, 0
        DC8 0, 0

        RSEG DATA_C:CONST:SORT:NOROOT(2)
`?<Constant L"\\x33\\x33\\x2e\\x70\\x6e\\x67">`:
        DATA
        DC8 33H, 0, 33H, 0, 2EH, 0, 70H, 0
        DC8 6EH, 0, 67H, 0, 0, 0
        DC8 0, 0

        RSEG DATA_C:CONST:SORT:NOROOT(2)
`?<Constant L"\\x33\\x34\\x2e\\x70\\x6e\\x67">`:
        DATA
        DC8 33H, 0, 34H, 0, 2EH, 0, 70H, 0
        DC8 6EH, 0, 67H, 0, 0, 0
        DC8 0, 0

        RSEG DATA_C:CONST:SORT:NOROOT(2)
`?<Constant L"\\x33\\x35\\x2e\\x70\\x6e\\x67">`:
        DATA
        DC8 33H, 0, 35H, 0, 2EH, 0, 70H, 0
        DC8 6EH, 0, 67H, 0, 0, 0
        DC8 0, 0

        RSEG DATA_C:CONST:SORT:NOROOT(2)
`?<Constant L"\\x33\\x36\\x2e\\x70\\x6e\\x67">`:
        DATA
        DC8 33H, 0, 36H, 0, 2EH, 0, 70H, 0
        DC8 6EH, 0, 67H, 0, 0, 0
        DC8 0, 0

        RSEG DATA_C:CONST:SORT:NOROOT(2)
`?<Constant L"\\x33\\x37\\x2e\\x70\\x6e\\x67">`:
        DATA
        DC8 33H, 0, 37H, 0, 2EH, 0, 70H, 0
        DC8 6EH, 0, 67H, 0, 0, 0
        DC8 0, 0

        RSEG DATA_C:CONST:SORT:NOROOT(2)
`?<Constant L"\\x33\\x38\\x2e\\x70\\x6e\\x67">`:
        DATA
        DC8 33H, 0, 38H, 0, 2EH, 0, 70H, 0
        DC8 6EH, 0, 67H, 0, 0, 0
        DC8 0, 0

        RSEG DATA_C:CONST:SORT:NOROOT(2)
`?<Constant L"\\x33\\x39\\x2e\\x70\\x6e\\x67">`:
        DATA
        DC8 33H, 0, 39H, 0, 2EH, 0, 70H, 0
        DC8 6EH, 0, 67H, 0, 0, 0
        DC8 0, 0

        RSEG DATA_C:CONST:SORT:NOROOT(2)
`?<Constant L"\\x30\\x2e\\x70\\x6e\\x67">`:
        DATA
        DC8 30H, 0, 2EH, 0, 70H, 0, 6EH, 0
        DC8 67H, 0, 0, 0

        RSEG DATA_C:CONST:SORT:NOROOT(2)
`?<Constant L"\\x34\\x30\\x2e\\x70\\x6e\\x67">`:
        DATA
        DC8 34H, 0, 30H, 0, 2EH, 0, 70H, 0
        DC8 6EH, 0, 67H, 0, 0, 0
        DC8 0, 0

        RSEG DATA_C:CONST:SORT:NOROOT(2)
`?<Constant L"\\x34\\x31\\x2e\\x70\\x6e\\x67">`:
        DATA
        DC8 34H, 0, 31H, 0, 2EH, 0, 70H, 0
        DC8 6EH, 0, 67H, 0, 0, 0
        DC8 0, 0

        RSEG DATA_C:CONST:SORT:NOROOT(2)
`?<Constant L"\\x34\\x32\\x2e\\x70\\x6e\\x67">`:
        DATA
        DC8 34H, 0, 32H, 0, 2EH, 0, 70H, 0
        DC8 6EH, 0, 67H, 0, 0, 0
        DC8 0, 0

        RSEG DATA_C:CONST:SORT:NOROOT(2)
`?<Constant L"\\x34\\x33\\x2e\\x70\\x6e\\x67">`:
        DATA
        DC8 34H, 0, 33H, 0, 2EH, 0, 70H, 0
        DC8 6EH, 0, 67H, 0, 0, 0
        DC8 0, 0

        RSEG DATA_C:CONST:SORT:NOROOT(2)
`?<Constant L"\\x34\\x34\\x2e\\x70\\x6e\\x67">`:
        DATA
        DC8 34H, 0, 34H, 0, 2EH, 0, 70H, 0
        DC8 6EH, 0, 67H, 0, 0, 0
        DC8 0, 0

        RSEG DATA_C:CONST:SORT:NOROOT(2)
`?<Constant L"\\x34\\x35\\x2e\\x70\\x6e\\x67">`:
        DATA
        DC8 34H, 0, 35H, 0, 2EH, 0, 70H, 0
        DC8 6EH, 0, 67H, 0, 0, 0
        DC8 0, 0

        RSEG DATA_C:CONST:SORT:NOROOT(2)
`?<Constant L"\\x34\\x36\\x2e\\x70\\x6e\\x67">`:
        DATA
        DC8 34H, 0, 36H, 0, 2EH, 0, 70H, 0
        DC8 6EH, 0, 67H, 0, 0, 0
        DC8 0, 0

        RSEG DATA_C:CONST:SORT:NOROOT(2)
`?<Constant L"\\x34\\x37\\x2e\\x70\\x6e\\x67">`:
        DATA
        DC8 34H, 0, 37H, 0, 2EH, 0, 70H, 0
        DC8 6EH, 0, 67H, 0, 0, 0
        DC8 0, 0

        RSEG DATA_C:CONST:SORT:NOROOT(2)
`?<Constant L"\\x34\\x38\\x2e\\x70\\x6e\\x67">`:
        DATA
        DC8 34H, 0, 38H, 0, 2EH, 0, 70H, 0
        DC8 6EH, 0, 67H, 0, 0, 0
        DC8 0, 0

        RSEG DATA_C:CONST:SORT:NOROOT(2)
`?<Constant L"\\x34\\x39\\x2e\\x70\\x6e\\x67">`:
        DATA
        DC8 34H, 0, 39H, 0, 2EH, 0, 70H, 0
        DC8 6EH, 0, 67H, 0, 0, 0
        DC8 0, 0

        RSEG DATA_C:CONST:SORT:NOROOT(2)
`?<Constant L"\\x35\\x30\\x2e\\x70\\x6e\\x67">`:
        DATA
        DC8 35H, 0, 30H, 0, 2EH, 0, 70H, 0
        DC8 6EH, 0, 67H, 0, 0, 0
        DC8 0, 0

        RSEG DATA_C:CONST:SORT:NOROOT(2)
`?<Constant L"\\x35\\x31\\x2e\\x70\\x6e\\x67">`:
        DATA
        DC8 35H, 0, 31H, 0, 2EH, 0, 70H, 0
        DC8 6EH, 0, 67H, 0, 0, 0
        DC8 0, 0

        RSEG DATA_C:CONST:SORT:NOROOT(2)
`?<Constant L"\\x35\\x32\\x2e\\x70\\x6e\\x67">`:
        DATA
        DC8 35H, 0, 32H, 0, 2EH, 0, 70H, 0
        DC8 6EH, 0, 67H, 0, 0, 0
        DC8 0, 0

        RSEG DATA_C:CONST:SORT:NOROOT(2)
`?<Constant L"\\x35\\x33\\x2e\\x70\\x6e\\x67">`:
        DATA
        DC8 35H, 0, 33H, 0, 2EH, 0, 70H, 0
        DC8 6EH, 0, 67H, 0, 0, 0
        DC8 0, 0

        RSEG DATA_C:CONST:SORT:NOROOT(2)
`?<Constant L"\\x35\\x34\\x2e\\x70\\x6e\\x67">`:
        DATA
        DC8 35H, 0, 34H, 0, 2EH, 0, 70H, 0
        DC8 6EH, 0, 67H, 0, 0, 0
        DC8 0, 0

        RSEG DATA_C:CONST:SORT:NOROOT(2)
`?<Constant L"\\x35\\x35\\x2e\\x70\\x6e\\x67">`:
        DATA
        DC8 35H, 0, 35H, 0, 2EH, 0, 70H, 0
        DC8 6EH, 0, 67H, 0, 0, 0
        DC8 0, 0

        RSEG DATA_C:CONST:SORT:NOROOT(2)
`?<Constant L"\\x35\\x36\\x2e\\x70\\x6e\\x67">`:
        DATA
        DC8 35H, 0, 36H, 0, 2EH, 0, 70H, 0
        DC8 6EH, 0, 67H, 0, 0, 0
        DC8 0, 0

        RSEG DATA_C:CONST:SORT:NOROOT(2)
`?<Constant L"\\x35\\x37\\x2e\\x70\\x6e\\x67">`:
        DATA
        DC8 35H, 0, 37H, 0, 2EH, 0, 70H, 0
        DC8 6EH, 0, 67H, 0, 0, 0
        DC8 0, 0

        RSEG DATA_C:CONST:SORT:NOROOT(2)
`?<Constant L"\\x35\\x38\\x2e\\x70\\x6e\\x67">`:
        DATA
        DC8 35H, 0, 38H, 0, 2EH, 0, 70H, 0
        DC8 6EH, 0, 67H, 0, 0, 0
        DC8 0, 0

        RSEG DATA_C:CONST:SORT:NOROOT(2)
`?<Constant L"\\x35\\x39\\x2e\\x70\\x6e\\x67">`:
        DATA
        DC8 35H, 0, 39H, 0, 2EH, 0, 70H, 0
        DC8 6EH, 0, 67H, 0, 0, 0
        DC8 0, 0

        END
// 
// 4 692 bytes in segment CODE
// 1 680 bytes in segment DATA_C
// 1 160 bytes in segment DATA_I
// 1 160 bytes in segment DATA_ID
//    12 bytes in segment INITTAB
// 
// 4 128 bytes of CODE  memory (+ 576 bytes shared)
// 2 840 bytes of CONST memory
// 1 160 bytes of DATA  memory
//
//Errors: none
//Warnings: none
