##############################################################################
#                                                                            #
# IAR ARM ANSI C/C++ Compiler V4.42A/W32 EVALUATION    07/Jun/2011  16:13:34 #
# Copyright 1999-2005 IAR Systems. All rights reserved.                      #
#                                                                            #
#    Cpu mode        =  interwork                                            #
#    Endian          =  little                                               #
#    Stack alignment =  4                                                    #
#    Source file     =  F:\Phone\Making elf patches\Elf's\GlassUIWidget\stan #
#                       dby\standbyDraw.cpp                                  #
#    Command line    =  "F:\Phone\Making elf patches\Elf's\GlassUIWidget\sta #
#                       ndby\standbyDraw.cpp" -lC "F:\Phone\Making elf       #
#                       patches\Elf's\GlassUIWidget\Release\List\" -lA       #
#                       "F:\Phone\Making elf patches\Elf's\GlassUIWidget\Rel #
#                       ease\List\" -o "F:\Phone\Making elf                  #
#                       patches\Elf's\GlassUIWidget\Release\Obj\" -s9        #
#                       --no_unroll --no_inline --cpu_mode arm --endian      #
#                       little --cpu ARM926EJ-S --stack_align 4 --interwork  #
#                       -e --enable_multibytes --fpu None --eec++            #
#                       --dlib_config "F:\Phone\Making elf                   #
#                       patches\IAR\Embedded Workbench 4.0                   #
#                       Evaluation\ARM\LIB\dl5tpainl8n.h" -I                 #
#                       "F:\Phone\Making elf patches\IAR\Embedded Workbench  #
#                       4.0 Evaluation\ARM\INC\"                             #
#    List file       =  F:\Phone\Making elf patches\Elf's\GlassUIWidget\Rele #
#                       ase\List\standbyDraw.lst                             #
#    Object file     =  F:\Phone\Making elf patches\Elf's\GlassUIWidget\Rele #
#                       ase\Obj\standbyDraw.r79                              #
#                                                                            #
#                                                                            #
##############################################################################

F:\Phone\Making elf patches\Elf's\GlassUIWidget\standby\standbyDraw.cpp
      1          #include "..\..\include\Lib_Clara.h"

   \                                 In segment CODE, align 4, keep-with-next
   \   __??Code32?? __code __interwork __atpcs LPARAM::LPARAM(int)
   \                     ??LPARAM:
   \   00000000   001080E5           STR      R1,[R0, #+0]
   \   00000004   1EFF2FE1           BX       LR               ;; return
      2          #include "..\..\include\Dir.h"
      3          #include "..\..\include\cfg_items.h"
      4          #include "..\bcfg\config_data.h"
      5          #include "..\bcfg\conf_loader.h"
      6          #include "..\file\openfile.h"
      7          #include "..\file\fileAnaliser.h"
      8          #include "..\utils\weather.h"
      9          #include "..\utils\utils.h"
     10          #include "..\mybook.h"
     11          #include "..\classes.h"

   \                                 In segment DATA_I, align 4, align-sorted
   \   UUID __data IID_IFontManager
   \                     IID_IFontManager:
   \   00000000                      DS8 16
   \   00000010                      REQUIRE `?<Initializer for IID_IFontManager>`

   \                                 In segment DATA_I, align 4, align-sorted
   \   UUID __data CID_CFontManager
   \                     CID_CFontManager:
   \   00000000                      DS8 16
   \   00000010                      REQUIRE `?<Initializer for CID_CFontManager>`

   \                                 In segment DATA_I, align 4, align-sorted
   \   UUID __data IID_ITextRenderingManager
   \                     IID_ITextRenderingManager:
   \   00000000                      DS8 16
   \   00000010                      REQUIRE `?<Initializer for IID_ITextRenderingManager>`

   \                                 In segment DATA_I, align 4, align-sorted
   \   UUID __data CID_CTextRenderingManager
   \                     CID_CTextRenderingManager:
   \   00000000                      DS8 16
   \   00000010                      REQUIRE `?<Initializer for CID_CTextRenderingManager>`

   \                                 In segment DATA_I, align 4, align-sorted
   \   UUID __data IID_IImageManager
   \                     IID_IImageManager:
   \   00000000                      DS8 16
   \   00000010                      REQUIRE `?<Initializer for IID_IImageManager>`

   \                                 In segment DATA_I, align 4, align-sorted
   \   UUID __data CID_CImageManager
   \                     CID_CImageManager:
   \   00000000                      DS8 16
   \   00000010                      REQUIRE `?<Initializer for CID_CImageManager>`

   \                                 In segment DATA_I, align 4, align-sorted
   \   UUID __data IID_IMetaData
   \                     IID_IMetaData:
   \   00000000                      DS8 16
   \   00000010                      REQUIRE `?<Initializer for IID_IMetaData>`

   \                                 In segment DATA_I, align 4, align-sorted
   \   UUID __data CID_CMetaData
   \                     CID_CMetaData:
   \   00000000                      DS8 16
   \   00000010                      REQUIRE `?<Initializer for CID_CMetaData>`

   \                                 In segment DATA_I, align 4, align-sorted
   \   UUID __data IID_IIndicationDeviceManager
   \                     IID_IIndicationDeviceManager:
   \   00000000                      DS8 16
   \   00000010                      REQUIRE `?<Initializer for IID_IIndicationDeviceManager`

   \                                 In segment DATA_I, align 4, align-sorted
   \   UUID __data CID_CIndicationDeviceManager
   \                     CID_CIndicationDeviceManager:
   \   00000000                      DS8 16
   \   00000010                      REQUIRE `?<Initializer for CID_CIndicationDeviceManager`
     12          #include "standbyDraw.h"
     13          #include "stdby.h" 

   \                                 In segment DATA_I, align 4, align-sorted
   \   wchar_t __data statesID[70]
   \                     statesID:
   \   00000000                      DS8 140
   \   0000008C                      REQUIRE `?<Initializer for statesID>`
   \   wchar_t __data clockID[96]
   \                     clockID:
   \   0000008C                      DS8 192
   \   0000014C                      REQUIRE `?<Initializer for clockID>`
   \   void (*__data SIonRedraw)(DISP_OBJ *, int, int, int)
   \                     SIonRedraw:
   \   0000014C                      DS8 4
   \   00000150                      REQUIRE `?<Initializer for SIonRedraw>`
   \   DISP_OBJ *__data StatusIndication
   \                     StatusIndication:
   \   00000150                      DS8 4
   \   00000154                      REQUIRE `?<Initializer for StatusIndication>`
   \   wchar_t *__data stateImages[68]
   \                     stateImages:
   \   00000154                      DS8 272
   \   00000264                      REQUIRE `?<Initializer for stateImages>`
   \   wchar_t *__data clockImages[96]
   \                     clockImages:
   \   00000264                      DS8 384
   \   000003E4                      REQUIRE `?<Initializer for clockImages>`
     14          #include "id3.h"
     15          #include "..\debug.h"
     16          MyBook* mybook;
   \                     mybook:
   \   000003E4                      DS8 4
   \   000003E8                      REQUIRE `?<Initializer for mybook>`
     17          
     18          //<!--bookmanager

   \                                 In segment CODE, align 4, keep-with-next
     19          void Send_REDRAW_RELEASE() {
   \                     ??Send_REDRAW_RELEASE:
   \   00000000   10402DE9           PUSH     {R4,LR}
     20            REDRAW_RELEASE_MESSAGE * sbm= new REDRAW_RELEASE_MESSAGE;
   \   00000004   1800A0E3           MOV      R0,#+24
   \   00000008   ........           _BLF     `??operator new`,`??operator new??rA`
   \   0000000C   0040A0E1           MOV      R4,R0
     21            memset(sbm,0,sizeof(REDRAW_RELEASE_MESSAGE));
   \   00000010   1820A0E3           MOV      R2,#+24
   \   00000014   0010A0E3           MOV      R1,#+0
   \   00000018   120100EF           SWI      +274
     22            sbm->SB_OldOnRedraw=SIonRedraw;
   \   0000001C   28009FE5           LDR      R0,??Send_REDRAW_RELEASE_1  ;; statesID + 332
   \   00000020   000090E5           LDR      R0,[R0, #+0]
   \   00000024   000084E5           STR      R0,[R4, #+0]
     23            sbm->SB_NewOnRedraw=Draw;
   \   00000028   ........           LDR      R0,??DataTable19  ;; ??Draw
   \   0000002C   040084E5           STR      R0,[R4, #+4]
     24            UI_Event_wData(SBY_REDRAW_RELEASE_EVENT ,sbm,(void (*)(void*))mfree_adr());
   \   00000030   048100EF           SWI      +33028
   \   00000034   0020A0E1           MOV      R2,R0
   \   00000038   0410A0E1           MOV      R1,R4
   \   0000003C   E300A0E3           MOV      R0,#+227
   \   00000040   C00F80E3           ORR      R0,R0,#0x300
   \   00000044   A90100EF           SWI      +425
     25          }
   \   00000048   1080BDE8           POP      {R4,PC}          ;; return
   \                     ??Send_REDRAW_RELEASE_1:
   \   0000004C   ........           DC32     statesID + 332
     26          

   \                                 In segment CODE, align 4, keep-with-next
     27          int ReconfigElf(void *mess ,BOOK *book)
     28          {
   \                     ??ReconfigElf:
   \   00000000   30402DE9           PUSH     {R4,R5,LR}
   \   00000004   0040A0E1           MOV      R4,R0
     29            RECONFIG_EVENT_DATA *reconf=(RECONFIG_EVENT_DATA *)mess;
     30            int result=0;
     31            if (wstrcmpi(reconf->path,successed_config_path)==0 && wstrcmpi(reconf->name,successed_config_name)==0)
   \   00000008   58009FE5           LDR      R0,??ReconfigElf_1  ;; successed_config_path
   \   0000000C   0050A0E3           MOV      R5,#+0
   \   00000010   001090E5           LDR      R1,[R0, #+0]
   \   00000014   0400A0E1           MOV      R0,R4
   \   00000018   9F0200EF           SWI      +671
   \   0000001C   000050E3           CMP      R0,#+0
   \   00000020   0E00001A           BNE      ??ReconfigElf_2
   \   00000024   40009FE5           LDR      R0,??ReconfigElf_1+0x4  ;; successed_config_name
   \   00000028   001090E5           LDR      R1,[R0, #+0]
   \   0000002C   800084E2           ADD      R0,R4,#+128
   \   00000030   9F0200EF           SWI      +671
   \   00000034   000050E3           CMP      R0,#+0
   \   00000038   0800001A           BNE      ??ReconfigElf_2
     32            {
     33              InitConfig();
     34              mybook->setHour(-1);
   \   0000003C   ........           LDR      R4,??DataTable18  ;; statesID
   \   00000040   ........           _BLF     ??InitConfig,??InitConfig??rA
   \   00000044   E40394E5           LDR      R0,[R4, #+996]
   \   00000048   0510E0E1           MVN      R1,R5
   \   0000004C   ........           _BLF     ??setHour,??setHour??rA
     35              mybook->loadDateNames();
   \   00000050   E40394E5           LDR      R0,[R4, #+996]
     36              makeDateMask();
     37              result=1;
   \   00000054   0150A0E3           MOV      R5,#+1
   \   00000058   ........           _BLF     ??loadDateNames,??loadDateNames??rA
   \   0000005C   ........           BL       ??makeDateMask
     38            }
     39            return(result);
   \                     ??ReconfigElf_2:
   \   00000060   0500A0E1           MOV      R0,R5
   \   00000064   3080BDE8           POP      {R4,R5,PC}       ;; return
   \                     ??ReconfigElf_1:
   \   00000068   ........           DC32     successed_config_path
   \   0000006C   ........           DC32     successed_config_name
     40          }
     41          
     42          //-->
     43          

   \                                 In segment CODE, align 4, keep-with-next
     44          void drawOnStby(wchar_t* message, int fontSize, int align, int x, int y, int textColor ) {
   \                     ??drawOnStby:
   \   00000000   F64F2DE9           PUSH     {R1,R2,R4-R11,LR}
   \   00000004   2C509DE5           LDR      R5,[SP, #+44]
   \   00000008   30609DE5           LDR      R6,[SP, #+48]
   \   0000000C   00B0A0E1           MOV      R11,R0
   \   00000010   0340A0E1           MOV      R4,R3
     45            int displayWidth = Display_GetWidth( 0 );
   \   00000014   0000A0E3           MOV      R0,#+0
   \   00000018   590200EF           SWI      +601
   \   0000001C   0070A0E1           MOV      R7,R0
     46            int displayHeigth = Display_GetHeight( 0 );
   \   00000020   0000A0E3           MOV      R0,#+0
   \   00000024   580200EF           SWI      +600
   \   00000028   0080A0E1           MOV      R8,R0
     47            int msgSize = wstrlen(message);
   \   0000002C   0B00A0E1           MOV      R0,R11
   \   00000030   570100EF           SWI      +343
   \   00000034   0090A0E1           MOV      R9,R0
     48            if (searchLine(message)) {
   \   00000038   0B00A0E1           MOV      R0,R11
   \   0000003C   ........           _BLF     ??searchLine,??searchLine??rA
   \   00000040   000050E3           CMP      R0,#+0
   \   00000044   3700000A           BEQ      ??drawOnStby_1
     49              int indexLine = wGetIndexOfLine(message);
   \   00000048   0B00A0E1           MOV      R0,R11
   \   0000004C   ........           _BLF     ??wGetIndexOfLine,??wGetIndexOfLine??rA
   \   00000050   0090A0E1           MOV      R9,R0
     50              wchar_t* line1 = getWSubStr(message,0,indexLine-1);
   \   00000054   012049E2           SUB      R2,R9,#+1
   \   00000058   0010A0E3           MOV      R1,#+0
   \   0000005C   0B00A0E1           MOV      R0,R11
   \   00000060   ........           _BLF     ??getWSubStr,??getWSubStr??rA
   \   00000064   00A0A0E1           MOV      R10,R0
     51              wchar_t* line2 = getWSubStr(message,indexLine+2,wstrlen(message));
   \   00000068   0B00A0E1           MOV      R0,R11
   \   0000006C   570100EF           SWI      +343
   \   00000070   0020A0E1           MOV      R2,R0
   \   00000074   021089E2           ADD      R1,R9,#+2
   \   00000078   0B00A0E1           MOV      R0,R11
   \   0000007C   ........           _BLF     ??getWSubStr,??getWSubStr??rA
   \   00000080   00B0A0E1           MOV      R11,R0
     52              msgSize = wstrlen(line1);
   \   00000084   0A00A0E1           MOV      R0,R10
   \   00000088   570100EF           SWI      +343
     53              
     54              TEXTID drawText = TextID_Create(line1, ENC_UCS2 , msgSize);
   \   0000008C   0020A0E1           MOV      R2,R0
   \   00000090   0010A0E3           MOV      R1,#+0
   \   00000094   0A00A0E1           MOV      R0,R10
   \   00000098   5D0100EF           SWI      +349
   \   0000009C   0090A0E1           MOV      R9,R0
     55              SetFont(fontSize);
   \   000000A0   00009DE5           LDR      R0,[SP, #+0]
   \   000000A4   F10100EF           SWI      +497
     56              DrawString( drawText , align , x , y , displayWidth, displayHeigth , 60 , 0x05 , textColor , textColor );
   \   000000A8   0600A0E1           MOV      R0,R6
   \   000000AC   01002DE9           PUSH     {R0}
   \   000000B0   01002DE9           PUSH     {R0}
   \   000000B4   0530A0E1           MOV      R3,R5
   \   000000B8   0420A0E1           MOV      R2,R4
   \   000000BC   0500A0E3           MOV      R0,#+5
   \   000000C0   01002DE9           PUSH     {R0}
   \   000000C4   3C00A0E3           MOV      R0,#+60
   \   000000C8   01002DE9           PUSH     {R0}
   \   000000CC   00012DE9           PUSH     {R8}
   \   000000D0   80002DE9           PUSH     {R7}
   \   000000D4   1C109DE5           LDR      R1,[SP, #+28]
   \   000000D8   0900A0E1           MOV      R0,R9
   \   000000DC   ED0100EF           SWI      +493
     57              TextID_Destroy( drawText );
   \   000000E0   0900A0E1           MOV      R0,R9
   \   000000E4   610100EF           SWI      +353
     58          
     59              delete line1; 
   \   000000E8   0A00A0E1           MOV      R0,R10
   \   000000EC   ........           _BLF     `??operator delete`,`??operator delete??rA`
     60              line1 = NULL;
     61              drawOnStby(line2, fontSize, align, x, y + BCFG_Tags_DayState_LineSpacing, textColor );
   \   000000F0   94009FE5           LDR      R0,??drawOnStby_2  ;; BCFG_Tags_DayState_LineSpacing
   \   000000F4   40002DE9           PUSH     {R6}
   \   000000F8   000090E5           LDR      R0,[R0, #+0]
   \   000000FC   0430A0E1           MOV      R3,R4
   \   00000100   050080E0           ADD      R0,R0,R5
   \   00000104   01002DE9           PUSH     {R0}
   \   00000108   24209DE5           LDR      R2,[SP, #+36]
   \   0000010C   20109DE5           LDR      R1,[SP, #+32]
   \   00000110   0B00A0E1           MOV      R0,R11
   \   00000114   B9FFFFEB           BL       ??drawOnStby
     62              delete line2;
   \   00000118   0B00A0E1           MOV      R0,R11
   \   0000011C   ........           _BLF     `??operator delete`,`??operator delete??rA`
     63              line2 = NULL;
   \   00000120   20D08DE2           ADD      SP,SP,#+32
   \   00000124   F38FBDE8           POP      {R0,R1,R4-R11,PC}
     64            }
     65            else {
     66              TEXTID drawText = TextID_Create(message, ENC_UCS2 , msgSize);
   \                     ??drawOnStby_1:
   \   00000128   0920A0E1           MOV      R2,R9
   \   0000012C   0010A0E3           MOV      R1,#+0
   \   00000130   0B00A0E1           MOV      R0,R11
   \   00000134   5D0100EF           SWI      +349
   \   00000138   0090A0E1           MOV      R9,R0
     67              SetFont(fontSize);
   \   0000013C   00009DE5           LDR      R0,[SP, #+0]
   \   00000140   F10100EF           SWI      +497
     68              DrawString( drawText , align , x , y , displayWidth, displayHeigth , 60 , 0x05 , textColor , textColor );
   \   00000144   0600A0E1           MOV      R0,R6
   \   00000148   01002DE9           PUSH     {R0}
   \   0000014C   40002DE9           PUSH     {R6}
   \   00000150   0530A0E1           MOV      R3,R5
   \   00000154   0500A0E3           MOV      R0,#+5
   \   00000158   01002DE9           PUSH     {R0}
   \   0000015C   0420A0E1           MOV      R2,R4
   \   00000160   3C00A0E3           MOV      R0,#+60
   \   00000164   01002DE9           PUSH     {R0}
   \   00000168   00012DE9           PUSH     {R8}
   \   0000016C   80002DE9           PUSH     {R7}
   \   00000170   1C109DE5           LDR      R1,[SP, #+28]
   \   00000174   0900A0E1           MOV      R0,R9
   \   00000178   ED0100EF           SWI      +493
     69              TextID_Destroy( drawText );
   \   0000017C   0900A0E1           MOV      R0,R9
   \   00000180   610100EF           SWI      +353
   \   00000184   18D08DE2           ADD      SP,SP,#+24
     70            }
     71          }
   \   00000188   F38FBDE8           POP      {R0,R1,R4-R11,PC}  ;; return
   \                     ??drawOnStby_2:
   \   0000018C   ........           DC32     BCFG_Tags_DayState_LineSpacing
     72          

   \                                 In segment CODE, align 4, keep-with-next
     73          void ifDrawImage( bool _drawImage, int x, int y, const wchar_t& imgID) {
   \                     ??ifDrawImage:
   \   00000000   70402DE9           PUSH     {R4-R6,LR}
   \   00000004   0140A0E1           MOV      R4,R1
   \   00000008   0250A0E1           MOV      R5,R2
   \   0000000C   0360A0E1           MOV      R6,R3
     74            if (_drawImage)
   \   00000010   000050E3           CMP      R0,#+0
   \   00000014   7080BD08           POPEQ    {R4-R6,PC}
     75              DrawImage(mybook->getGC(), x , y, imgID );
   \   00000018   ........           LDR      R0,??DataTable5  ;; statesID + 996
   \   0000001C   000090E5           LDR      R0,[R0, #+0]
   \   00000020   ........           _BLF     ??getGC,??getGC??rA
   \   00000024   B010D6E1           LDRH     R1,[R6, #+0]
   \   00000028   0030A0E3           MOV      R3,#+0
   \   0000002C   0520A0E1           MOV      R2,R5
   \   00000030   02002DE9           PUSH     {R1}
   \   00000034   0010A0E3           MOV      R1,#+0
   \   00000038   02002DE9           PUSH     {R1}
   \   0000003C   0410A0E1           MOV      R1,R4
   \   00000040   400100EF           SWI      +320
   \   00000044   08D08DE2           ADD      SP,SP,#+8
     76          }
   \   00000048   7080BDE8           POP      {R4-R6,PC}       ;; return
     77          

   \                                 In segment CODE, align 4, keep-with-next
     78          void Draw(DISP_OBJ* db,int r1, int r2,int r3) { //change lines for w800
   \                     ??Draw:
   \   00000000   10402DE9           PUSH     {R4,LR}
     79            if (SIonRedraw) SIonRedraw(db,r1,r2,r3);
   \   00000004   ........           LDR      R4,??DataTable22  ;; statesID
   \   00000008   4CC194E5           LDR      R12,[R4, #+332]
   \   0000000C   00005CE3           CMP      R12,#+0
   \   00000010   0000000A           BEQ      ??Draw_1
   \   00000014   3CFF2FE1           BLX      R12
     80            ifDrawImage( BCFG_Images_Background_Enable, BCFG_Images_Background_Position_X, BCFG_Images_Background_Position_Y,
     81                        statesID[0x0] );
   \                     ??Draw_1:
   \   00000018   50009FE5           LDR      R0,??Draw_2      ;; BCFG_Images_Background_Enable
   \   0000001C   50109FE5           LDR      R1,??Draw_2+0x4  ;; BCFG_Images_Background_Position_Y
   \   00000020   000090E5           LDR      R0,[R0, #+0]
   \   00000024   002091E5           LDR      R2,[R1, #+0]
   \   00000028   48109FE5           LDR      R1,??Draw_2+0x8  ;; BCFG_Images_Background_Position_X
   \   0000002C   000050E3           CMP      R0,#+0
   \   00000030   001091E5           LDR      R1,[R1, #+0]
   \   00000034   0100A013           MOVNE    R0,#+1
   \   00000038   0430A0E1           MOV      R3,R4
   \   0000003C   ........           BL       ??ifDrawImage
     82            if (!FindBook(get_IsAudioPlayerBook())) {
   \   00000040   8B8200EF           SWI      +33419
   \   00000044   300100EF           SWI      +304
   \   00000048   000050E3           CMP      R0,#+0
   \   0000004C   E40394E5           LDR      R0,[R4, #+996]
   \   00000050   0200001A           BNE      ??Draw_3
     83              mybook->unloadMetadataDll();
   \   00000054   ........           _BLF     ??unloadMetadataDll,??unloadMetadataDll??rA
     84              drawWeatherContents();
   \   00000058   ........           BL       ??drawWeatherContents
   \   0000005C   1080BDE8           POP      {R4,PC}
     85            }
     86            else {
     87              mybook->loadMetadataDll();
   \                     ??Draw_3:
   \   00000060   ........           _BLF     ??loadMetadataDll,??loadMetadataDll??rA
     88              drawId3(mybook);
   \   00000064   E40394E5           LDR      R0,[R4, #+996]
   \   00000068   ........           _BLF     ??drawId3,??drawId3??rA
     89            }
     90          } 
   \   0000006C   1080BDE8           POP      {R4,PC}          ;; return
   \                     ??Draw_2:
   \   00000070   ........           DC32     BCFG_Images_Background_Enable
   \   00000074   ........           DC32     BCFG_Images_Background_Position_Y
   \   00000078   ........           DC32     BCFG_Images_Background_Position_X
     91          

   \                                 In segment CODE, align 4, keep-with-next
     92          void ifDrawNoMask(bool contentIf, wchar_t* message, int fontSize, int align, int x, int y, unsigned int color) {
   \                     ??ifDrawNoMask:
   \   00000000   30402DE9           PUSH     {R4,R5,LR}
   \   00000004   10409DE5           LDR      R4,[SP, #+16]
   \   00000008   14509DE5           LDR      R5,[SP, #+20]
   \   0000000C   00C0A0E1           MOV      R12,R0
   \   00000010   0100A0E1           MOV      R0,R1
   \   00000014   0210A0E1           MOV      R1,R2
   \   00000018   0320A0E1           MOV      R2,R3
   \   0000001C   0C309DE5           LDR      R3,[SP, #+12]
     93            if (contentIf)
   \   00000020   00005CE3           CMP      R12,#+0
   \   00000024   3080BD08           POPEQ    {R4,R5,PC}
     94              drawOnStby( message, fontSize, align, x, y, color);
   \   00000028   20002DE9           PUSH     {R5}
   \   0000002C   10002DE9           PUSH     {R4}
   \   00000030   ........           BL       ??drawOnStby
   \   00000034   08D08DE2           ADD      SP,SP,#+8
     95          }
   \   00000038   3080BDE8           POP      {R4,R5,PC}       ;; return
     96          
     97          
     98          

   \                                 In segment CODE, align 4, keep-with-next
     99          void drawStdby(wchar_t* message,int fontSize, int align, int x1, int y1, int x2, int y2, int textColor ) {
   \                     ??drawStdby:
   \   00000000   F04F2DE9           PUSH     {R4-R11,LR}
   \   00000004   24709DE5           LDR      R7,[SP, #+36]
   \   00000008   30A09DE5           LDR      R10,[SP, #+48]
   \   0000000C   28809DE5           LDR      R8,[SP, #+40]
   \   00000010   2C909DE5           LDR      R9,[SP, #+44]
   \   00000014   00B0A0E1           MOV      R11,R0
   \   00000018   0140A0E1           MOV      R4,R1
   \   0000001C   0250A0E1           MOV      R5,R2
   \   00000020   0360A0E1           MOV      R6,R3
    100            int msgSize = wstrlen(message);
   \   00000024   570100EF           SWI      +343
    101            TEXTID drawText = TextID_Create(message, ENC_UCS2 , msgSize);
   \   00000028   0020A0E1           MOV      R2,R0
   \   0000002C   0010A0E3           MOV      R1,#+0
   \   00000030   0B00A0E1           MOV      R0,R11
   \   00000034   5D0100EF           SWI      +349
   \   00000038   00B0A0E1           MOV      R11,R0
    102            SetFont(fontSize);
   \   0000003C   0400A0E1           MOV      R0,R4
   \   00000040   F10100EF           SWI      +497
    103            DrawString( drawText , align , x1, y1 -16, x2, y2 -16, 60 , 0x05 , textColor , textColor );
   \   00000044   0A00A0E1           MOV      R0,R10
   \   00000048   01002DE9           PUSH     {R0}
   \   0000004C   00042DE9           PUSH     {R10}
   \   00000050   103047E2           SUB      R3,R7,#+16
   \   00000054   0500A0E3           MOV      R0,#+5
   \   00000058   01002DE9           PUSH     {R0}
   \   0000005C   0620A0E1           MOV      R2,R6
   \   00000060   0510A0E1           MOV      R1,R5
   \   00000064   3C00A0E3           MOV      R0,#+60
   \   00000068   01002DE9           PUSH     {R0}
   \   0000006C   100049E2           SUB      R0,R9,#+16
   \   00000070   01002DE9           PUSH     {R0}
   \   00000074   00012DE9           PUSH     {R8}
   \   00000078   0B00A0E1           MOV      R0,R11
   \   0000007C   ED0100EF           SWI      +493
    104            TextID_Destroy( drawText );
   \   00000080   0B00A0E1           MOV      R0,R11
   \   00000084   610100EF           SWI      +353
    105          }
   \   00000088   18D08DE2           ADD      SP,SP,#+24
   \   0000008C   F08FBDE8           POP      {R4-R11,PC}      ;; return
    106          

   \                                 In segment CODE, align 4, keep-with-next
    107          void drawClock(int hour, int min) {
   \                     ??drawClock:
   \   00000000   E2472DE9           PUSH     {R1,R5-R10,LR}
    108            wchar_t* tempHour = NULL;
    109            if (BCFG_Time_Type == 0) { //analog clock
   \   00000004   54A29FE5           LDR      R10,??drawClock_1  ;; `?<Constant L"\\x25\\x64\\x3a\\x25\\x64">`
   \   00000008   0090A0E1           MOV      R9,R0
   \   0000000C   50029FE5           LDR      R0,??drawClock_1+0x4  ;; BCFG_Time_Type
   \   00000010   04D04DE2           SUB      SP,SP,#+4
   \   00000014   000090E5           LDR      R0,[R0, #+0]
   \   00000018   000050E3           CMP      R0,#+0
   \   0000001C   4400001A           BNE      ??drawClock_2
    110              RECT statePos = BCFG_Time_AnalogClock_State_Position;
   \   00000020   40029FE5           LDR      R0,??drawClock_1+0x8  ;; BCFG_Time_AnalogClock_State_Position
   \   00000024   B020D0E1           LDRH     R2,[R0, #+0]
   \   00000028   B260D0E1           LDRH     R6,[R0, #+2]
   \   0000002C   B470D0E1           LDRH     R7,[R0, #+4]
   \   00000030   B680D0E1           LDRH     R8,[R0, #+6]
    111              ifDrawImage( BCFG_Images_Clock_Enable, BCFG_Images_Clock_Position_X, BCFG_Images_Clock_Position_Y,
    112                          clockID[min] );
   \   00000034   30029FE5           LDR      R0,??drawClock_1+0xC  ;; BCFG_Images_Clock_Enable
   \   00000038   B020CDE1           STRH     R2,[SP, #+0]
   \   0000003C   ........           LDR      R2,??DataTable18  ;; statesID
   \   00000040   000090E5           LDR      R0,[R0, #+0]
   \   00000044   811082E0           ADD      R1,R2,R1, LSL #+1
   \   00000048   8C3081E2           ADD      R3,R1,#+140
   \   0000004C   1C129FE5           LDR      R1,??drawClock_1+0x10  ;; BCFG_Images_Clock_Position_Y
   \   00000050   000050E3           CMP      R0,#+0
   \   00000054   002091E5           LDR      R2,[R1, #+0]
   \   00000058   14129FE5           LDR      R1,??drawClock_1+0x14  ;; BCFG_Images_Clock_Position_X
   \   0000005C   0100A013           MOVNE    R0,#+1
   \   00000060   001091E5           LDR      R1,[R1, #+0]
   \   00000064   ........           BL       ??ifDrawImage
    113              tempHour = makeNullWchar( 3 );
   \   00000068   0300A0E3           MOV      R0,#+3
   \   0000006C   ........           _BLF     ??makeNullWchar,??makeNullWchar??rA
   \   00000070   0050A0E1           MOV      R5,R0
    114              snwprintf( tempHour, 3, L"%d", hour);
   \   00000074   0930A0E1           MOV      R3,R9
   \   00000078   2C208AE2           ADD      R2,R10,#+44
   \   0000007C   0310A0E3           MOV      R1,#+3
   \   00000080   150100EF           SWI      +277
    115              ifDrawNoMask( BCFG_Time_Hour_Enable, tempHour, BCFG_Time_Hour_FontSize, BCFG_Time_Hour_Align,
    116                           BCFG_DateTime_Time_AnalogClock_Hour_Position_X, BCFG_DateTime_Time_AnalogClock_Hour_Position_Y - 16, BCFG_Time_Hour_TextColor );
   \   00000084   EC019FE5           LDR      R0,??drawClock_1+0x18  ;; BCFG_Time_Hour_Enable
   \   00000088   EC119FE5           LDR      R1,??drawClock_1+0x1C  ;; BCFG_Time_Hour_TextColor
   \   0000008C   000090E5           LDR      R0,[R0, #+0]
   \   00000090   001091E5           LDR      R1,[R1, #+0]
   \   00000094   000050E3           CMP      R0,#+0
   \   00000098   02002DE9           PUSH     {R1}
   \   0000009C   DC119FE5           LDR      R1,??drawClock_1+0x20  ;; BCFG_DateTime_Time_AnalogClock_Hour_Position_Y
   \   000000A0   0100A013           MOVNE    R0,#+1
   \   000000A4   001091E5           LDR      R1,[R1, #+0]
   \   000000A8   101041E2           SUB      R1,R1,#+16
   \   000000AC   02002DE9           PUSH     {R1}
   \   000000B0   CC119FE5           LDR      R1,??drawClock_1+0x24  ;; BCFG_DateTime_Time_AnalogClock_Hour_Position_X
   \   000000B4   001091E5           LDR      R1,[R1, #+0]
   \   000000B8   02002DE9           PUSH     {R1}
   \   000000BC   C4119FE5           LDR      R1,??drawClock_1+0x28  ;; BCFG_Time_Hour_Align
   \   000000C0   003091E5           LDR      R3,[R1, #+0]
   \   000000C4   C0119FE5           LDR      R1,??drawClock_1+0x2C  ;; BCFG_Time_Hour_FontSize
   \   000000C8   002091E5           LDR      R2,[R1, #+0]
   \   000000CC   0510A0E1           MOV      R1,R5
   \   000000D0   ........           BL       ??ifDrawNoMask
    117              delete tempHour;  tempHour = NULL;
   \   000000D4   0500A0E1           MOV      R0,R5
   \   000000D8   ........           _BLF     `??operator delete`,`??operator delete??rA`
    118              if (BCFG_Time_State_Enable)
   \   000000DC   AC019FE5           LDR      R0,??drawClock_1+0x30  ;; BCFG_Time_State_Enable
   \   000000E0   000090E5           LDR      R0,[R0, #+0]
   \   000000E4   0CD08DE2           ADD      SP,SP,#+12
   \   000000E8   000050E3           CMP      R0,#+0
   \   000000EC   E387BD08           POPEQ    {R0,R1,R5-R10,PC}
    119                drawStdby( mybook->hourState, BCFG_Time_State_FontSize, BCFG_Time_State_Align,
    120                          statePos.x1, statePos.y1, statePos.x2, statePos.y2, BCFG_Time_State_TextColor );
   \   000000F0   9C019FE5           LDR      R0,??drawClock_1+0x34  ;; BCFG_Time_State_TextColor
   \   000000F4   000090E5           LDR      R0,[R0, #+0]
   \   000000F8   01002DE9           PUSH     {R0}
   \   000000FC   94019FE5           LDR      R0,??drawClock_1+0x38  ;; BCFG_Time_State_Align
   \   00000100   00012DE9           PUSH     {R8}
   \   00000104   40002DE9           PUSH     {R6}
   \   00000108   80002DE9           PUSH     {R7}
   \   0000010C   002090E5           LDR      R2,[R0, #+0]
   \   00000110   84019FE5           LDR      R0,??drawClock_1+0x3C  ;; BCFG_Time_State_FontSize
   \   00000114   B031DDE1           LDRH     R3,[SP, #+16]
   \   00000118   001090E5           LDR      R1,[R0, #+0]
   \   0000011C   ........           LDR      R0,??DataTable5  ;; statesID + 996
   \   00000120   000090E5           LDR      R0,[R0, #+0]
   \   00000124   900090E5           LDR      R0,[R0, #+144]
   \   00000128   ........           BL       ??drawStdby
   \   0000012C   10D08DE2           ADD      SP,SP,#+16
   \   00000130   E387BDE8           POP      {R0,R1,R5-R10,PC}
    121             }
    122            
    123            else {  //digital clock
    124              tempHour = makeNullWchar( 7 );
   \                     ??drawClock_2:
   \   00000134   0700A0E3           MOV      R0,#+7
   \   00000138   ........           _BLF     ??makeNullWchar,??makeNullWchar??rA
   \   0000013C   0050A0E1           MOV      R5,R0
    125              wchar_t* hourMask = L"";
    126              (min > 10 ? (hourMask = L"%d:%d") : (hourMask = L"%d:0%d") );
   \   00000140   04009DE5           LDR      R0,[SP, #+4]
   \   00000144   0B0050E3           CMP      R0,#+11
    127              snwprintf( tempHour, 7, hourMask, (hour%12), min);
   \   00000148   01002DE9           PUSH     {R0}
   \   0000014C   4C019FE5           LDR      R0,??drawClock_1+0x40  ;; 0x2aaaaaab
   \   00000150   0A20A0A1           MOVGE    R2,R10
   \   00000154   9910C3E0           SMULL    R1,R3,R9,R0
   \   00000158   0C10A0E3           MOV      R1,#+12
   \   0000015C   C330A0E1           ASR      R3,R3,#+1
   \   00000160   A93F83E0           ADD      R3,R3,R9, LSR #+31
   \   00000164   910303E0           MUL      R3,R1,R3
   \   00000168   0C208AB2           ADDLT    R2,R10,#+12
   \   0000016C   033049E0           SUB      R3,R9,R3
   \   00000170   0710A0E3           MOV      R1,#+7
   \   00000174   0500A0E1           MOV      R0,R5
   \   00000178   150100EF           SWI      +277
    128              ifDrawNoMask( BCFG_Time_DigitalClock_Enable, tempHour, BCFG_Time_DigitalClock_FontSize, BCFG_Time_DigitalClock_Align,
    129                           BCFG_DateTime_Time_DigitalClock_Position_X, BCFG_DateTime_Time_DigitalClock_Position_Y - 16, BCFG_Time_DigitalClock_TextColor );
   \   0000017C   20019FE5           LDR      R0,??drawClock_1+0x44  ;; BCFG_Time_DigitalClock_Enable
   \   00000180   20119FE5           LDR      R1,??drawClock_1+0x48  ;; BCFG_Time_DigitalClock_TextColor
   \   00000184   000090E5           LDR      R0,[R0, #+0]
   \   00000188   04D08DE2           ADD      SP,SP,#+4
   \   0000018C   001091E5           LDR      R1,[R1, #+0]
   \   00000190   000050E3           CMP      R0,#+0
   \   00000194   02002DE9           PUSH     {R1}
   \   00000198   0C119FE5           LDR      R1,??drawClock_1+0x4C  ;; BCFG_DateTime_Time_DigitalClock_Position_Y
   \   0000019C   0100A013           MOVNE    R0,#+1
   \   000001A0   001091E5           LDR      R1,[R1, #+0]
   \   000001A4   0000A003           MOVEQ    R0,#+0
   \   000001A8   101041E2           SUB      R1,R1,#+16
   \   000001AC   02002DE9           PUSH     {R1}
   \   000001B0   F8109FE5           LDR      R1,??drawClock_1+0x50  ;; BCFG_DateTime_Time_DigitalClock_Position_X
   \   000001B4   001091E5           LDR      R1,[R1, #+0]
   \   000001B8   02002DE9           PUSH     {R1}
   \   000001BC   F0109FE5           LDR      R1,??drawClock_1+0x54  ;; BCFG_Time_DigitalClock_Align
   \   000001C0   003091E5           LDR      R3,[R1, #+0]
   \   000001C4   EC109FE5           LDR      R1,??drawClock_1+0x58  ;; BCFG_Time_DigitalClock_FontSize
   \   000001C8   002091E5           LDR      R2,[R1, #+0]
   \   000001CC   0510A0E1           MOV      R1,R5
   \   000001D0   ........           BL       ??ifDrawNoMask
    130              wchar_t* ampm = ((hour >= BCFG_Tags_Time_Night || hour < BCFG_Tags_Time_Day) ? L"pm" : L"am");
   \   000001D4   ........           LDR      R0,??DataTable13  ;; BCFG_Tags_Time_Night
   \   000001D8   000090E5           LDR      R0,[R0, #+0]
   \   000001DC   0CD08DE2           ADD      SP,SP,#+12
   \   000001E0   000059E1           CMP      R9,R0
   \   000001E4   0300002A           BCS      ??drawClock_3
   \   000001E8   ........           LDR      R0,??DataTable14  ;; BCFG_Tags_Time_Day
   \   000001EC   000090E5           LDR      R0,[R0, #+0]
   \   000001F0   000059E1           CMP      R9,R0
   \   000001F4   0100002A           BCS      ??drawClock_4
   \                     ??drawClock_3:
   \   000001F8   1C108AE2           ADD      R1,R10,#+28
   \   000001FC   000000EA           B        ??drawClock_5
   \                     ??drawClock_4:
   \   00000200   24108AE2           ADD      R1,R10,#+36
    131              ifDrawNoMask( BCFG_Time_AMPM_Enable, ampm, BCFG_Time_AMPM_FontSize, BCFG_Time_AMPM_Align,
    132                           BCFG_DateTime_Time_DigitalClock_AMPM_Position_X, BCFG_DateTime_Time_DigitalClock_AMPM_Position_Y - 16,
    133                           BCFG_Time_AMPM_TextColor );
   \                     ??drawClock_5:
   \   00000204   B0009FE5           LDR      R0,??drawClock_1+0x5C  ;; BCFG_Time_AMPM_Enable
   \   00000208   B0209FE5           LDR      R2,??drawClock_1+0x60  ;; BCFG_Time_AMPM_TextColor
   \   0000020C   000090E5           LDR      R0,[R0, #+0]
   \   00000210   002092E5           LDR      R2,[R2, #+0]
   \   00000214   000050E3           CMP      R0,#+0
   \   00000218   04002DE9           PUSH     {R2}
   \   0000021C   A0209FE5           LDR      R2,??drawClock_1+0x64  ;; BCFG_DateTime_Time_DigitalClock_AMPM_Position_Y
   \   00000220   0100A013           MOVNE    R0,#+1
   \   00000224   002092E5           LDR      R2,[R2, #+0]
   \   00000228   102042E2           SUB      R2,R2,#+16
   \   0000022C   04002DE9           PUSH     {R2}
   \   00000230   90209FE5           LDR      R2,??drawClock_1+0x68  ;; BCFG_DateTime_Time_DigitalClock_AMPM_Position_X
   \   00000234   002092E5           LDR      R2,[R2, #+0]
   \   00000238   04002DE9           PUSH     {R2}
   \   0000023C   88209FE5           LDR      R2,??drawClock_1+0x6C  ;; BCFG_Time_AMPM_Align
   \   00000240   003092E5           LDR      R3,[R2, #+0]
   \   00000244   84209FE5           LDR      R2,??drawClock_1+0x70  ;; BCFG_Time_AMPM_FontSize
   \   00000248   002092E5           LDR      R2,[R2, #+0]
   \   0000024C   ........           BL       ??ifDrawNoMask
    134              delete tempHour; tempHour = NULL;
   \   00000250   0500A0E1           MOV      R0,R5
   \   00000254   ........           _BLF     `??operator delete`,`??operator delete??rA`
   \   00000258   0CD08DE2           ADD      SP,SP,#+12
    135            }
    136          }
   \   0000025C   E387BDE8           POP      {R0,R1,R5-R10,PC}
   \                     ??drawClock_1:
   \   00000260   ........           DC32     `?<Constant L"\\x25\\x64\\x3a\\x25\\x64">`
   \   00000264   ........           DC32     BCFG_Time_Type
   \   00000268   ........           DC32     BCFG_Time_AnalogClock_State_Position
   \   0000026C   ........           DC32     BCFG_Images_Clock_Enable
   \   00000270   ........           DC32     BCFG_Images_Clock_Position_Y
   \   00000274   ........           DC32     BCFG_Images_Clock_Position_X
   \   00000278   ........           DC32     BCFG_Time_Hour_Enable
   \   0000027C   ........           DC32     BCFG_Time_Hour_TextColor
   \   00000280   ........           DC32     BCFG_DateTime_Time_AnalogClock_Hour_Position_Y
   \   00000284   ........           DC32     BCFG_DateTime_Time_AnalogClock_Hour_Position_X
   \   00000288   ........           DC32     BCFG_Time_Hour_Align
   \   0000028C   ........           DC32     BCFG_Time_Hour_FontSize
   \   00000290   ........           DC32     BCFG_Time_State_Enable
   \   00000294   ........           DC32     BCFG_Time_State_TextColor
   \   00000298   ........           DC32     BCFG_Time_State_Align
   \   0000029C   ........           DC32     BCFG_Time_State_FontSize
   \   000002A0   ABAAAA2A           DC32     0x2aaaaaab
   \   000002A4   ........           DC32     BCFG_Time_DigitalClock_Enable
   \   000002A8   ........           DC32     BCFG_Time_DigitalClock_TextColor
   \   000002AC   ........           DC32     BCFG_DateTime_Time_DigitalClock_Position_Y
   \   000002B0   ........           DC32     BCFG_DateTime_Time_DigitalClock_Position_X
   \   000002B4   ........           DC32     BCFG_Time_DigitalClock_Align
   \   000002B8   ........           DC32     BCFG_Time_DigitalClock_FontSize
   \   000002BC   ........           DC32     BCFG_Time_AMPM_Enable
   \   000002C0   ........           DC32     BCFG_Time_AMPM_TextColor
   \   000002C4   ........           DC32     BCFG_DateTime_Time_DigitalClock_AMPM_Position_Y
   \   000002C8   ........           DC32     BCFG_DateTime_Time_DigitalClock_AMPM_Position_X
   \   000002CC   ........           DC32     BCFG_Time_AMPM_Align
   \   000002D0   ........           DC32     BCFG_Time_AMPM_FontSize
    137          

   \                                 In segment CODE, align 4, keep-with-next
    138          void finalDraw(wchar_t* location, wchar_t* state, int dayState, int averageTemp) {
   \                     ??finalDraw:
   \   00000000   C84F2DE9           PUSH     {R3,R6-R11,LR}
   \   00000004   0070A0E1           MOV      R7,R0
    139            //<!--images
    140            //bg removed cuz it's default for music too so we always need it.
    141            ifDrawImage( BCFG_Images_AccuWeatherLogo_Enable, BCFG_Images_AccuWeatherLogo_Position_X, BCFG_Images_AccuWeatherLogo_Position_Y,
    142                        statesID[0x1] );
   \   00000008   B0019FE5           LDR      R0,??finalDraw_1  ;; BCFG_Images_AccuWeatherLogo_Enable
   \   0000000C   B0319FE5           LDR      R3,??finalDraw_1+0x4  ;; statesID + 2
   \   00000010   000090E5           LDR      R0,[R0, #+0]
   \   00000014   0160A0E1           MOV      R6,R1
   \   00000018   A8119FE5           LDR      R1,??finalDraw_1+0x8  ;; BCFG_Images_AccuWeatherLogo_Position_Y
   \   0000001C   0280A0E1           MOV      R8,R2
   \   00000020   002091E5           LDR      R2,[R1, #+0]
   \   00000024   A0119FE5           LDR      R1,??finalDraw_1+0xC  ;; BCFG_Images_AccuWeatherLogo_Position_X
   \   00000028   000050E3           CMP      R0,#+0
   \   0000002C   001091E5           LDR      R1,[R1, #+0]
   \   00000030   0100A013           MOVNE    R0,#+1
   \   00000034   ........           BL       ??ifDrawImage
    143            ifDrawImage( BCFG_Images_DayState_Enable, BCFG_Images_DayState_Position_X, BCFG_Images_DayState_Position_Y,
    144                        statesID[dayState+0x1] );
   \   00000038   ........           LDR      R1,??DataTable22  ;; statesID
   \   0000003C   8C019FE5           LDR      R0,??finalDraw_1+0x10  ;; BCFG_Images_DayState_Enable
   \   00000040   881081E0           ADD      R1,R1,R8, LSL #+1
   \   00000044   000090E5           LDR      R0,[R0, #+0]
   \   00000048   023081E2           ADD      R3,R1,#+2
   \   0000004C   80119FE5           LDR      R1,??finalDraw_1+0x14  ;; BCFG_Images_DayState_Position_Y
   \   00000050   000050E3           CMP      R0,#+0
   \   00000054   002091E5           LDR      R2,[R1, #+0]
   \   00000058   78119FE5           LDR      R1,??finalDraw_1+0x18  ;; BCFG_Images_DayState_Position_X
   \   0000005C   0100A013           MOVNE    R0,#+1
   \   00000060   001091E5           LDR      R1,[R1, #+0]
   \   00000064   ........           BL       ??ifDrawImage
    145            //-->
    146            //<!--text
    147            ifDrawNoMask(BCFG_Tags_Location_Enable , location, BCFG_Tags_Location_FontSize , BCFG_Tags_Location_Align , 
    148                         BCFG_Tags_Location_Position_X , BCFG_Tags_Location_Position_Y - 16 , BCFG_Tags_Location_TextColor);
   \   00000068   6C019FE5           LDR      R0,??finalDraw_1+0x1C  ;; BCFG_Tags_Location_Enable
   \   0000006C   6C119FE5           LDR      R1,??finalDraw_1+0x20  ;; BCFG_Tags_Location_TextColor
   \   00000070   000090E5           LDR      R0,[R0, #+0]
   \   00000074   001091E5           LDR      R1,[R1, #+0]
   \   00000078   000050E3           CMP      R0,#+0
   \   0000007C   02002DE9           PUSH     {R1}
   \   00000080   5C119FE5           LDR      R1,??finalDraw_1+0x24  ;; BCFG_Tags_Location_Position_Y
   \   00000084   0100A013           MOVNE    R0,#+1
   \   00000088   001091E5           LDR      R1,[R1, #+0]
   \   0000008C   101041E2           SUB      R1,R1,#+16
   \   00000090   02002DE9           PUSH     {R1}
   \   00000094   4C119FE5           LDR      R1,??finalDraw_1+0x28  ;; BCFG_Tags_Location_Position_X
   \   00000098   001091E5           LDR      R1,[R1, #+0]
   \   0000009C   02002DE9           PUSH     {R1}
   \   000000A0   44119FE5           LDR      R1,??finalDraw_1+0x2C  ;; BCFG_Tags_Location_Align
   \   000000A4   003091E5           LDR      R3,[R1, #+0]
   \   000000A8   40119FE5           LDR      R1,??finalDraw_1+0x30  ;; BCFG_Tags_Location_FontSize
   \   000000AC   002091E5           LDR      R2,[R1, #+0]
   \   000000B0   0710A0E1           MOV      R1,R7
   \   000000B4   ........           BL       ??ifDrawNoMask
   \   000000B8   34019FE5           LDR      R0,??finalDraw_1+0x34  ;; BCFG_Tags_DayState_Position_Y
   \   000000BC   000090E5           LDR      R0,[R0, #+0]
   \   000000C0   107040E2           SUB      R7,R0,#+16
   \   000000C4   2C019FE5           LDR      R0,??finalDraw_1+0x38  ;; BCFG_Tags_DayState_FontSize
   \   000000C8   008090E5           LDR      R8,[R0, #+0]
   \   000000CC   28019FE5           LDR      R0,??finalDraw_1+0x3C  ;; BCFG_Tags_DayState_Align
   \   000000D0   009090E5           LDR      R9,[R0, #+0]
   \   000000D4   24019FE5           LDR      R0,??finalDraw_1+0x40  ;; BCFG_Tags_DayState_Position_X
   \   000000D8   00A090E5           LDR      R10,[R0, #+0]
   \   000000DC   20019FE5           LDR      R0,??finalDraw_1+0x44  ;; BCFG_Tags_DayState_TextColor
   \   000000E0   00B090E5           LDR      R11,[R0, #+0]
   \   000000E4   1C019FE5           LDR      R0,??finalDraw_1+0x48  ;; BCFG_Tags_AverageTemperature_Enable
   \   000000E8   000090E5           LDR      R0,[R0, #+0]
   \   000000EC   0CD08DE2           ADD      SP,SP,#+12
   \   000000F0   000050E3           CMP      R0,#+0
   \   000000F4   0E00000A           BEQ      ??finalDraw_2
    149            
    150            if (BCFG_Tags_AverageTemperature_Enable) {// %d
    151              wchar_t* stateAvg = makeAvgState( state, averageTemp );
   \   000000F8   00109DE5           LDR      R1,[SP, #+0]
   \   000000FC   0600A0E1           MOV      R0,R6
   \   00000100   ........           _BLF     ??makeAvgState,??makeAvgState??rA
   \   00000104   0060A0E1           MOV      R6,R0
    152              ifDrawNoMask( BCFG_Tags_AverageTemperature_Enable, stateAvg, BCFG_Tags_DayState_FontSize, BCFG_Tags_DayState_Align,
    153                           BCFG_Tags_DayState_Position_X, BCFG_Tags_DayState_Position_Y - 16, BCFG_Tags_DayState_TextColor );
   \   00000108   00082DE9           PUSH     {R11}
   \   0000010C   80002DE9           PUSH     {R7}
   \   00000110   00042DE9           PUSH     {R10}
   \   00000114   0930A0E1           MOV      R3,R9
   \   00000118   0820A0E1           MOV      R2,R8
   \   0000011C   0610A0E1           MOV      R1,R6
   \   00000120   0100A0E3           MOV      R0,#+1
   \   00000124   ........           BL       ??ifDrawNoMask
    154              delete stateAvg; stateAvg = NULL;
   \   00000128   0600A0E1           MOV      R0,R6
   \   0000012C   ........           _BLF     `??operator delete`,`??operator delete??rA`
   \   00000130   0A0000EA           B        ??finalDraw_3
    155            }
    156            else
    157              ifDrawNoMask( BCFG_Tags_DayState_Enable , state , BCFG_Tags_DayState_FontSize , BCFG_Tags_DayState_Align ,
    158                           BCFG_Tags_DayState_Position_X, BCFG_Tags_DayState_Position_Y - 16 , BCFG_Tags_DayState_TextColor );
   \                     ??finalDraw_2:
   \   00000134   D0009FE5           LDR      R0,??finalDraw_1+0x4C  ;; BCFG_Tags_DayState_Enable
   \   00000138   0930A0E1           MOV      R3,R9
   \   0000013C   000090E5           LDR      R0,[R0, #+0]
   \   00000140   00082DE9           PUSH     {R11}
   \   00000144   000050E3           CMP      R0,#+0
   \   00000148   0100A013           MOVNE    R0,#+1
   \   0000014C   80002DE9           PUSH     {R7}
   \   00000150   00042DE9           PUSH     {R10}
   \   00000154   0820A0E1           MOV      R2,R8
   \   00000158   0610A0E1           MOV      R1,R6
   \   0000015C   ........           BL       ??ifDrawNoMask
    159            
    160            ifDrawNoMask( BCFG_Date_Enable , mybook->dateToDraw , BCFG_Date_FontSize, BCFG_Date_Align ,
    161                         BCFG_DateTime_Date_Position_X , BCFG_DateTime_Date_Position_Y - 16, BCFG_Date_TextColor );
   \                     ??finalDraw_3:
   \   00000160   A8009FE5           LDR      R0,??finalDraw_1+0x50  ;; BCFG_Date_Enable
   \   00000164   A8109FE5           LDR      R1,??finalDraw_1+0x54  ;; BCFG_Date_TextColor
   \   00000168   0CD08DE2           ADD      SP,SP,#+12
   \   0000016C   000090E5           LDR      R0,[R0, #+0]
   \   00000170   001091E5           LDR      R1,[R1, #+0]
   \   00000174   000050E3           CMP      R0,#+0
   \   00000178   02002DE9           PUSH     {R1}
   \   0000017C   94109FE5           LDR      R1,??finalDraw_1+0x58  ;; BCFG_DateTime_Date_Position_Y
   \   00000180   0100A013           MOVNE    R0,#+1
   \   00000184   001091E5           LDR      R1,[R1, #+0]
   \   00000188   101041E2           SUB      R1,R1,#+16
   \   0000018C   02002DE9           PUSH     {R1}
   \   00000190   84109FE5           LDR      R1,??finalDraw_1+0x5C  ;; BCFG_DateTime_Date_Position_X
   \   00000194   001091E5           LDR      R1,[R1, #+0]
   \   00000198   02002DE9           PUSH     {R1}
   \   0000019C   7C109FE5           LDR      R1,??finalDraw_1+0x60  ;; BCFG_Date_Align
   \   000001A0   003091E5           LDR      R3,[R1, #+0]
   \   000001A4   78109FE5           LDR      R1,??finalDraw_1+0x64  ;; BCFG_Date_FontSize
   \   000001A8   002091E5           LDR      R2,[R1, #+0]
   \   000001AC   74109FE5           LDR      R1,??finalDraw_1+0x68  ;; statesID + 996
   \   000001B0   001091E5           LDR      R1,[R1, #+0]
   \   000001B4   941091E5           LDR      R1,[R1, #+148]
   \   000001B8   ........           BL       ??ifDrawNoMask
    162            
    163            //-->
    164          }
   \   000001BC   CF8FBDE8           POP      {R0-R3,R6-R11,PC}
   \                     ??finalDraw_1:
   \   000001C0   ........           DC32     BCFG_Images_AccuWeatherLogo_Enable
   \   000001C4   ........           DC32     statesID + 2
   \   000001C8   ........           DC32     BCFG_Images_AccuWeatherLogo_Position_Y
   \   000001CC   ........           DC32     BCFG_Images_AccuWeatherLogo_Position_X
   \   000001D0   ........           DC32     BCFG_Images_DayState_Enable
   \   000001D4   ........           DC32     BCFG_Images_DayState_Position_Y
   \   000001D8   ........           DC32     BCFG_Images_DayState_Position_X
   \   000001DC   ........           DC32     BCFG_Tags_Location_Enable
   \   000001E0   ........           DC32     BCFG_Tags_Location_TextColor
   \   000001E4   ........           DC32     BCFG_Tags_Location_Position_Y
   \   000001E8   ........           DC32     BCFG_Tags_Location_Position_X
   \   000001EC   ........           DC32     BCFG_Tags_Location_Align
   \   000001F0   ........           DC32     BCFG_Tags_Location_FontSize
   \   000001F4   ........           DC32     BCFG_Tags_DayState_Position_Y
   \   000001F8   ........           DC32     BCFG_Tags_DayState_FontSize
   \   000001FC   ........           DC32     BCFG_Tags_DayState_Align
   \   00000200   ........           DC32     BCFG_Tags_DayState_Position_X
   \   00000204   ........           DC32     BCFG_Tags_DayState_TextColor
   \   00000208   ........           DC32     BCFG_Tags_AverageTemperature_Enable
   \   0000020C   ........           DC32     BCFG_Tags_DayState_Enable
   \   00000210   ........           DC32     BCFG_Date_Enable
   \   00000214   ........           DC32     BCFG_Date_TextColor
   \   00000218   ........           DC32     BCFG_DateTime_Date_Position_Y
   \   0000021C   ........           DC32     BCFG_DateTime_Date_Position_X
   \   00000220   ........           DC32     BCFG_Date_Align
   \   00000224   ........           DC32     BCFG_Date_FontSize
   \   00000228   ........           DC32     statesID + 996
    165          

   \                                 In segment CODE, align 4, keep-with-next
    166          void onfTimer (u16 tmr , LPARAM) {
   \                     ??onfTimer:
   \   00000000   10402DE9           PUSH     {R4,LR}
   \   00000004   04D04DE2           SUB      SP,SP,#+4
    167            if (0 == strcmp(Display_GetTopBook(0)->xbook->name, "StandbyBook"))
   \   00000008   ........           LDR      R4,??DataTable18  ;; statesID
   \   0000000C   0000A0E3           MOV      R0,#+0
   \   00000010   1B0300EF           SWI      +795
   \   00000014   000090E5           LDR      R0,[R0, #+0]
   \   00000018   40109FE5           LDR      R1,??onfTimer_1  ;; `?<Constant "StandbyBook">`
   \   0000001C   040090E5           LDR      R0,[R0, #+4]
   \   00000020   590100EF           SWI      +345
   \   00000024   000050E3           CMP      R0,#+0
   \   00000028   0200001A           BNE      ??onfTimer_2
    168              DispObject_InvalidateRect(StatusIndication,0);  
   \   0000002C   500194E5           LDR      R0,[R4, #+336]
   \   00000030   0010A0E3           MOV      R1,#+0
   \   00000034   EF0100EF           SWI      +495
    169            Timer_ReSet(&mybook->ftimer,1000,onfTimer,0);
   \                     ??onfTimer_2:
   \   00000038   0010A0E3           MOV      R1,#+0
   \   0000003C   0D00A0E1           MOV      R0,SP
   \   00000040   ........           _BLF     ??LPARAM,??LPARAM??rA
   \   00000044   E40394E5           LDR      R0,[R4, #+996]
   \   00000048   00309DE5           LDR      R3,[SP, #+0]
   \   0000004C   ........           LDR      R2,??DataTable25  ;; ??onfTimer
   \   00000050   FA1FA0E3           MOV      R1,#+1000
   \   00000054   A00080E2           ADD      R0,R0,#+160
   \   00000058   280100EF           SWI      +296
    170          }
   \   0000005C   1180BDE8           POP      {R0,R4,PC}       ;; return
   \                     ??onfTimer_1:
   \   00000060   ........           DC32     `?<Constant "StandbyBook">`
    171          

   \                                 In segment CODE, align 4, keep-with-next
    172          void makeDateMask() { //0 = segunda, 1 = tera, ... , 6 = domingo
   \                     ??makeDateMask:
   \   00000000   F0402DE9           PUSH     {R4-R7,LR}
    173            if (mybook->dateToDraw != NULL) { delete mybook->dateToDraw; mybook->dateToDraw = NULL; }
   \   00000004   ........           LDR      R4,??DataTable18  ;; statesID
   \   00000008   04D04DE2           SUB      SP,SP,#+4
   \   0000000C   E40394E5           LDR      R0,[R4, #+996]
   \   00000010   940090E5           LDR      R0,[R0, #+148]
   \   00000014   000050E3           CMP      R0,#+0
   \   00000018   0300000A           BEQ      ??makeDateMask_1
   \   0000001C   ........           _BLF     `??operator delete`,`??operator delete??rA`
   \   00000020   E40394E5           LDR      R0,[R4, #+996]
   \   00000024   0010A0E3           MOV      R1,#+0
   \   00000028   941080E5           STR      R1,[R0, #+148]
    174            char _weekDay;
    175            DATE_GetWeekDay(&mybook->now.date, &_weekDay);
   \                     ??makeDateMask_1:
   \   0000002C   E40394E5           LDR      R0,[R4, #+996]
    176            int weekday = _weekDay;
    177            if (weekday < 1 && weekday > 6)
    178              weekday = 0;
    179            mybook->weekToDraw = mybook->weekNames[weekday];
    180            int month = mybook->now.date.mon;
    181            mybook->monthToDraw = mybook->monthNames[ (month > 0 ? month - 0x1 : 0x0) ];
    182            int dateLength = wstrlen(mybook->weekToDraw) + wstrlen(mybook->monthToDraw) + 5;
    183            wchar_t* dateToDraw = makeNullWchar( dateLength );
    184            wstrcpy(dateToDraw, mybook->weekToDraw);
    185            wstrcat(dateToDraw, L", ");
   \   00000030   D0609FE5           LDR      R6,??makeDateMask_2  ;; `?<Constant L"\\x2c\\x20">`
   \   00000034   0D10A0E1           MOV      R1,SP
   \   00000038   980080E2           ADD      R0,R0,#+152
   \   0000003C   9C0200EF           SWI      +668
   \   00000040   0010DDE5           LDRB     R1,[SP, #+0]
   \   00000044   E40394E5           LDR      R0,[R4, #+996]
   \   00000048   011180E0           ADD      R1,R0,R1, LSL #+2
   \   0000004C   241091E5           LDR      R1,[R1, #+36]
   \   00000050   401080E5           STR      R1,[R0, #+64]
   \   00000054   9A10D0E5           LDRB     R1,[R0, #+154]
   \   00000058   010051E3           CMP      R1,#+1
   \   0000005C   011041A2           SUBGE    R1,R1,#+1
   \   00000060   0010A0B3           MOVLT    R1,#+0
   \   00000064   011180E0           ADD      R1,R0,R1, LSL #+2
   \   00000068   441091E5           LDR      R1,[R1, #+68]
   \   0000006C   8C1080E5           STR      R1,[R0, #+140]
   \   00000070   400090E5           LDR      R0,[R0, #+64]
   \   00000074   570100EF           SWI      +343
   \   00000078   0050A0E1           MOV      R5,R0
   \   0000007C   E40394E5           LDR      R0,[R4, #+996]
   \   00000080   8C0090E5           LDR      R0,[R0, #+140]
   \   00000084   570100EF           SWI      +343
   \   00000088   050080E0           ADD      R0,R0,R5
   \   0000008C   050080E2           ADD      R0,R0,#+5
   \   00000090   ........           _BLF     ??makeNullWchar,??makeNullWchar??rA
   \   00000094   0050A0E1           MOV      R5,R0
   \   00000098   E40394E5           LDR      R0,[R4, #+996]
   \   0000009C   401090E5           LDR      R1,[R0, #+64]
   \   000000A0   0500A0E1           MOV      R0,R5
   \   000000A4   520100EF           SWI      +338
   \   000000A8   0610A0E1           MOV      R1,R6
   \   000000AC   0500A0E1           MOV      R0,R5
   \   000000B0   540100EF           SWI      +340
    186            wstrcat(dateToDraw, mybook->monthToDraw);
   \   000000B4   E40394E5           LDR      R0,[R4, #+996]
   \   000000B8   8C1090E5           LDR      R1,[R0, #+140]
   \   000000BC   0500A0E1           MOV      R0,R5
   \   000000C0   540100EF           SWI      +340
    187            wchar_t* day = makeNullWchar( 4 );
   \   000000C4   0400A0E3           MOV      R0,#+4
   \   000000C8   ........           _BLF     ??makeNullWchar,??makeNullWchar??rA
   \   000000CC   0070A0E1           MOV      R7,R0
    188            int intDay = mybook->now.date.day;
    189            snwprintf( day, 4, L" %d", intDay);
   \   000000D0   E40394E5           LDR      R0,[R4, #+996]
   \   000000D4   082086E2           ADD      R2,R6,#+8
   \   000000D8   9B30D0E5           LDRB     R3,[R0, #+155]
   \   000000DC   0410A0E3           MOV      R1,#+4
   \   000000E0   0700A0E1           MOV      R0,R7
   \   000000E4   150100EF           SWI      +277
    190            wstrcat(dateToDraw, day);
   \   000000E8   0710A0E1           MOV      R1,R7
   \   000000EC   0500A0E1           MOV      R0,R5
   \   000000F0   540100EF           SWI      +340
    191            mybook->dateToDraw = dateToDraw;
   \   000000F4   E40394E5           LDR      R0,[R4, #+996]
   \   000000F8   945080E5           STR      R5,[R0, #+148]
    192            delete day;
   \   000000FC   0700A0E1           MOV      R0,R7
   \   00000100   ........           _BLF     `??operator delete`,`??operator delete??rA`
    193          }
   \   00000104   F180BDE8           POP      {R0,R4-R7,PC}    ;; return
   \                     ??makeDateMask_2:
   \   00000108   ........           DC32     `?<Constant L"\\x2c\\x20">`
    194          

   \                                 In segment CODE, align 4, keep-with-next
    195          void drawWeatherContents() {
   \                     ??drawWeatherContents:
   \   00000000   F0402DE9           PUSH     {R4-R7,LR}
    196            //18 ~ 06: night, 06 ~ 18: day
    197            mybook->now = getDateTime();
   \   00000004   ........           LDR      R4,??DataTable18  ;; statesID
   \   00000008   08D04DE2           SUB      SP,SP,#+8
   \   0000000C   0D00A0E1           MOV      R0,SP
   \   00000010   ........           _BLF     ??getDateTime,??getDateTime??rA
   \   00000014   E40394E5           LDR      R0,[R4, #+996]
   \   00000018   0D10A0E1           MOV      R1,SP
   \   0000001C   B020D1E1           LDRH     R2,[R1, #0]
   \   00000020   B829E0E1           STRH     R2,[R0, #+152]!
   \   00000024   B220D1E1           LDRH     R2,[R1, #+2]
   \   00000028   B220C0E1           STRH     R2,[R0, #+2]
   \   0000002C   B420D1E1           LDRH     R2,[R1, #+4]
   \   00000030   B420C0E1           STRH     R2,[R0, #+4]
   \   00000034   B620D1E1           LDRH     R2,[R1, #+6]
   \   00000038   B620C0E1           STRH     R2,[R0, #+6]
    198          
    199            if (mybook->getHourSeted() == -1) {
   \   0000003C   E40394E5           LDR      R0,[R4, #+996]
   \   00000040   ........           _BLF     ??getHourSeted,??getHourSeted??rA
   \   00000044   010070E3           CMN      R0,#+1
   \   00000048   1600001A           BNE      ??drawWeatherContents_1
    200              if (mybook->getWeatherToDraw() != NULL) mybook->freeWDraw();
   \   0000004C   E40394E5           LDR      R0,[R4, #+996]
   \   00000050   ........           _BLF     ??getWeatherToDraw,??getWeatherToDraw??rA
   \   00000054   000050E3           CMP      R0,#+0
   \   00000058   0100000A           BEQ      ??drawWeatherContents_2
   \   0000005C   E40394E5           LDR      R0,[R4, #+996]
   \   00000060   ........           _BLF     ??freeWDraw,??freeWDraw??rA
    201              mybook->setHour(mybook->now.time.hour);
   \                     ??drawWeatherContents_2:
   \   00000064   E40394E5           LDR      R0,[R4, #+996]
   \   00000068   9C10D0E5           LDRB     R1,[R0, #+156]
   \   0000006C   ........           _BLF     ??setHour,??setHour??rA
    202          
    203              if (mybook->now.time.hour >= BCFG_Tags_Time_Night || mybook->now.time.hour < BCFG_Tags_Time_Day) //need to check that later, midnight weather!
   \   00000070   E40394E5           LDR      R0,[R4, #+996]
   \   00000074   ........           LDR      R2,??DataTable13  ;; BCFG_Tags_Time_Night
   \   00000078   9C10D0E5           LDRB     R1,[R0, #+156]
   \   0000007C   002092E5           LDR      R2,[R2, #+0]
   \   00000080   020051E1           CMP      R1,R2
   \   00000084   0300002A           BCS      ??drawWeatherContents_3
   \   00000088   ........           LDR      R2,??DataTable14  ;; BCFG_Tags_Time_Day
   \   0000008C   002092E5           LDR      R2,[R2, #+0]
   \   00000090   020051E1           CMP      R1,R2
   \   00000094   0100002A           BCS      ??drawWeatherContents_4
    204                mybook->setWDraw(2);
   \                     ??drawWeatherContents_3:
   \   00000098   0210A0E3           MOV      R1,#+2
   \   0000009C   000000EA           B        ??drawWeatherContents_5
    205              else
    206                mybook->setWDraw(1);
   \                     ??drawWeatherContents_4:
   \   000000A0   0110A0E3           MOV      R1,#+1
   \                     ??drawWeatherContents_5:
   \   000000A4   ........           _BLF     ??setWDraw,??setWDraw??rA
    207            }
    208            
    209            if (mybook->getHourSeted() != mybook->now.time.hour) {
   \                     ??drawWeatherContents_1:
   \   000000A8   E40394E5           LDR      R0,[R4, #+996]
   \   000000AC   ........           _BLF     ??getHourSeted,??getHourSeted??rA
   \   000000B0   0010A0E1           MOV      R1,R0
   \   000000B4   E40394E5           LDR      R0,[R4, #+996]
   \   000000B8   9C20D0E5           LDRB     R2,[R0, #+156]
   \   000000BC   020051E1           CMP      R1,R2
   \   000000C0   0600000A           BEQ      ??drawWeatherContents_6
    210              mybook->setHour(-1);
   \   000000C4   0010E0E3           MVN      R1,#+0
   \   000000C8   ........           _BLF     ??setHour,??setHour??rA
    211              mybook->hourState = getStateByHour(mybook->now.time.hour);
   \   000000CC   E40394E5           LDR      R0,[R4, #+996]
   \   000000D0   9C00D0E5           LDRB     R0,[R0, #+156]
   \   000000D4   ........           _BLF     ??getStateByHour,??getStateByHour??rA
   \   000000D8   E41394E5           LDR      R1,[R4, #+996]
   \   000000DC   900081E5           STR      R0,[R1, #+144]
    212            }
    213          
    214            finalDraw(mybook->getLocation(), mybook->getWeatherToDraw()->getState_(),
    215                      mybook->getWeatherToDraw()->getState(), mybook->getWeatherToDraw()->getAverageTemp());
   \                     ??drawWeatherContents_6:
   \   000000E0   E40394E5           LDR      R0,[R4, #+996]
   \   000000E4   ........           _BLF     ??getWeatherToDraw,??getWeatherToDraw??rA
   \   000000E8   ........           _BLF     ??getAverageTemp,??getAverageTemp??rA
   \   000000EC   0050A0E1           MOV      R5,R0
   \   000000F0   E40394E5           LDR      R0,[R4, #+996]
   \   000000F4   ........           _BLF     ??getWeatherToDraw,??getWeatherToDraw??rA
   \   000000F8   ........           _BLF     ??getState,??getState??rA
   \   000000FC   0060A0E1           MOV      R6,R0
   \   00000100   E40394E5           LDR      R0,[R4, #+996]
   \   00000104   ........           _BLF     ??getWeatherToDraw,??getWeatherToDraw??rA
   \   00000108   ........           _BLF     ??getState_,??getState_??rA
   \   0000010C   0070A0E1           MOV      R7,R0
   \   00000110   E40394E5           LDR      R0,[R4, #+996]
   \   00000114   ........           _BLF     ??getLocation,??getLocation??rA
   \   00000118   0530A0E1           MOV      R3,R5
   \   0000011C   0620A0E1           MOV      R2,R6
   \   00000120   0710A0E1           MOV      R1,R7
   \   00000124   ........           BL       ??finalDraw
    216            drawClock(mybook->now.time.hour, mybook->now.time.min);
   \   00000128   E40394E5           LDR      R0,[R4, #+996]
   \   0000012C   9D10D0E5           LDRB     R1,[R0, #+157]
   \   00000130   9C00D0E5           LDRB     R0,[R0, #+156]
   \   00000134   ........           BL       ??drawClock
    217            if (isDateEqual(&mybook->now,&mybook->dateOfWeather) != 0) {
   \   00000138   E40394E5           LDR      R0,[R4, #+996]
   \   0000013C   A21080E2           ADD      R1,R0,#+162
   \   00000140   980080E2           ADD      R0,R0,#+152
   \   00000144   ........           _BLF     ??isDateEqual,??isDateEqual??rA
   \   00000148   000050E3           CMP      R0,#+0
   \   0000014C   F380BD08           POPEQ    {R0,R1,R4-R7,PC}
    218              mybook->setHour(-1);
   \   00000150   E40394E5           LDR      R0,[R4, #+996]
   \   00000154   0010E0E3           MVN      R1,#+0
   \   00000158   ........           _BLF     ??setHour,??setHour??rA
    219              beginFile();
   \   0000015C   ........           BL       ??beginFile
    220            }  
    221          }
   \   00000160   F380BDE8           POP      {R0,R1,R4-R7,PC}  ;; return
    222          

   \                                 In segment CODE, align 4, keep-with-next
    223          void errorInFile(wchar_t* message) {
   \                     ??errorInFile:
   \   00000000   10402DE9           PUSH     {R4,LR}
   \   00000004   0040A0E1           MOV      R4,R0
    224            MessageBox(0x6FFFFFFF,TextID_Create(message,ENC_UCS2 , wstrlen(message)), NOIMAGE, 1, 0,0);
   \   00000008   570100EF           SWI      +343
   \   0000000C   0020A0E1           MOV      R2,R0
   \   00000010   0010A0E3           MOV      R1,#+0
   \   00000014   0400A0E1           MOV      R0,R4
    225            mybook->setError(true);
   \   00000018   ........           LDR      R4,??DataTable18  ;; statesID
   \   0000001C   5D0100EF           SWI      +349
   \   00000020   0010A0E3           MOV      R1,#+0
   \   00000024   02002DE9           PUSH     {R1}
   \   00000028   02002DE9           PUSH     {R1}
   \   0000002C   0130A0E3           MOV      R3,#+1
   \   00000030   FF20A0E3           MOV      R2,#+255
   \   00000034   FF2C82E3           ORR      R2,R2,#0xFF00
   \   00000038   0010A0E1           MOV      R1,R0
   \   0000003C   9004E0E3           MVN      R0,#-1879048192
   \   00000040   570200EF           SWI      +599
   \   00000044   E40394E5           LDR      R0,[R4, #+996]
   \   00000048   0110A0E3           MOV      R1,#+1
   \   0000004C   ........           _BLF     ??setError,??setError??rA
    226            message = NULL;
    227            FreeBook(mybook->getBook());
   \   00000050   E40394E5           LDR      R0,[R4, #+996]
   \   00000054   ........           _BLF     ??getBook,??getBook??rA
   \   00000058   2F0100EF           SWI      +303
    228          }
   \   0000005C   1380BDE8           POP      {R0,R1,R4,PC}    ;; return
    229          

   \                                 In segment CODE, align 4, keep-with-next
    230          void beginFile() {
   \                     ??beginFile:
   \   00000000   F0402DE9           PUSH     {R4-R7,LR}
    231            dbtf("loading file");
    232            wchar_t* fileContent = openFile(BCFG_XMLBGLogoFolder,L"weather.txt");
   \   00000004   ........           LDR      R5,??DataTable21  ;; BCFG_XMLBGLogoFolder
   \   00000008   74719FE5           LDR      R7,??beginFile_1  ;; `?<Constant "loading file">`
   \   0000000C   0CD04DE2           SUB      SP,SP,#+12
   \   00000010   0700A0E1           MOV      R0,R7
   \   00000014   ........           _BLF     ??dbtf,??dbtf??rA
   \   00000018   101087E2           ADD      R1,R7,#+16
   \   0000001C   0500A0E1           MOV      R0,R5
   \   00000020   ........           _BLF     ??openFile,??openFile??rA
   \   00000024   0040A0E1           MOV      R4,R0
    233            wchar_t* conditionXml = openFile(BCFG_XMLBGLogoFolder, L"condition.xml");
   \   00000028   281087E2           ADD      R1,R7,#+40
   \   0000002C   0500A0E1           MOV      R0,R5
   \   00000030   ........           _BLF     ??openFile,??openFile??rA
   \   00000034   0050A0E1           MOV      R5,R0
    234            if (fileContent != NULL && conditionXml != NULL) {
   \   00000038   000054E3           CMP      R4,#+0
   \   0000003C   00005513           CMPNE    R5,#+0
   \   00000040   4C00000A           BEQ      ??beginFile_2
    235              int pos = 0;
    236              mybook->freeMyVars();
   \   00000044   ........           LDR      R6,??DataTable18  ;; statesID
   \   00000048   0010A0E3           MOV      R1,#+0
   \   0000004C   00108DE5           STR      R1,[SP, #+0]
   \   00000050   E40396E5           LDR      R0,[R6, #+996]
   \   00000054   ........           _BLF     ??freeMyVars,??freeMyVars??rA
    237              mybook->setLocation(getLocation(fileContent, pos));
   \   00000058   0D10A0E1           MOV      R1,SP
   \   0000005C   0400A0E1           MOV      R0,R4
   \   00000060   ........           _BLF     ??getLocation_1,??getLocation??rA_1
   \   00000064   0010A0E1           MOV      R1,R0
   \   00000068   E40396E5           LDR      R0,[R6, #+996]
   \   0000006C   ........           _BLF     ??setLocation,??setLocation??rA
    238          
    239              if (mybook->getLocation() == NULL) 
   \   00000070   E40396E5           LDR      R0,[R6, #+996]
   \   00000074   ........           _BLF     ??getLocation,??getLocation??rA
   \   00000078   000050E3           CMP      R0,#+0
   \   0000007C   0200001A           BNE      ??beginFile_3
    240                errorInFile(L"Error in location! Update your file weather.txt and run the elf again!");
   \   00000080   440087E2           ADD      R0,R7,#+68
   \                     ??beginFile_4:
   \   00000084   ........           BL       ??errorInFile
   \   00000088   350000EA           B        ??beginFile_5
    241              else {
    242                mybook->setDayWeather(getDayWeather(fileContent, pos, conditionXml));
   \                     ??beginFile_3:
   \   0000008C   0520A0E1           MOV      R2,R5
   \   00000090   0D10A0E1           MOV      R1,SP
   \   00000094   0400A0E1           MOV      R0,R4
   \   00000098   ........           _BLF     ??getDayWeather,??getDayWeather??rA
   \   0000009C   0010A0E1           MOV      R1,R0
   \   000000A0   E40396E5           LDR      R0,[R6, #+996]
   \   000000A4   ........           _BLF     ??setDayWeather,??setDayWeather??rA
    243          
    244                if (mybook->getDayWeather() == NULL) errorInFile(L"Error in Day Weather! Update your file weather.txt and run the elf again!");
   \   000000A8   E40396E5           LDR      R0,[R6, #+996]
   \   000000AC   ........           _BLF     ??getDayWeather_1,??getDayWeather??rA_1
   \   000000B0   000050E3           CMP      R0,#+0
   \   000000B4   D4008702           ADDEQ    R0,R7,#+212
   \   000000B8   F1FFFF0A           BEQ      ??beginFile_4
    245                else {
    246                  mybook->setNightWeather(getWeather(fileContent,pos, conditionXml));
   \   000000BC   0520A0E1           MOV      R2,R5
   \   000000C0   0D10A0E1           MOV      R1,SP
   \   000000C4   0400A0E1           MOV      R0,R4
   \   000000C8   ........           _BLF     ??getWeather,??getWeather??rA
   \   000000CC   0010A0E1           MOV      R1,R0
   \   000000D0   E40396E5           LDR      R0,[R6, #+996]
   \   000000D4   ........           _BLF     ??setNightWeather,??setNightWeather??rA
    247                  if (mybook->getNightWeather() == NULL) errorInFile(L"Error in Night Weather! Update your file weather.txt and run the elf again!");
   \   000000D8   E40396E5           LDR      R0,[R6, #+996]
   \   000000DC   ........           _BLF     ??getNightWeather,??getNightWeather??rA
   \   000000E0   000050E3           CMP      R0,#+0
   \   000000E4   0100001A           BNE      ??beginFile_6
   \   000000E8   5A0F87E2           ADD      R0,R7,#+360
   \   000000EC   E4FFFFEA           B        ??beginFile_4
    248                  else { mybook->dateOfWeather = getDateTime(); mybook->now = mybook->dateOfWeather; makeDateMask(); 
   \                     ??beginFile_6:
   \   000000F0   04008DE2           ADD      R0,SP,#+4
   \   000000F4   ........           _BLF     ??getDateTime,??getDateTime??rA
   \   000000F8   E40396E5           LDR      R0,[R6, #+996]
   \   000000FC   04108DE2           ADD      R1,SP,#+4
   \   00000100   B020D1E1           LDRH     R2,[R1, #0]
   \   00000104   B22AE0E1           STRH     R2,[R0, #+162]!
   \   00000108   B220D1E1           LDRH     R2,[R1, #+2]
   \   0000010C   B220C0E1           STRH     R2,[R0, #+2]
   \   00000110   B420D1E1           LDRH     R2,[R1, #+4]
   \   00000114   B420C0E1           STRH     R2,[R0, #+4]
   \   00000118   B620D1E1           LDRH     R2,[R1, #+6]
   \   0000011C   B620C0E1           STRH     R2,[R0, #+6]
   \   00000120   E40396E5           LDR      R0,[R6, #+996]
   \   00000124   981080E2           ADD      R1,R0,#+152
   \   00000128   A20080E2           ADD      R0,R0,#+162
   \   0000012C   B020D0E1           LDRH     R2,[R0, #0]
   \   00000130   B020C1E1           STRH     R2,[R1, #+0]
   \   00000134   B220D0E1           LDRH     R2,[R0, #+2]
   \   00000138   B220C1E1           STRH     R2,[R1, #+2]
   \   0000013C   B420D0E1           LDRH     R2,[R0, #+4]
   \   00000140   B420C1E1           STRH     R2,[R1, #+4]
   \   00000144   B620D0E1           LDRH     R2,[R0, #+6]
   \   00000148   B620C1E1           STRH     R2,[R1, #+6]
   \   0000014C   ........           BL       ??makeDateMask
    249                    mybook->hourState = getStateByHour(mybook->now.time.hour); }
   \   00000150   E40396E5           LDR      R0,[R6, #+996]
   \   00000154   9C00D0E5           LDRB     R0,[R0, #+156]
   \   00000158   ........           _BLF     ??getStateByHour,??getStateByHour??rA
   \   0000015C   E41396E5           LDR      R1,[R6, #+996]
   \   00000160   900081E5           STR      R0,[R1, #+144]
    250                }
    251              }
    252              delete fileContent;
   \                     ??beginFile_5:
   \   00000164   0400A0E1           MOV      R0,R4
   \   00000168   ........           _BLF     `??operator delete`,`??operator delete??rA`
    253              delete conditionXml;
   \   0000016C   0500A0E1           MOV      R0,R5
   \   00000170   ........           _BLF     `??operator delete`,`??operator delete??rA`
   \   00000174   F780BDE8           POP      {R0-R2,R4-R7,PC}
    254            } 
    255            else
    256              errorInFile(L"Error while trying to open weather.txt and condition.xml!");
   \                     ??beginFile_2:
   \   00000178   800F87E2           ADD      R0,R7,#+512
   \   0000017C   ........           BL       ??errorInFile
    257          }
   \   00000180   F780BDE8           POP      {R0-R2,R4-R7,PC}  ;; return
   \                     ??beginFile_1:
   \   00000184   ........           DC32     `?<Constant "loading file">`
    258          

   \                                 In segment CODE, align 4, keep-with-next
    259          int SB_ELF_Killed(void *mess ,BOOK* book) {
   \                     ??SB_ELF_Killed:
   \   00000000   F0402DE9           PUSH     {R4-R7,LR}
    260            REDRAW_RELEASE_MESSAGE* sbm=(REDRAW_RELEASE_MESSAGE*)mess;
    261            REDRAW_RELEASE_MESSAGE* res = 0;
    262            if (sbm->SB_NewOnRedraw==SIonRedraw) {
   \   00000004   ........           LDR      R5,??DataTable18  ;; statesID
   \   00000008   0040A0E1           MOV      R4,R0
   \   0000000C   040094E5           LDR      R0,[R4, #+4]
   \   00000010   4C1195E5           LDR      R1,[R5, #+332]
   \   00000014   010050E1           CMP      R0,R1
   \   00000018   1B00001A           BNE      ??SB_ELF_Killed_1
    263              res=new REDRAW_RELEASE_MESSAGE;
   \   0000001C   1800A0E3           MOV      R0,#+24
   \   00000020   ........           _BLF     `??operator new`,`??operator new??rA`
   \   00000024   0060A0E1           MOV      R6,R0
    264              memcpy(res,sbm,sizeof(REDRAW_RELEASE_MESSAGE));
   \   00000028   1820A0E3           MOV      R2,#+24
   \   0000002C   0410A0E1           MOV      R1,R4
   \   00000030   130100EF           SWI      +275
    265              if (sbm->SB_OldOnRedraw!=EMPTY_REDRAW_METHOD) SIonRedraw=sbm->SB_OldOnRedraw;
   \   00000034   000094E5           LDR      R0,[R4, #+0]
    266              DISP_DESC_SetOnRedraw(DispObject_GetDESC(StatusIndication),Draw);
   \   00000038   ........           LDR      R4,??DataTable19  ;; ??Draw
   \   0000003C   0070E0E3           MVN      R7,#+0
   \   00000040   070050E1           CMP      R0,R7
   \   00000044   4C018515           STRNE    R0,[R5, #+332]
   \   00000048   500195E5           LDR      R0,[R5, #+336]
   \   0000004C   1F0200EF           SWI      +543
   \   00000050   0410A0E1           MOV      R1,R4
   \   00000054   280200EF           SWI      +552
    267              res->SB_OldOnRedraw=EMPTY_REDRAW_METHOD;
   \   00000058   007086E5           STR      R7,[R6, #+0]
    268              res->SB_NewOnRedraw=Draw;
   \   0000005C   044086E5           STR      R4,[R6, #+4]
    269            }
    270            if (res) {
   \   00000060   000056E3           CMP      R6,#+0
   \   00000064   0800000A           BEQ      ??SB_ELF_Killed_1
    271              UI_Event_wData(SBY_REDRAW_RELEASE_EVENT ,res,(void (*)(void*))mfree_adr());
   \   00000068   048100EF           SWI      +33028
   \   0000006C   0020A0E1           MOV      R2,R0
   \   00000070   0610A0E1           MOV      R1,R6
   \   00000074   E300A0E3           MOV      R0,#+227
   \   00000078   C00F80E3           ORR      R0,R0,#0x300
   \   0000007C   A90100EF           SWI      +425
    272              return BLOCK_EVENT_GLOBALLY;
   \   00000080   9A00A0E3           MOV      R0,#+154
   \   00000084   800F80E3           ORR      R0,R0,#0x200
   \   00000088   F080BDE8           POP      {R4-R7,PC}
    273            }
    274            return 0;
   \                     ??SB_ELF_Killed_1:
   \   0000008C   0000A0E3           MOV      R0,#+0
   \   00000090   F080BDE8           POP      {R4-R7,PC}       ;; return
    275          }
    276          

   \                                 In segment CODE, align 4, keep-with-next
    277          void InitImages(void) {
   \                     ??InitImages:
   \   00000000   70402DE9           PUSH     {R4-R6,LR}
    278            ImageID_Get(BCFG_XMLBGLogoFolder,L"background.png",&statesID[0x0]);
   \   00000004   ........           LDR      R4,??DataTable22  ;; statesID
   \   00000008   ........           LDR      R5,??DataTable21  ;; BCFG_XMLBGLogoFolder
   \   0000000C   70609FE5           LDR      R6,??InitImages_1  ;; `?<Constant L"\\x62\\x61\\x63\\x6b\\x67\\x72\\x6f\\x75\\`
   \   00000010   0420A0E1           MOV      R2,R4
   \   00000014   0610A0E1           MOV      R1,R6
   \   00000018   0500A0E1           MOV      R0,R5
   \   0000001C   CC0200EF           SWI      +716
    279            ImageID_Get(BCFG_XMLBGLogoFolder,L"logo.png",&statesID[0x1]);
   \   00000020   022084E2           ADD      R2,R4,#+2
   \   00000024   201086E2           ADD      R1,R6,#+32
   \   00000028   0500A0E1           MOV      R0,R5
   \   0000002C   CC0200EF           SWI      +716
    280            for (int i = 0 ; i < 44 ; i++) ImageID_Get(BCFG_StatesFolder,stateImages[i],&statesID[i+0x2]);
   \   00000030   0050A0E3           MOV      R5,#+0
   \                     ??InitImages_2:
   \   00000034   850084E0           ADD      R0,R4,R5, LSL #+1
   \   00000038   042080E2           ADD      R2,R0,#+4
   \   0000003C   050184E0           ADD      R0,R4,R5, LSL #+2
   \   00000040   541190E5           LDR      R1,[R0, #+340]
   \   00000044   3C009FE5           LDR      R0,??InitImages_1+0x4  ;; BCFG_StatesFolder
   \   00000048   015085E2           ADD      R5,R5,#+1
   \   0000004C   CC0200EF           SWI      +716
   \   00000050   2C0055E3           CMP      R5,#+44
   \   00000054   F6FFFFBA           BLT      ??InitImages_2
    281            for (int i = 0 ; i < 60 ; i++)ImageID_Get(BCFG_Path_Clock,clockImages[i],&clockID[i]);
   \   00000058   0050A0E3           MOV      R5,#+0
   \                     ??InitImages_3:
   \   0000005C   850084E0           ADD      R0,R4,R5, LSL #+1
   \   00000060   8C2080E2           ADD      R2,R0,#+140
   \   00000064   050184E0           ADD      R0,R4,R5, LSL #+2
   \   00000068   641290E5           LDR      R1,[R0, #+612]
   \   0000006C   18009FE5           LDR      R0,??InitImages_1+0x8  ;; BCFG_Path_Clock
   \   00000070   015085E2           ADD      R5,R5,#+1
   \   00000074   CC0200EF           SWI      +716
   \   00000078   3C0055E3           CMP      R5,#+60
   \   0000007C   F6FFFFBA           BLT      ??InitImages_3
    282          }
   \   00000080   7080BDE8           POP      {R4-R6,PC}       ;; return
   \                     ??InitImages_1:
   \   00000084   ........           DC32     `?<Constant L"\\x62\\x61\\x63\\x6b\\x67\\x72\\x6f\\x75\\`
   \   00000088   ........           DC32     BCFG_StatesFolder
   \   0000008C   ........           DC32     BCFG_Path_Clock
    283          

   \                                 In segment CODE, align 4, keep-with-next
    284          void DestroyImages(void) {
   \                     ??DestroyImages:
   \   00000000   30402DE9           PUSH     {R4,R5,LR}
    285            for (int i = 0 ; i < 46 ; i++) ImageID_Free(statesID[i]);
   \   00000004   ........           LDR      R5,??DataTable22  ;; statesID
   \   00000008   0040A0E3           MOV      R4,#+0
   \                     ??DestroyImages_1:
   \   0000000C   840085E0           ADD      R0,R5,R4, LSL #+1
   \   00000010   B000D0E1           LDRH     R0,[R0, #+0]
   \   00000014   014084E2           ADD      R4,R4,#+1
   \   00000018   CD0200EF           SWI      +717
   \   0000001C   2E0054E3           CMP      R4,#+46
   \   00000020   F9FFFFBA           BLT      ??DestroyImages_1
    286            for (int i = 0 ; i < 60 ; i++) ImageID_Free(clockID[i]);
   \   00000024   0040A0E3           MOV      R4,#+0
   \                     ??DestroyImages_2:
   \   00000028   840085E0           ADD      R0,R5,R4, LSL #+1
   \   0000002C   BC08D0E1           LDRH     R0,[R0, #+140]
   \   00000030   014084E2           ADD      R4,R4,#+1
   \   00000034   CD0200EF           SWI      +717
   \   00000038   3C0054E3           CMP      R4,#+60
   \   0000003C   F9FFFFBA           BLT      ??DestroyImages_2
    287          }
   \   00000040   3080BDE8           POP      {R4,R5,PC}       ;; return
    288          

   \                                 In segment CODE, align 4, keep-with-next
    289          void drawWeatherInfo(MyBook* book) {
   \                     ??drawWeatherInfo:
   \   00000000   10402DE9           PUSH     {R4,LR}
    290            mybook = book;
   \   00000004   ........           LDR      R4,??DataTable26  ;; statesID
   \   00000008   04D04DE2           SUB      SP,SP,#+4
   \   0000000C   E40384E5           STR      R0,[R4, #+996]
    291            beginFile();
   \   00000010   ........           BL       ??beginFile
    292          
    293            if (!mybook->getError()) {
   \   00000014   E40394E5           LDR      R0,[R4, #+996]
   \   00000018   ........           _BLF     ??getError,??getError??rA
   \   0000001C   000050E3           CMP      R0,#+0
   \   00000020   1180BD18           POPNE    {R0,R4,PC}
    294              InitImages();
   \   00000024   ........           BL       ??InitImages
    295              StatusIndication = GUIObject_GetDispObject( (GUI*)List_Get(Find_StandbyBook()->xguilist->guilist,0) );
   \   00000028   310100EF           SWI      +305
   \   0000002C   140090E5           LDR      R0,[R0, #+20]
   \   00000030   0010A0E3           MOV      R1,#+0
   \   00000034   040090E5           LDR      R0,[R0, #+4]
   \   00000038   AD0100EF           SWI      +429
   \   0000003C   680100EF           SWI      +360
   \   00000040   500184E5           STR      R0,[R4, #+336]
    296              SIonRedraw=DispObject_GetOnRedraw(StatusIndication);
   \   00000044   290200EF           SWI      +553
   \   00000048   4C0184E5           STR      R0,[R4, #+332]
    297              DISP_DESC_SetOnRedraw(DispObject_GetDESC(StatusIndication),Draw);
   \   0000004C   500194E5           LDR      R0,[R4, #+336]
   \   00000050   1F0200EF           SWI      +543
   \   00000054   ........           LDR      R1,??DataTable24  ;; ??Draw
   \   00000058   280200EF           SWI      +552
    298              mybook->ftimer=Timer_Set(1000,onfTimer,0);
   \   0000005C   0010A0E3           MOV      R1,#+0
   \   00000060   0D00A0E1           MOV      R0,SP
   \   00000064   ........           _BLF     ??LPARAM,??LPARAM??rA
   \   00000068   00209DE5           LDR      R2,[SP, #+0]
   \   0000006C   ........           LDR      R1,??DataTable25  ;; ??onfTimer
   \   00000070   FA0FA0E3           MOV      R0,#+1000
   \   00000074   290100EF           SWI      +297
   \   00000078   E41394E5           LDR      R1,[R4, #+996]
   \   0000007C   B00AC1E1           STRH     R0,[R1, #+160]
    299            }
    300          }
   \   00000080   1180BDE8           POP      {R0,R4,PC}       ;; return
    301          

   \                                 In segment CODE, align 4, keep-with-next
    302          void onCloseBEBook(BOOK* book) {
   \                     ??onCloseBEBook:
   \   00000000   10402DE9           PUSH     {R4,LR}
    303            if (book)  {
   \   00000004   000050E3           CMP      R0,#+0
   \   00000008   1080BD08           POPEQ    {R4,PC}
    304              if (StatusIndication) {
   \   0000000C   ........           LDR      R4,??DataTable26  ;; statesID
   \   00000010   500194E5           LDR      R0,[R4, #+336]
   \   00000014   000050E3           CMP      R0,#+0
   \   00000018   0B00000A           BEQ      ??onCloseBEBook_1
    305                Timer_Kill(&mybook->ftimer);
   \   0000001C   E40394E5           LDR      R0,[R4, #+996]
   \   00000020   A00080E2           ADD      R0,R0,#+160
   \   00000024   2A0100EF           SWI      +298
    306                DestroyImages();
   \   00000028   ........           BL       ??DestroyImages
    307                DISP_DESC_SetOnRedraw(DispObject_GetDESC(StatusIndication),SIonRedraw);
   \   0000002C   500194E5           LDR      R0,[R4, #+336]
   \   00000030   1F0200EF           SWI      +543
   \   00000034   4C1194E5           LDR      R1,[R4, #+332]
   \   00000038   280200EF           SWI      +552
    308                DispObject_InvalidateRect(StatusIndication,0);
   \   0000003C   500194E5           LDR      R0,[R4, #+336]
   \   00000040   0010A0E3           MOV      R1,#+0
   \   00000044   EF0100EF           SWI      +495
    309                Send_REDRAW_RELEASE();
   \   00000048   ........           BL       ??Send_REDRAW_RELEASE
    310              }
    311              mybook->freeMyVars();
   \                     ??onCloseBEBook_1:
   \   0000004C   E40394E5           LDR      R0,[R4, #+996]
   \   00000050   ........           _BLF     ??freeMyVars,??freeMyVars??rA
    312              delete mybook;
   \   00000054   E40394E5           LDR      R0,[R4, #+996]
   \   00000058   ........           _BLF     `??operator delete`,`??operator delete??rA`
    313              SUBPROC(elf_exit);
   \   0000005C   04009FE5           LDR      R0,??onCloseBEBook_2  ;; ??elf_exit
   \   00000060   080100EF           SWI      +264
    314            }
    315          }
   \   00000064   1080BDE8           POP      {R4,PC}          ;; return
   \                     ??onCloseBEBook_2:
   \   00000068   ........           DC32     ??elf_exit

   \                                 In segment CODE, align 4, keep-with-next
   \                     ??DataTable5:
   \   00000000   ........           DC32     statesID + 996

   \                                 In segment CODE, align 4, keep-with-next
   \                     ??DataTable13:
   \   00000000   ........           DC32     BCFG_Tags_Time_Night

   \                                 In segment CODE, align 4, keep-with-next
   \                     ??DataTable14:
   \   00000000   ........           DC32     BCFG_Tags_Time_Day

   \                                 In segment CODE, align 4, keep-with-next
   \                     ??DataTable18:
   \   00000000   ........           DC32     statesID

   \                                 In segment CODE, align 4, keep-with-next
   \                     ??DataTable19:
   \   00000000   ........           DC32     ??Draw

   \                                 In segment CODE, align 4, keep-with-next
   \                     ??DataTable21:
   \   00000000   ........           DC32     BCFG_XMLBGLogoFolder

   \                                 In segment CODE, align 4, keep-with-next
   \                     ??DataTable22:
   \   00000000   ........           DC32     statesID

   \                                 In segment CODE, align 4, keep-with-next
   \                     ??DataTable24:
   \   00000000   ........           DC32     ??Draw

   \                                 In segment CODE, align 4, keep-with-next
   \                     ??DataTable25:
   \   00000000   ........           DC32     ??onfTimer

   \                                 In segment CODE, align 4, keep-with-next
   \                     ??DataTable26:
   \   00000000   ........           DC32     statesID

   \                                 In segment DATA_ID, align 4, align-sorted
   \                     `?<Initializer for IID_IFontManager>`:
   \   00000000   95D05FCA0F30       DC8 149, 208, 95, 202, 15, 48, 79, 146, 148, 59, 19, 137, 33, 47, 9
   \              4F92943B1389
   \              212F09      
   \   0000000F   D7                 DC8 215

   \                                 In segment DATA_ID, align 4, align-sorted
   \                     `?<Initializer for CID_CFontManager>`:
   \   00000000   82AC979B5844       DC8 130, 172, 151, 155, 88, 68, 65, 57, 160, 211, 230, 207, 114, 181
   \              4139A0D3E6CF
   \              72B5        
   \   0000000E   8069               DC8 128, 105

   \                                 In segment DATA_ID, align 4, align-sorted
   \                     `?<Initializer for IID_ITextRenderingManager>`:
   \   00000000   CE917B62E33A       DC8 206, 145, 123, 98, 227, 58, 77, 199, 133, 36, 121, 30, 111, 1, 3, 9
   \              4DC78524791E
   \              6F010309    

   \                                 In segment DATA_ID, align 4, align-sorted
   \                     `?<Initializer for CID_CTextRenderingManager>`:
   \   00000000   CFDCCD9DAE6D       DC8 207, 220, 205, 157, 174, 109, 64, 174, 179, 151, 56, 176, 93, 45
   \              40AEB39738B0
   \              5D2D        
   \   0000000E   359D               DC8 53, 157

   \                                 In segment DATA_ID, align 4, align-sorted
   \                     `?<Initializer for IID_IImageManager>`:
   \   00000000   63EFA531FFD1       DC8 99, 239, 165, 49, 255, 209, 78, 37, 166, 36, 96, 10, 150, 129, 63
   \              4E25A624600A
   \              96813F      
   \   0000000F   C5                 DC8 197

   \                                 In segment DATA_ID, align 4, align-sorted
   \                     `?<Initializer for CID_CImageManager>`:
   \   00000000   862DF9951C3B       DC8 134, 45, 249, 149, 28, 59, 75, 36, 183, 77, 143, 152, 112, 30, 93
   \              4B24B74D8F98
   \              701E5D      
   \   0000000F   14                 DC8 20

   \                                 In segment DATA_ID, align 4, align-sorted
   \                     `?<Initializer for IID_IMetaData>`:
   \   00000000   B1EB4F97B0DD       DC8 177, 235, 79, 151, 176, 221, 66, 9, 182, 150, 206, 17, 45, 94, 216
   \              4209B696CE11
   \              2D5ED8      
   \   0000000F   E8                 DC8 232

   \                                 In segment DATA_ID, align 4, align-sorted
   \                     `?<Initializer for CID_CMetaData>`:
   \   00000000   0BCD950F9FB6       DC8 11, 205, 149, 15, 159, 182, 78, 122, 167, 205, 202, 29, 135, 186
   \              4E7AA7CDCA1D
   \              87BA        
   \   0000000E   9A27               DC8 154, 39

   \                                 In segment DATA_ID, align 4, align-sorted
   \                     `?<Initializer for IID_IIndicationDeviceManager`:
   \   00000000   0D44BF8686EA       DC8 13, 68, 191, 134, 134, 234, 76, 138, 174, 123, 186, 38, 64, 200, 99
   \              4C8AAE7BBA26
   \              40C863      
   \   0000000F   10                 DC8 16

   \                                 In segment DATA_ID, align 4, align-sorted
   \                     `?<Initializer for CID_CIndicationDeviceManager`:
   \   00000000   3F48FE2764F8       DC8 63, 72, 254, 39, 100, 248, 73, 7, 160, 230, 234, 43, 192, 224, 204
   \              4907A0E6EA2B
   \              C0E0CC      
   \   0000000F   C8                 DC8 200

   \                                 In segment DATA_ID, align 4, align-sorted
   \                     `?<Initializer for statesID>`:
   \   00000000   FFFFFFFFFFFF       DC16 65535, 65535, 65535, 65535, 65535, 65535, 65535, 65535, 65535
   \              FFFFFFFFFFFF
   \              FFFFFFFFFFFF
   \   00000012   FFFFFFFFFFFF       DC16 65535, 65535, 65535, 65535, 65535, 65535, 65535, 65535, 65535
   \              FFFFFFFFFFFF
   \              FFFFFFFFFFFF
   \   00000024   FFFFFFFFFFFF       DC16 65535, 65535, 65535, 65535, 65535, 65535, 65535, 65535, 65535
   \              FFFFFFFFFFFF
   \              FFFFFFFFFFFF
   \   00000036   FFFFFFFFFFFF       DC16 65535, 65535, 65535, 65535, 65535, 65535, 65535, 65535, 65535
   \              FFFFFFFFFFFF
   \              FFFFFFFFFFFF
   \   00000048   FFFFFFFFFFFF       DC16 65535, 65535, 65535, 65535, 65535, 65535, 65535, 65535, 65535
   \              FFFFFFFFFFFF
   \              FFFFFFFFFFFF
   \   0000005A   FFFF               DC16 65535
   \   0000005C   000000000000       DC8 0, 0, 0, 0, 0, 0, 0, 0, 0, 0, 0, 0, 0, 0, 0, 0
   \              000000000000
   \              00000000    
   \   0000006C   000000000000       DC8 0, 0, 0, 0, 0, 0, 0, 0, 0, 0, 0, 0, 0, 0, 0, 0
   \              000000000000
   \              00000000    
   \   0000007C   000000000000       DC8 0, 0, 0, 0, 0, 0, 0, 0, 0, 0, 0, 0, 0, 0, 0, 0
   \              000000000000
   \              00000000    
   \                     `?<Initializer for clockID>`:
   \   0000008C   FFFFFFFFFFFF       DC16 65535, 65535, 65535, 65535, 65535, 65535, 65535, 65535, 65535
   \              FFFFFFFFFFFF
   \              FFFFFFFFFFFF
   \   0000009E   FFFFFFFFFFFF       DC16 65535, 65535, 65535, 65535, 65535, 65535, 65535, 65535, 65535
   \              FFFFFFFFFFFF
   \              FFFFFFFFFFFF
   \   000000B0   FFFFFFFFFFFF       DC16 65535, 65535, 65535, 65535, 65535, 65535, 65535, 65535, 65535
   \              FFFFFFFFFFFF
   \              FFFFFFFFFFFF
   \   000000C2   FFFFFFFFFFFF       DC16 65535, 65535, 65535, 65535, 65535, 65535, 65535, 65535, 65535
   \              FFFFFFFFFFFF
   \              FFFFFFFFFFFF
   \   000000D4   FFFFFFFFFFFF       DC16 65535, 65535, 65535, 65535, 65535, 65535, 65535, 65535, 65535
   \              FFFFFFFFFFFF
   \              FFFFFFFFFFFF
   \   000000E6   FFFFFFFFFFFF       DC16 65535, 65535, 65535, 65535, 65535, 65535, 65535, 65535, 65535
   \              FFFFFFFFFFFF
   \              FFFFFFFFFFFF
   \   000000F8   FFFFFFFFFFFF       DC16 65535, 65535, 65535, 65535, 65535, 65535
   \              FFFFFFFFFFFF
   \   00000104   000000000000       DC8 0, 0, 0, 0, 0, 0, 0, 0, 0, 0, 0, 0, 0, 0, 0, 0
   \              000000000000
   \              00000000    
   \   00000114   000000000000       DC8 0, 0, 0, 0, 0, 0, 0, 0, 0, 0, 0, 0, 0, 0, 0, 0
   \              000000000000
   \              00000000    
   \   00000124   000000000000       DC8 0, 0, 0, 0, 0, 0, 0, 0, 0, 0, 0, 0, 0, 0, 0, 0
   \              000000000000
   \              00000000    
   \   00000134   000000000000       DC8 0, 0, 0, 0, 0, 0, 0, 0, 0, 0, 0, 0, 0, 0, 0, 0
   \              000000000000
   \              00000000    
   \   00000144   000000000000       DC8 0, 0, 0, 0, 0, 0, 0, 0
   \              0000        
   \                     `?<Initializer for SIonRedraw>`:
   \   0000014C   00000000           DC8 0, 0, 0, 0
   \                     `?<Initializer for StatusIndication>`:
   \   00000150   00000000           DC8 0, 0, 0, 0
   \                     `?<Initializer for stateImages>`:
   \   00000154   ........           DC32 `?<Constant L"\\x31\\x2e\\x70\\x6e\\x67">`
   \   00000158   ........           DC32 `?<Constant L"\\x32\\x2e\\x70\\x6e\\x67">`
   \   0000015C   ........           DC32 `?<Constant L"\\x33\\x2e\\x70\\x6e\\x67">`
   \   00000160   ........           DC32 `?<Constant L"\\x34\\x2e\\x70\\x6e\\x67">`
   \   00000164   ........           DC32 `?<Constant L"\\x35\\x2e\\x70\\x6e\\x67">`
   \   00000168   ........           DC32 `?<Constant L"\\x36\\x2e\\x70\\x6e\\x67">`
   \   0000016C   ........           DC32 `?<Constant L"\\x37\\x2e\\x70\\x6e\\x67">`
   \   00000170   ........           DC32 `?<Constant L"\\x38\\x2e\\x70\\x6e\\x67">`
   \   00000174   ........           DC32 `?<Constant L"\\x31\\x2e\\x70\\x6e\\x67">`
   \   00000178   ........           DC32 `?<Constant L"\\x31\\x2e\\x70\\x6e\\x67">`
   \   0000017C   ........           DC32 `?<Constant L"\\x39\\x2e\\x70\\x6e\\x67">`
   \   00000180   ........           DC32 `?<Constant L"\\x31\\x30\\x2e\\x70\\x6e\\x67">`
   \   00000184   ........           DC32 `?<Constant L"\\x31\\x31\\x2e\\x70\\x6e\\x67">`
   \   00000188   ........           DC32 `?<Constant L"\\x31\\x32\\x2e\\x70\\x6e\\x67">`
   \   0000018C   ........           DC32 `?<Constant L"\\x31\\x33\\x2e\\x70\\x6e\\x67">`
   \   00000190   ........           DC32 `?<Constant L"\\x31\\x34\\x2e\\x70\\x6e\\x67">`
   \   00000194   ........           DC32 `?<Constant L"\\x31\\x35\\x2e\\x70\\x6e\\x67">`
   \   00000198   ........           DC32 `?<Constant L"\\x31\\x36\\x2e\\x70\\x6e\\x67">`
   \   0000019C   ........           DC32 `?<Constant L"\\x31\\x37\\x2e\\x70\\x6e\\x67">`
   \   000001A0   ........           DC32 `?<Constant L"\\x31\\x38\\x2e\\x70\\x6e\\x67">`
   \   000001A4   ........           DC32 `?<Constant L"\\x31\\x39\\x2e\\x70\\x6e\\x67">`
   \   000001A8   ........           DC32 `?<Constant L"\\x32\\x30\\x2e\\x70\\x6e\\x67">`
   \   000001AC   ........           DC32 `?<Constant L"\\x32\\x31\\x2e\\x70\\x6e\\x67">`
   \   000001B0   ........           DC32 `?<Constant L"\\x32\\x32\\x2e\\x70\\x6e\\x67">`
   \   000001B4   ........           DC32 `?<Constant L"\\x32\\x33\\x2e\\x70\\x6e\\x67">`
   \   000001B8   ........           DC32 `?<Constant L"\\x32\\x34\\x2e\\x70\\x6e\\x67">`
   \   000001BC   ........           DC32 `?<Constant L"\\x31\\x2e\\x70\\x6e\\x67">`
   \   000001C0   ........           DC32 `?<Constant L"\\x31\\x2e\\x70\\x6e\\x67">`
   \   000001C4   ........           DC32 `?<Constant L"\\x32\\x35\\x2e\\x70\\x6e\\x67">`
   \   000001C8   ........           DC32 `?<Constant L"\\x32\\x36\\x2e\\x70\\x6e\\x67">`
   \   000001CC   ........           DC32 `?<Constant L"\\x32\\x37\\x2e\\x70\\x6e\\x67">`
   \   000001D0   ........           DC32 `?<Constant L"\\x32\\x38\\x2e\\x70\\x6e\\x67">`
   \   000001D4   ........           DC32 `?<Constant L"\\x32\\x39\\x2e\\x70\\x6e\\x67">`
   \   000001D8   ........           DC32 `?<Constant L"\\x33\\x30\\x2e\\x70\\x6e\\x67">`
   \   000001DC   ........           DC32 `?<Constant L"\\x33\\x31\\x2e\\x70\\x6e\\x67">`
   \   000001E0   ........           DC32 `?<Constant L"\\x33\\x32\\x2e\\x70\\x6e\\x67">`
   \   000001E4   ........           DC32 `?<Constant L"\\x33\\x33\\x2e\\x70\\x6e\\x67">`
   \   000001E8   ........           DC32 `?<Constant L"\\x33\\x34\\x2e\\x70\\x6e\\x67">`
   \   000001EC   ........           DC32 `?<Constant L"\\x33\\x35\\x2e\\x70\\x6e\\x67">`
   \   000001F0   ........           DC32 `?<Constant L"\\x33\\x36\\x2e\\x70\\x6e\\x67">`
   \   000001F4   ........           DC32 `?<Constant L"\\x33\\x37\\x2e\\x70\\x6e\\x67">`
   \   000001F8   ........           DC32 `?<Constant L"\\x33\\x37\\x2e\\x70\\x6e\\x67">`
   \   000001FC   ........           DC32 `?<Constant L"\\x33\\x38\\x2e\\x70\\x6e\\x67">`
   \   00000200   ........           DC32 `?<Constant L"\\x33\\x39\\x2e\\x70\\x6e\\x67">`
   \   00000204   000000000000       DC8 0, 0, 0, 0, 0, 0, 0, 0, 0, 0, 0, 0, 0, 0, 0, 0
   \              000000000000
   \              00000000    
   \   00000214   000000000000       DC8 0, 0, 0, 0, 0, 0, 0, 0, 0, 0, 0, 0, 0, 0, 0, 0
   \              000000000000
   \              00000000    
   \   00000224   000000000000       DC8 0, 0, 0, 0, 0, 0, 0, 0, 0, 0, 0, 0, 0, 0, 0, 0
   \              000000000000
   \              00000000    
   \   00000234   000000000000       DC8 0, 0, 0, 0, 0, 0, 0, 0, 0, 0, 0, 0, 0, 0, 0, 0
   \              000000000000
   \              00000000    
   \   00000244   000000000000       DC8 0, 0, 0, 0, 0, 0, 0, 0, 0, 0, 0, 0, 0, 0, 0, 0
   \              000000000000
   \              00000000    
   \   00000254   000000000000       DC8 0, 0, 0, 0, 0, 0, 0, 0, 0, 0, 0, 0, 0, 0, 0, 0
   \              000000000000
   \              00000000    
   \                     `?<Initializer for clockImages>`:
   \   00000264   ........           DC32 `?<Constant L"\\x30\\x2e\\x70\\x6e\\x67">`
   \   00000268   ........           DC32 `?<Constant L"\\x31\\x2e\\x70\\x6e\\x67">`
   \   0000026C   ........           DC32 `?<Constant L"\\x32\\x2e\\x70\\x6e\\x67">`
   \   00000270   ........           DC32 `?<Constant L"\\x33\\x2e\\x70\\x6e\\x67">`
   \   00000274   ........           DC32 `?<Constant L"\\x34\\x2e\\x70\\x6e\\x67">`
   \   00000278   ........           DC32 `?<Constant L"\\x35\\x2e\\x70\\x6e\\x67">`
   \   0000027C   ........           DC32 `?<Constant L"\\x36\\x2e\\x70\\x6e\\x67">`
   \   00000280   ........           DC32 `?<Constant L"\\x37\\x2e\\x70\\x6e\\x67">`
   \   00000284   ........           DC32 `?<Constant L"\\x38\\x2e\\x70\\x6e\\x67">`
   \   00000288   ........           DC32 `?<Constant L"\\x39\\x2e\\x70\\x6e\\x67">`
   \   0000028C   ........           DC32 `?<Constant L"\\x31\\x30\\x2e\\x70\\x6e\\x67">`
   \   00000290   ........           DC32 `?<Constant L"\\x31\\x31\\x2e\\x70\\x6e\\x67">`
   \   00000294   ........           DC32 `?<Constant L"\\x31\\x32\\x2e\\x70\\x6e\\x67">`
   \   00000298   ........           DC32 `?<Constant L"\\x31\\x33\\x2e\\x70\\x6e\\x67">`
   \   0000029C   ........           DC32 `?<Constant L"\\x31\\x34\\x2e\\x70\\x6e\\x67">`
   \   000002A0   ........           DC32 `?<Constant L"\\x31\\x35\\x2e\\x70\\x6e\\x67">`
   \   000002A4   ........           DC32 `?<Constant L"\\x31\\x36\\x2e\\x70\\x6e\\x67">`
   \   000002A8   ........           DC32 `?<Constant L"\\x31\\x37\\x2e\\x70\\x6e\\x67">`
   \   000002AC   ........           DC32 `?<Constant L"\\x31\\x38\\x2e\\x70\\x6e\\x67">`
   \   000002B0   ........           DC32 `?<Constant L"\\x31\\x39\\x2e\\x70\\x6e\\x67">`
   \   000002B4   ........           DC32 `?<Constant L"\\x32\\x30\\x2e\\x70\\x6e\\x67">`
   \   000002B8   ........           DC32 `?<Constant L"\\x32\\x31\\x2e\\x70\\x6e\\x67">`
   \   000002BC   ........           DC32 `?<Constant L"\\x32\\x32\\x2e\\x70\\x6e\\x67">`
   \   000002C0   ........           DC32 `?<Constant L"\\x32\\x33\\x2e\\x70\\x6e\\x67">`
   \   000002C4   ........           DC32 `?<Constant L"\\x32\\x34\\x2e\\x70\\x6e\\x67">`
   \   000002C8   ........           DC32 `?<Constant L"\\x32\\x35\\x2e\\x70\\x6e\\x67">`
   \   000002CC   ........           DC32 `?<Constant L"\\x32\\x36\\x2e\\x70\\x6e\\x67">`
   \   000002D0   ........           DC32 `?<Constant L"\\x32\\x37\\x2e\\x70\\x6e\\x67">`
   \   000002D4   ........           DC32 `?<Constant L"\\x32\\x38\\x2e\\x70\\x6e\\x67">`
   \   000002D8   ........           DC32 `?<Constant L"\\x32\\x39\\x2e\\x70\\x6e\\x67">`
   \   000002DC   ........           DC32 `?<Constant L"\\x33\\x30\\x2e\\x70\\x6e\\x67">`
   \   000002E0   ........           DC32 `?<Constant L"\\x33\\x31\\x2e\\x70\\x6e\\x67">`
   \   000002E4   ........           DC32 `?<Constant L"\\x33\\x32\\x2e\\x70\\x6e\\x67">`
   \   000002E8   ........           DC32 `?<Constant L"\\x33\\x33\\x2e\\x70\\x6e\\x67">`
   \   000002EC   ........           DC32 `?<Constant L"\\x33\\x34\\x2e\\x70\\x6e\\x67">`
   \   000002F0   ........           DC32 `?<Constant L"\\x33\\x35\\x2e\\x70\\x6e\\x67">`
   \   000002F4   ........           DC32 `?<Constant L"\\x33\\x36\\x2e\\x70\\x6e\\x67">`
   \   000002F8   ........           DC32 `?<Constant L"\\x33\\x37\\x2e\\x70\\x6e\\x67">`
   \   000002FC   ........           DC32 `?<Constant L"\\x33\\x38\\x2e\\x70\\x6e\\x67">`
   \   00000300   ........           DC32 `?<Constant L"\\x33\\x39\\x2e\\x70\\x6e\\x67">`
   \   00000304   ........           DC32 `?<Constant L"\\x34\\x30\\x2e\\x70\\x6e\\x67">`
   \   00000308   ........           DC32 `?<Constant L"\\x34\\x31\\x2e\\x70\\x6e\\x67">`
   \   0000030C   ........           DC32 `?<Constant L"\\x34\\x32\\x2e\\x70\\x6e\\x67">`
   \   00000310   ........           DC32 `?<Constant L"\\x34\\x33\\x2e\\x70\\x6e\\x67">`
   \   00000314   ........           DC32 `?<Constant L"\\x34\\x34\\x2e\\x70\\x6e\\x67">`
   \   00000318   ........           DC32 `?<Constant L"\\x34\\x35\\x2e\\x70\\x6e\\x67">`
   \   0000031C   ........           DC32 `?<Constant L"\\x34\\x36\\x2e\\x70\\x6e\\x67">`
   \   00000320   ........           DC32 `?<Constant L"\\x34\\x37\\x2e\\x70\\x6e\\x67">`
   \   00000324   ........           DC32 `?<Constant L"\\x34\\x38\\x2e\\x70\\x6e\\x67">`
   \   00000328   ........           DC32 `?<Constant L"\\x34\\x39\\x2e\\x70\\x6e\\x67">`
   \   0000032C   ........           DC32 `?<Constant L"\\x35\\x30\\x2e\\x70\\x6e\\x67">`
   \   00000330   ........           DC32 `?<Constant L"\\x35\\x31\\x2e\\x70\\x6e\\x67">`
   \   00000334   ........           DC32 `?<Constant L"\\x35\\x32\\x2e\\x70\\x6e\\x67">`
   \   00000338   ........           DC32 `?<Constant L"\\x35\\x33\\x2e\\x70\\x6e\\x67">`
   \   0000033C   ........           DC32 `?<Constant L"\\x35\\x34\\x2e\\x70\\x6e\\x67">`
   \   00000340   ........           DC32 `?<Constant L"\\x35\\x35\\x2e\\x70\\x6e\\x67">`
   \   00000344   ........           DC32 `?<Constant L"\\x35\\x36\\x2e\\x70\\x6e\\x67">`
   \   00000348   ........           DC32 `?<Constant L"\\x35\\x37\\x2e\\x70\\x6e\\x67">`
   \   0000034C   ........           DC32 `?<Constant L"\\x35\\x38\\x2e\\x70\\x6e\\x67">`
   \   00000350   ........           DC32 `?<Constant L"\\x35\\x39\\x2e\\x70\\x6e\\x67">`
   \   00000354   000000000000       DC8 0, 0, 0, 0, 0, 0, 0, 0, 0, 0, 0, 0, 0, 0, 0, 0
   \              000000000000
   \              00000000    
   \   00000364   000000000000       DC8 0, 0, 0, 0, 0, 0, 0, 0, 0, 0, 0, 0, 0, 0, 0, 0
   \              000000000000
   \              00000000    
   \   00000374   000000000000       DC8 0, 0, 0, 0, 0, 0, 0, 0, 0, 0, 0, 0, 0, 0, 0, 0
   \              000000000000
   \              00000000    
   \   00000384   000000000000       DC8 0, 0, 0, 0, 0, 0, 0, 0, 0, 0, 0, 0, 0, 0, 0, 0
   \              000000000000
   \              00000000    
   \   00000394   000000000000       DC8 0, 0, 0, 0, 0, 0, 0, 0, 0, 0, 0, 0, 0, 0, 0, 0
   \              000000000000
   \              00000000    
   \   000003A4   000000000000       DC8 0, 0, 0, 0, 0, 0, 0, 0, 0, 0, 0, 0, 0, 0, 0, 0
   \              000000000000
   \              00000000    
   \   000003B4   000000000000       DC8 0, 0, 0, 0, 0, 0, 0, 0, 0, 0, 0, 0, 0, 0, 0, 0
   \              000000000000
   \              00000000    
   \   000003C4   000000000000       DC8 0, 0, 0, 0, 0, 0, 0, 0, 0, 0, 0, 0, 0, 0, 0, 0
   \              000000000000
   \              00000000    
   \   000003D4   000000000000       DC8 0, 0, 0, 0, 0, 0, 0, 0, 0, 0, 0, 0, 0, 0, 0, 0
   \              000000000000
   \              00000000    
   \                     `?<Initializer for mybook>`:
   \   000003E4   00000000           DC8 0, 0, 0, 0

   \                                 In segment DATA_C, align 4, align-sorted
   \                     `?<Constant L"\\x36\\x2e\\x70\\x6e\\x67">`:
   \   00000000   36002E007000       DC8 36H, 0, 2EH, 0, 70H, 0, 6EH, 0
   \              6E00        
   \   00000008   67000000           DC8 67H, 0, 0, 0

   \                                 In segment DATA_C, align 4, align-sorted
   \                     `?<Constant L"\\x25\\x64\\x3a\\x25\\x64">`:
   \   00000000   250064003A00       DC8 25H, 0, 64H, 0, 3AH, 0, 25H, 0
   \              2500        
   \   00000008   64000000           DC8 64H, 0, 0, 0
   \   0000000C   250064003A00       DC8 25H, 0, 64H, 0, 3AH, 0, 30H, 0
   \              3000        
   \   00000014   250064000000       DC8 25H, 0, 64H, 0, 0, 0
   \   0000001A   0000               DC8 0, 0
   \   0000001C   70006D000000       DC8 70H, 0, 6DH, 0, 0, 0
   \   00000022   0000               DC8 0, 0
   \   00000024   61006D000000       DC8 61H, 0, 6DH, 0, 0, 0
   \   0000002A   0000               DC8 0, 0
   \   0000002C   250064000000       DC8 25H, 0, 64H, 0, 0, 0
   \   00000032   0000               DC8 0, 0

   \                                 In segment DATA_C, align 4, align-sorted
   \                     `?<Constant L"\\x2c\\x20">`:
   \   00000000   2C0020000000       DC8 2CH, 0, 20H, 0, 0, 0
   \   00000006   0000               DC8 0, 0
   \   00000008   200025006400       DC8 20H, 0, 25H, 0, 64H, 0, 0, 0
   \              0000        

   \                                 In segment DATA_C, align 4, align-sorted
   \                     `?<Constant "loading file">`:
   \   00000000   6C6F6164696E       DC8 "loading file"
   \              672066696C65
   \              00          
   \   0000000D   000000             DC8 0, 0, 0
   \   00000010   770065006100       DC8 77H, 0, 65H, 0, 61H, 0, 74H, 0
   \              7400        
   \   00000018   680065007200       DC8 68H, 0, 65H, 0, 72H, 0, 2EH, 0
   \              2E00        
   \   00000020   740078007400       DC8 74H, 0, 78H, 0, 74H, 0, 0, 0
   \              0000        
   \   00000028   63006F006E00       DC8 63H, 0, 6FH, 0, 6EH, 0, 64H, 0
   \              6400        
   \   00000030   690074006900       DC8 69H, 0, 74H, 0, 69H, 0, 6FH, 0
   \              6F00        
   \   00000038   6E002E007800       DC8 6EH, 0, 2EH, 0, 78H, 0, 6DH, 0
   \              6D00        
   \   00000040   6C000000           DC8 6CH, 0, 0, 0
   \   00000044   450072007200       DC8 45H, 0, 72H, 0, 72H, 0, 6FH, 0
   \              6F00        
   \   0000004C   720020006900       DC8 72H, 0, 20H, 0, 69H, 0, 6EH, 0
   \              6E00        
   \   00000054   20006C006F00       DC8 20H, 0, 6CH, 0, 6FH, 0, 63H, 0
   \              6300        
   \   0000005C   610074006900       DC8 61H, 0, 74H, 0, 69H, 0, 6FH, 0
   \              6F00        
   \   00000064   6E0021002000       DC8 6EH, 0, 21H, 0, 20H, 0, 55H, 0
   \              5500        
   \   0000006C   700064006100       DC8 70H, 0, 64H, 0, 61H, 0, 74H, 0
   \              7400        
   \   00000074   650020007900       DC8 65H, 0, 20H, 0, 79H, 0, 6FH, 0
   \              6F00        
   \   0000007C   750072002000       DC8 75H, 0, 72H, 0, 20H, 0, 66H, 0
   \              6600        
   \   00000084   69006C006500       DC8 69H, 0, 6CH, 0, 65H, 0, 20H, 0
   \              2000        
   \   0000008C   770065006100       DC8 77H, 0, 65H, 0, 61H, 0, 74H, 0
   \              7400        
   \   00000094   680065007200       DC8 68H, 0, 65H, 0, 72H, 0, 2EH, 0
   \              2E00        
   \   0000009C   740078007400       DC8 74H, 0, 78H, 0, 74H, 0, 20H, 0
   \              2000        
   \   000000A4   61006E006400       DC8 61H, 0, 6EH, 0, 64H, 0, 20H, 0
   \              2000        
   \   000000AC   720075006E00       DC8 72H, 0, 75H, 0, 6EH, 0, 20H, 0
   \              2000        
   \   000000B4   740068006500       DC8 74H, 0, 68H, 0, 65H, 0, 20H, 0
   \              2000        
   \   000000BC   65006C006600       DC8 65H, 0, 6CH, 0, 66H, 0, 20H, 0
   \              2000        
   \   000000C4   610067006100       DC8 61H, 0, 67H, 0, 61H, 0, 69H, 0
   \              6900        
   \   000000CC   6E0021000000       DC8 6EH, 0, 21H, 0, 0, 0
   \   000000D2   0000               DC8 0, 0
   \   000000D4   450072007200       DC8 45H, 0, 72H, 0, 72H, 0, 6FH, 0
   \              6F00        
   \   000000DC   720020006900       DC8 72H, 0, 20H, 0, 69H, 0, 6EH, 0
   \              6E00        
   \   000000E4   200044006100       DC8 20H, 0, 44H, 0, 61H, 0, 79H, 0
   \              7900        
   \   000000EC   200057006500       DC8 20H, 0, 57H, 0, 65H, 0, 61H, 0
   \              6100        
   \   000000F4   740068006500       DC8 74H, 0, 68H, 0, 65H, 0, 72H, 0
   \              7200        
   \   000000FC   210020005500       DC8 21H, 0, 20H, 0, 55H, 0, 70H, 0
   \              7000        
   \   00000104   640061007400       DC8 64H, 0, 61H, 0, 74H, 0, 65H, 0
   \              6500        
   \   0000010C   200079006F00       DC8 20H, 0, 79H, 0, 6FH, 0, 75H, 0
   \              7500        
   \   00000114   720020006600       DC8 72H, 0, 20H, 0, 66H, 0, 69H, 0
   \              6900        
   \   0000011C   6C0065002000       DC8 6CH, 0, 65H, 0, 20H, 0, 77H, 0
   \              7700        
   \   00000124   650061007400       DC8 65H, 0, 61H, 0, 74H, 0, 68H, 0
   \              6800        
   \   0000012C   650072002E00       DC8 65H, 0, 72H, 0, 2EH, 0, 74H, 0
   \              7400        
   \   00000134   780074002000       DC8 78H, 0, 74H, 0, 20H, 0, 61H, 0
   \              6100        
   \   0000013C   6E0064002000       DC8 6EH, 0, 64H, 0, 20H, 0, 72H, 0
   \              7200        
   \   00000144   75006E002000       DC8 75H, 0, 6EH, 0, 20H, 0, 74H, 0
   \              7400        
   \   0000014C   680065002000       DC8 68H, 0, 65H, 0, 20H, 0, 65H, 0
   \              6500        
   \   00000154   6C0066002000       DC8 6CH, 0, 66H, 0, 20H, 0, 61H, 0
   \              6100        
   \   0000015C   670061006900       DC8 67H, 0, 61H, 0, 69H, 0, 6EH, 0
   \              6E00        
   \   00000164   21000000           DC8 21H, 0, 0, 0
   \   00000168   450072007200       DC8 45H, 0, 72H, 0, 72H, 0, 6FH, 0
   \              6F00        
   \   00000170   720020006900       DC8 72H, 0, 20H, 0, 69H, 0, 6EH, 0
   \              6E00        
   \   00000178   20004E006900       DC8 20H, 0, 4EH, 0, 69H, 0, 67H, 0
   \              6700        
   \   00000180   680074002000       DC8 68H, 0, 74H, 0, 20H, 0, 57H, 0
   \              5700        
   \   00000188   650061007400       DC8 65H, 0, 61H, 0, 74H, 0, 68H, 0
   \              6800        
   \   00000190   650072002100       DC8 65H, 0, 72H, 0, 21H, 0, 20H, 0
   \              2000        
   \   00000198   550070006400       DC8 55H, 0, 70H, 0, 64H, 0, 61H, 0
   \              6100        
   \   000001A0   740065002000       DC8 74H, 0, 65H, 0, 20H, 0, 79H, 0
   \              7900        
   \   000001A8   6F0075007200       DC8 6FH, 0, 75H, 0, 72H, 0, 20H, 0
   \              2000        
   \   000001B0   660069006C00       DC8 66H, 0, 69H, 0, 6CH, 0, 65H, 0
   \              6500        
   \   000001B8   200077006500       DC8 20H, 0, 77H, 0, 65H, 0, 61H, 0
   \              6100        
   \   000001C0   740068006500       DC8 74H, 0, 68H, 0, 65H, 0, 72H, 0
   \              7200        
   \   000001C8   2E0074007800       DC8 2EH, 0, 74H, 0, 78H, 0, 74H, 0
   \              7400        
   \   000001D0   200061006E00       DC8 20H, 0, 61H, 0, 6EH, 0, 64H, 0
   \              6400        
   \   000001D8   200072007500       DC8 20H, 0, 72H, 0, 75H, 0, 6EH, 0
   \              6E00        
   \   000001E0   200074006800       DC8 20H, 0, 74H, 0, 68H, 0, 65H, 0
   \              6500        
   \   000001E8   200065006C00       DC8 20H, 0, 65H, 0, 6CH, 0, 66H, 0
   \              6600        
   \   000001F0   200061006700       DC8 20H, 0, 61H, 0, 67H, 0, 61H, 0
   \              6100        
   \   000001F8   69006E002100       DC8 69H, 0, 6EH, 0, 21H, 0, 0, 0
   \              0000        
   \   00000200   450072007200       DC8 45H, 0, 72H, 0, 72H, 0, 6FH, 0
   \              6F00        
   \   00000208   720020007700       DC8 72H, 0, 20H, 0, 77H, 0, 68H, 0
   \              6800        
   \   00000210   69006C006500       DC8 69H, 0, 6CH, 0, 65H, 0, 20H, 0
   \              2000        
   \   00000218   740072007900       DC8 74H, 0, 72H, 0, 79H, 0, 69H, 0
   \              6900        
   \   00000220   6E0067002000       DC8 6EH, 0, 67H, 0, 20H, 0, 74H, 0
   \              7400        
   \   00000228   6F0020006F00       DC8 6FH, 0, 20H, 0, 6FH, 0, 70H, 0
   \              7000        
   \   00000230   65006E002000       DC8 65H, 0, 6EH, 0, 20H, 0, 77H, 0
   \              7700        
   \   00000238   650061007400       DC8 65H, 0, 61H, 0, 74H, 0, 68H, 0
   \              6800        
   \   00000240   650072002E00       DC8 65H, 0, 72H, 0, 2EH, 0, 74H, 0
   \              7400        
   \   00000248   780074002000       DC8 78H, 0, 74H, 0, 20H, 0, 61H, 0
   \              6100        
   \   00000250   6E0064002000       DC8 6EH, 0, 64H, 0, 20H, 0, 63H, 0
   \              6300        
   \   00000258   6F006E006400       DC8 6FH, 0, 6EH, 0, 64H, 0, 69H, 0
   \              6900        
   \   00000260   740069006F00       DC8 74H, 0, 69H, 0, 6FH, 0, 6EH, 0
   \              6E00        
   \   00000268   2E0078006D00       DC8 2EH, 0, 78H, 0, 6DH, 0, 6CH, 0
   \              6C00        
   \   00000270   21000000           DC8 21H, 0, 0, 0

   \                                 In segment DATA_C, align 4, align-sorted
   \                     `?<Constant L"\\x33\\x31\\x2e\\x70\\x6e\\x67">`:
   \   00000000   330031002E00       DC8 33H, 0, 31H, 0, 2EH, 0, 70H, 0
   \              7000        
   \   00000008   6E0067000000       DC8 6EH, 0, 67H, 0, 0, 0
   \   0000000E   0000               DC8 0, 0

   \                                 In segment DATA_C, align 4, align-sorted
   \                     `?<Constant L"\\x62\\x61\\x63\\x6b\\x67\\x72\\x6f\\x75\\`:
   \   00000000   620061006300       DC8 62H, 0, 61H, 0, 63H, 0, 6BH, 0
   \              6B00        
   \   00000008   670072006F00       DC8 67H, 0, 72H, 0, 6FH, 0, 75H, 0
   \              7500        
   \   00000010   6E0064002E00       DC8 6EH, 0, 64H, 0, 2EH, 0, 70H, 0
   \              7000        
   \   00000018   6E0067000000       DC8 6EH, 0, 67H, 0, 0, 0
   \   0000001E   0000               DC8 0, 0
   \   00000020   6C006F006700       DC8 6CH, 0, 6FH, 0, 67H, 0, 6FH, 0
   \              6F00        
   \   00000028   2E0070006E00       DC8 2EH, 0, 70H, 0, 6EH, 0, 67H, 0
   \              6700        
   \   00000030   0000               DC8 0, 0
   \   00000032   0000               DC8 0, 0

   \                                 In segment DATA_C, align 4, align-sorted
   \                     `?<Constant L"\\x31\\x2e\\x70\\x6e\\x67">`:
   \   00000000   31002E007000       DC8 31H, 0, 2EH, 0, 70H, 0, 6EH, 0
   \              6E00        
   \   00000008   67000000           DC8 67H, 0, 0, 0

   \                                 In segment DATA_C, align 4, align-sorted
   \                     `?<Constant L"\\x32\\x2e\\x70\\x6e\\x67">`:
   \   00000000   32002E007000       DC8 32H, 0, 2EH, 0, 70H, 0, 6EH, 0
   \              6E00        
   \   00000008   67000000           DC8 67H, 0, 0, 0

   \                                 In segment DATA_C, align 4, align-sorted
   \                     `?<Constant L"\\x33\\x2e\\x70\\x6e\\x67">`:
   \   00000000   33002E007000       DC8 33H, 0, 2EH, 0, 70H, 0, 6EH, 0
   \              6E00        
   \   00000008   67000000           DC8 67H, 0, 0, 0

   \                                 In segment DATA_C, align 4, align-sorted
   \                     `?<Constant L"\\x34\\x2e\\x70\\x6e\\x67">`:
   \   00000000   34002E007000       DC8 34H, 0, 2EH, 0, 70H, 0, 6EH, 0
   \              6E00        
   \   00000008   67000000           DC8 67H, 0, 0, 0

   \                                 In segment DATA_C, align 4, align-sorted
   \                     `?<Constant L"\\x35\\x2e\\x70\\x6e\\x67">`:
   \   00000000   35002E007000       DC8 35H, 0, 2EH, 0, 70H, 0, 6EH, 0
   \              6E00        
   \   00000008   67000000           DC8 67H, 0, 0, 0

   \                                 In segment DATA_C, align 4, align-sorted
   \                     `?<Constant L"\\x37\\x2e\\x70\\x6e\\x67">`:
   \   00000000   37002E007000       DC8 37H, 0, 2EH, 0, 70H, 0, 6EH, 0
   \              6E00        
   \   00000008   67000000           DC8 67H, 0, 0, 0

   \                                 In segment DATA_C, align 4, align-sorted
   \                     `?<Constant L"\\x38\\x2e\\x70\\x6e\\x67">`:
   \   00000000   38002E007000       DC8 38H, 0, 2EH, 0, 70H, 0, 6EH, 0
   \              6E00        
   \   00000008   67000000           DC8 67H, 0, 0, 0

   \                                 In segment DATA_C, align 4, align-sorted
   \                     `?<Constant L"\\x39\\x2e\\x70\\x6e\\x67">`:
   \   00000000   39002E007000       DC8 39H, 0, 2EH, 0, 70H, 0, 6EH, 0
   \              6E00        
   \   00000008   67000000           DC8 67H, 0, 0, 0

   \                                 In segment DATA_C, align 4, align-sorted
   \                     `?<Constant L"\\x31\\x30\\x2e\\x70\\x6e\\x67">`:
   \   00000000   310030002E00       DC8 31H, 0, 30H, 0, 2EH, 0, 70H, 0
   \              7000        
   \   00000008   6E0067000000       DC8 6EH, 0, 67H, 0, 0, 0
   \   0000000E   0000               DC8 0, 0

   \                                 In segment DATA_C, align 4, align-sorted
   \                     `?<Constant L"\\x31\\x31\\x2e\\x70\\x6e\\x67">`:
   \   00000000   310031002E00       DC8 31H, 0, 31H, 0, 2EH, 0, 70H, 0
   \              7000        
   \   00000008   6E0067000000       DC8 6EH, 0, 67H, 0, 0, 0
   \   0000000E   0000               DC8 0, 0

   \                                 In segment DATA_C, align 4, align-sorted
   \                     `?<Constant L"\\x31\\x32\\x2e\\x70\\x6e\\x67">`:
   \   00000000   310032002E00       DC8 31H, 0, 32H, 0, 2EH, 0, 70H, 0
   \              7000        
   \   00000008   6E0067000000       DC8 6EH, 0, 67H, 0, 0, 0
   \   0000000E   0000               DC8 0, 0

   \                                 In segment DATA_C, align 4, align-sorted
   \                     `?<Constant L"\\x31\\x33\\x2e\\x70\\x6e\\x67">`:
   \   00000000   310033002E00       DC8 31H, 0, 33H, 0, 2EH, 0, 70H, 0
   \              7000        
   \   00000008   6E0067000000       DC8 6EH, 0, 67H, 0, 0, 0
   \   0000000E   0000               DC8 0, 0

   \                                 In segment DATA_C, align 4, align-sorted
   \                     `?<Constant L"\\x31\\x34\\x2e\\x70\\x6e\\x67">`:
   \   00000000   310034002E00       DC8 31H, 0, 34H, 0, 2EH, 0, 70H, 0
   \              7000        
   \   00000008   6E0067000000       DC8 6EH, 0, 67H, 0, 0, 0
   \   0000000E   0000               DC8 0, 0

   \                                 In segment DATA_C, align 4, align-sorted
   \                     `?<Constant L"\\x31\\x35\\x2e\\x70\\x6e\\x67">`:
   \   00000000   310035002E00       DC8 31H, 0, 35H, 0, 2EH, 0, 70H, 0
   \              7000        
   \   00000008   6E0067000000       DC8 6EH, 0, 67H, 0, 0, 0
   \   0000000E   0000               DC8 0, 0

   \                                 In segment DATA_C, align 4, align-sorted
   \                     `?<Constant L"\\x31\\x36\\x2e\\x70\\x6e\\x67">`:
   \   00000000   310036002E00       DC8 31H, 0, 36H, 0, 2EH, 0, 70H, 0
   \              7000        
   \   00000008   6E0067000000       DC8 6EH, 0, 67H, 0, 0, 0
   \   0000000E   0000               DC8 0, 0

   \                                 In segment DATA_C, align 4, align-sorted
   \                     `?<Constant L"\\x31\\x37\\x2e\\x70\\x6e\\x67">`:
   \   00000000   310037002E00       DC8 31H, 0, 37H, 0, 2EH, 0, 70H, 0
   \              7000        
   \   00000008   6E0067000000       DC8 6EH, 0, 67H, 0, 0, 0
   \   0000000E   0000               DC8 0, 0

   \                                 In segment DATA_C, align 4, align-sorted
   \                     `?<Constant L"\\x31\\x38\\x2e\\x70\\x6e\\x67">`:
   \   00000000   310038002E00       DC8 31H, 0, 38H, 0, 2EH, 0, 70H, 0
   \              7000        
   \   00000008   6E0067000000       DC8 6EH, 0, 67H, 0, 0, 0
   \   0000000E   0000               DC8 0, 0

   \                                 In segment DATA_C, align 4, align-sorted
   \                     `?<Constant L"\\x31\\x39\\x2e\\x70\\x6e\\x67">`:
   \   00000000   310039002E00       DC8 31H, 0, 39H, 0, 2EH, 0, 70H, 0
   \              7000        
   \   00000008   6E0067000000       DC8 6EH, 0, 67H, 0, 0, 0
   \   0000000E   0000               DC8 0, 0

   \                                 In segment DATA_C, align 4, align-sorted
   \                     `?<Constant L"\\x32\\x30\\x2e\\x70\\x6e\\x67">`:
   \   00000000   320030002E00       DC8 32H, 0, 30H, 0, 2EH, 0, 70H, 0
   \              7000        
   \   00000008   6E0067000000       DC8 6EH, 0, 67H, 0, 0, 0
   \   0000000E   0000               DC8 0, 0

   \                                 In segment DATA_C, align 4, align-sorted
   \                     `?<Constant L"\\x32\\x31\\x2e\\x70\\x6e\\x67">`:
   \   00000000   320031002E00       DC8 32H, 0, 31H, 0, 2EH, 0, 70H, 0
   \              7000        
   \   00000008   6E0067000000       DC8 6EH, 0, 67H, 0, 0, 0
   \   0000000E   0000               DC8 0, 0

   \                                 In segment DATA_C, align 4, align-sorted
   \                     `?<Constant L"\\x32\\x32\\x2e\\x70\\x6e\\x67">`:
   \   00000000   320032002E00       DC8 32H, 0, 32H, 0, 2EH, 0, 70H, 0
   \              7000        
   \   00000008   6E0067000000       DC8 6EH, 0, 67H, 0, 0, 0
   \   0000000E   0000               DC8 0, 0

   \                                 In segment DATA_C, align 4, align-sorted
   \                     `?<Constant L"\\x32\\x33\\x2e\\x70\\x6e\\x67">`:
   \   00000000   320033002E00       DC8 32H, 0, 33H, 0, 2EH, 0, 70H, 0
   \              7000        
   \   00000008   6E0067000000       DC8 6EH, 0, 67H, 0, 0, 0
   \   0000000E   0000               DC8 0, 0

   \                                 In segment DATA_C, align 4, align-sorted
   \                     `?<Constant L"\\x32\\x34\\x2e\\x70\\x6e\\x67">`:
   \   00000000   320034002E00       DC8 32H, 0, 34H, 0, 2EH, 0, 70H, 0
   \              7000        
   \   00000008   6E0067000000       DC8 6EH, 0, 67H, 0, 0, 0
   \   0000000E   0000               DC8 0, 0

   \                                 In segment DATA_C, align 4, align-sorted
   \                     `?<Constant L"\\x32\\x35\\x2e\\x70\\x6e\\x67">`:
   \   00000000   320035002E00       DC8 32H, 0, 35H, 0, 2EH, 0, 70H, 0
   \              7000        
   \   00000008   6E0067000000       DC8 6EH, 0, 67H, 0, 0, 0
   \   0000000E   0000               DC8 0, 0

   \                                 In segment DATA_C, align 4, align-sorted
   \                     `?<Constant L"\\x32\\x36\\x2e\\x70\\x6e\\x67">`:
   \   00000000   320036002E00       DC8 32H, 0, 36H, 0, 2EH, 0, 70H, 0
   \              7000        
   \   00000008   6E0067000000       DC8 6EH, 0, 67H, 0, 0, 0
   \   0000000E   0000               DC8 0, 0

   \                                 In segment DATA_C, align 4, align-sorted
   \                     `?<Constant L"\\x32\\x37\\x2e\\x70\\x6e\\x67">`:
   \   00000000   320037002E00       DC8 32H, 0, 37H, 0, 2EH, 0, 70H, 0
   \              7000        
   \   00000008   6E0067000000       DC8 6EH, 0, 67H, 0, 0, 0
   \   0000000E   0000               DC8 0, 0

   \                                 In segment DATA_C, align 4, align-sorted
   \                     `?<Constant L"\\x32\\x38\\x2e\\x70\\x6e\\x67">`:
   \   00000000   320038002E00       DC8 32H, 0, 38H, 0, 2EH, 0, 70H, 0
   \              7000        
   \   00000008   6E0067000000       DC8 6EH, 0, 67H, 0, 0, 0
   \   0000000E   0000               DC8 0, 0

   \                                 In segment DATA_C, align 4, align-sorted
   \                     `?<Constant L"\\x32\\x39\\x2e\\x70\\x6e\\x67">`:
   \   00000000   320039002E00       DC8 32H, 0, 39H, 0, 2EH, 0, 70H, 0
   \              7000        
   \   00000008   6E0067000000       DC8 6EH, 0, 67H, 0, 0, 0
   \   0000000E   0000               DC8 0, 0

   \                                 In segment DATA_C, align 4, align-sorted
   \                     `?<Constant L"\\x33\\x30\\x2e\\x70\\x6e\\x67">`:
   \   00000000   330030002E00       DC8 33H, 0, 30H, 0, 2EH, 0, 70H, 0
   \              7000        
   \   00000008   6E0067000000       DC8 6EH, 0, 67H, 0, 0, 0
   \   0000000E   0000               DC8 0, 0

   \                                 In segment DATA_C, align 4, align-sorted
   \                     `?<Constant "StandbyBook">`:
   \   00000000   5374616E6462       DC8 "StandbyBook"
   \              79426F6F6B00

   \                                 In segment DATA_C, align 4, align-sorted
   \                     `?<Constant L"\\x33\\x32\\x2e\\x70\\x6e\\x67">`:
   \   00000000   330032002E00       DC8 33H, 0, 32H, 0, 2EH, 0, 70H, 0
   \              7000        
   \   00000008   6E0067000000       DC8 6EH, 0, 67H, 0, 0, 0
   \   0000000E   0000               DC8 0, 0

   \                                 In segment DATA_C, align 4, align-sorted
   \                     `?<Constant L"\\x33\\x33\\x2e\\x70\\x6e\\x67">`:
   \   00000000   330033002E00       DC8 33H, 0, 33H, 0, 2EH, 0, 70H, 0
   \              7000        
   \   00000008   6E0067000000       DC8 6EH, 0, 67H, 0, 0, 0
   \   0000000E   0000               DC8 0, 0

   \                                 In segment DATA_C, align 4, align-sorted
   \                     `?<Constant L"\\x33\\x34\\x2e\\x70\\x6e\\x67">`:
   \   00000000   330034002E00       DC8 33H, 0, 34H, 0, 2EH, 0, 70H, 0
   \              7000        
   \   00000008   6E0067000000       DC8 6EH, 0, 67H, 0, 0, 0
   \   0000000E   0000               DC8 0, 0

   \                                 In segment DATA_C, align 4, align-sorted
   \                     `?<Constant L"\\x33\\x35\\x2e\\x70\\x6e\\x67">`:
   \   00000000   330035002E00       DC8 33H, 0, 35H, 0, 2EH, 0, 70H, 0
   \              7000        
   \   00000008   6E0067000000       DC8 6EH, 0, 67H, 0, 0, 0
   \   0000000E   0000               DC8 0, 0

   \                                 In segment DATA_C, align 4, align-sorted
   \                     `?<Constant L"\\x33\\x36\\x2e\\x70\\x6e\\x67">`:
   \   00000000   330036002E00       DC8 33H, 0, 36H, 0, 2EH, 0, 70H, 0
   \              7000        
   \   00000008   6E0067000000       DC8 6EH, 0, 67H, 0, 0, 0
   \   0000000E   0000               DC8 0, 0

   \                                 In segment DATA_C, align 4, align-sorted
   \                     `?<Constant L"\\x33\\x37\\x2e\\x70\\x6e\\x67">`:
   \   00000000   330037002E00       DC8 33H, 0, 37H, 0, 2EH, 0, 70H, 0
   \              7000        
   \   00000008   6E0067000000       DC8 6EH, 0, 67H, 0, 0, 0
   \   0000000E   0000               DC8 0, 0

   \                                 In segment DATA_C, align 4, align-sorted
   \                     `?<Constant L"\\x33\\x38\\x2e\\x70\\x6e\\x67">`:
   \   00000000   330038002E00       DC8 33H, 0, 38H, 0, 2EH, 0, 70H, 0
   \              7000        
   \   00000008   6E0067000000       DC8 6EH, 0, 67H, 0, 0, 0
   \   0000000E   0000               DC8 0, 0

   \                                 In segment DATA_C, align 4, align-sorted
   \                     `?<Constant L"\\x33\\x39\\x2e\\x70\\x6e\\x67">`:
   \   00000000   330039002E00       DC8 33H, 0, 39H, 0, 2EH, 0, 70H, 0
   \              7000        
   \   00000008   6E0067000000       DC8 6EH, 0, 67H, 0, 0, 0
   \   0000000E   0000               DC8 0, 0

   \                                 In segment DATA_C, align 4, align-sorted
   \                     `?<Constant L"\\x30\\x2e\\x70\\x6e\\x67">`:
   \   00000000   30002E007000       DC8 30H, 0, 2EH, 0, 70H, 0, 6EH, 0
   \              6E00        
   \   00000008   67000000           DC8 67H, 0, 0, 0

   \                                 In segment DATA_C, align 4, align-sorted
   \                     `?<Constant L"\\x34\\x30\\x2e\\x70\\x6e\\x67">`:
   \   00000000   340030002E00       DC8 34H, 0, 30H, 0, 2EH, 0, 70H, 0
   \              7000        
   \   00000008   6E0067000000       DC8 6EH, 0, 67H, 0, 0, 0
   \   0000000E   0000               DC8 0, 0

   \                                 In segment DATA_C, align 4, align-sorted
   \                     `?<Constant L"\\x34\\x31\\x2e\\x70\\x6e\\x67">`:
   \   00000000   340031002E00       DC8 34H, 0, 31H, 0, 2EH, 0, 70H, 0
   \              7000        
   \   00000008   6E0067000000       DC8 6EH, 0, 67H, 0, 0, 0
   \   0000000E   0000               DC8 0, 0

   \                                 In segment DATA_C, align 4, align-sorted
   \                     `?<Constant L"\\x34\\x32\\x2e\\x70\\x6e\\x67">`:
   \   00000000   340032002E00       DC8 34H, 0, 32H, 0, 2EH, 0, 70H, 0
   \              7000        
   \   00000008   6E0067000000       DC8 6EH, 0, 67H, 0, 0, 0
   \   0000000E   0000               DC8 0, 0

   \                                 In segment DATA_C, align 4, align-sorted
   \                     `?<Constant L"\\x34\\x33\\x2e\\x70\\x6e\\x67">`:
   \   00000000   340033002E00       DC8 34H, 0, 33H, 0, 2EH, 0, 70H, 0
   \              7000        
   \   00000008   6E0067000000       DC8 6EH, 0, 67H, 0, 0, 0
   \   0000000E   0000               DC8 0, 0

   \                                 In segment DATA_C, align 4, align-sorted
   \                     `?<Constant L"\\x34\\x34\\x2e\\x70\\x6e\\x67">`:
   \   00000000   340034002E00       DC8 34H, 0, 34H, 0, 2EH, 0, 70H, 0
   \              7000        
   \   00000008   6E0067000000       DC8 6EH, 0, 67H, 0, 0, 0
   \   0000000E   0000               DC8 0, 0

   \                                 In segment DATA_C, align 4, align-sorted
   \                     `?<Constant L"\\x34\\x35\\x2e\\x70\\x6e\\x67">`:
   \   00000000   340035002E00       DC8 34H, 0, 35H, 0, 2EH, 0, 70H, 0
   \              7000        
   \   00000008   6E0067000000       DC8 6EH, 0, 67H, 0, 0, 0
   \   0000000E   0000               DC8 0, 0

   \                                 In segment DATA_C, align 4, align-sorted
   \                     `?<Constant L"\\x34\\x36\\x2e\\x70\\x6e\\x67">`:
   \   00000000   340036002E00       DC8 34H, 0, 36H, 0, 2EH, 0, 70H, 0
   \              7000        
   \   00000008   6E0067000000       DC8 6EH, 0, 67H, 0, 0, 0
   \   0000000E   0000               DC8 0, 0

   \                                 In segment DATA_C, align 4, align-sorted
   \                     `?<Constant L"\\x34\\x37\\x2e\\x70\\x6e\\x67">`:
   \   00000000   340037002E00       DC8 34H, 0, 37H, 0, 2EH, 0, 70H, 0
   \              7000        
   \   00000008   6E0067000000       DC8 6EH, 0, 67H, 0, 0, 0
   \   0000000E   0000               DC8 0, 0

   \                                 In segment DATA_C, align 4, align-sorted
   \                     `?<Constant L"\\x34\\x38\\x2e\\x70\\x6e\\x67">`:
   \   00000000   340038002E00       DC8 34H, 0, 38H, 0, 2EH, 0, 70H, 0
   \              7000        
   \   00000008   6E0067000000       DC8 6EH, 0, 67H, 0, 0, 0
   \   0000000E   0000               DC8 0, 0

   \                                 In segment DATA_C, align 4, align-sorted
   \                     `?<Constant L"\\x34\\x39\\x2e\\x70\\x6e\\x67">`:
   \   00000000   340039002E00       DC8 34H, 0, 39H, 0, 2EH, 0, 70H, 0
   \              7000        
   \   00000008   6E0067000000       DC8 6EH, 0, 67H, 0, 0, 0
   \   0000000E   0000               DC8 0, 0

   \                                 In segment DATA_C, align 4, align-sorted
   \                     `?<Constant L"\\x35\\x30\\x2e\\x70\\x6e\\x67">`:
   \   00000000   350030002E00       DC8 35H, 0, 30H, 0, 2EH, 0, 70H, 0
   \              7000        
   \   00000008   6E0067000000       DC8 6EH, 0, 67H, 0, 0, 0
   \   0000000E   0000               DC8 0, 0

   \                                 In segment DATA_C, align 4, align-sorted
   \                     `?<Constant L"\\x35\\x31\\x2e\\x70\\x6e\\x67">`:
   \   00000000   350031002E00       DC8 35H, 0, 31H, 0, 2EH, 0, 70H, 0
   \              7000        
   \   00000008   6E0067000000       DC8 6EH, 0, 67H, 0, 0, 0
   \   0000000E   0000               DC8 0, 0

   \                                 In segment DATA_C, align 4, align-sorted
   \                     `?<Constant L"\\x35\\x32\\x2e\\x70\\x6e\\x67">`:
   \   00000000   350032002E00       DC8 35H, 0, 32H, 0, 2EH, 0, 70H, 0
   \              7000        
   \   00000008   6E0067000000       DC8 6EH, 0, 67H, 0, 0, 0
   \   0000000E   0000               DC8 0, 0

   \                                 In segment DATA_C, align 4, align-sorted
   \                     `?<Constant L"\\x35\\x33\\x2e\\x70\\x6e\\x67">`:
   \   00000000   350033002E00       DC8 35H, 0, 33H, 0, 2EH, 0, 70H, 0
   \              7000        
   \   00000008   6E0067000000       DC8 6EH, 0, 67H, 0, 0, 0
   \   0000000E   0000               DC8 0, 0

   \                                 In segment DATA_C, align 4, align-sorted
   \                     `?<Constant L"\\x35\\x34\\x2e\\x70\\x6e\\x67">`:
   \   00000000   350034002E00       DC8 35H, 0, 34H, 0, 2EH, 0, 70H, 0
   \              7000        
   \   00000008   6E0067000000       DC8 6EH, 0, 67H, 0, 0, 0
   \   0000000E   0000               DC8 0, 0

   \                                 In segment DATA_C, align 4, align-sorted
   \                     `?<Constant L"\\x35\\x35\\x2e\\x70\\x6e\\x67">`:
   \   00000000   350035002E00       DC8 35H, 0, 35H, 0, 2EH, 0, 70H, 0
   \              7000        
   \   00000008   6E0067000000       DC8 6EH, 0, 67H, 0, 0, 0
   \   0000000E   0000               DC8 0, 0

   \                                 In segment DATA_C, align 4, align-sorted
   \                     `?<Constant L"\\x35\\x36\\x2e\\x70\\x6e\\x67">`:
   \   00000000   350036002E00       DC8 35H, 0, 36H, 0, 2EH, 0, 70H, 0
   \              7000        
   \   00000008   6E0067000000       DC8 6EH, 0, 67H, 0, 0, 0
   \   0000000E   0000               DC8 0, 0

   \                                 In segment DATA_C, align 4, align-sorted
   \                     `?<Constant L"\\x35\\x37\\x2e\\x70\\x6e\\x67">`:
   \   00000000   350037002E00       DC8 35H, 0, 37H, 0, 2EH, 0, 70H, 0
   \              7000        
   \   00000008   6E0067000000       DC8 6EH, 0, 67H, 0, 0, 0
   \   0000000E   0000               DC8 0, 0

   \                                 In segment DATA_C, align 4, align-sorted
   \                     `?<Constant L"\\x35\\x38\\x2e\\x70\\x6e\\x67">`:
   \   00000000   350038002E00       DC8 35H, 0, 38H, 0, 2EH, 0, 70H, 0
   \              7000        
   \   00000008   6E0067000000       DC8 6EH, 0, 67H, 0, 0, 0
   \   0000000E   0000               DC8 0, 0

   \                                 In segment DATA_C, align 4, align-sorted
   \                     `?<Constant L"\\x35\\x39\\x2e\\x70\\x6e\\x67">`:
   \   00000000   350039002E00       DC8 35H, 0, 39H, 0, 2EH, 0, 70H, 0
   \              7000        
   \   00000008   6E0067000000       DC8 6EH, 0, 67H, 0, 0, 0
   \   0000000E   0000               DC8 0, 0

   Maximum stack usage in bytes:

     Function                       CSTACK
     --------                       ------
     DestroyImages()                   12
     Draw(DISP_OBJ *, int, int, int)
                                        8
     InitImages()                      16
     LPARAM::LPARAM(int)                0
     ReconfigElf(void *, BOOK *)       12
     SB_ELF_Killed(void *, BOOK *)     20
     Send_REDRAW_RELEASE()              8
     beginFile()                       32
     drawClock(int, int)               60
     drawOnStby(wchar_t *, int, int, int, int, int)
                                       76
     drawStdby(wchar_t *, int, int, int, int, int, int, int)
                                       60
     drawWeatherContents()             28
     drawWeatherInfo(MyBook *)         12
     errorInFile(wchar_t *)            16
     finalDraw(wchar_t *, wchar_t *, int, int)
                                       52
     ifDrawImage(bool, int, int, wchar_t const &)
                                       24
     ifDrawNoMask(bool, wchar_t *, int, int, int, int, unsigned int)
                                       20
     makeDateMask()                    24
     onCloseBEBook(BOOK *)              8
     onfTimer(u16, LPARAM)             12


   Segment part sizes:

     Function/Label                 Bytes
     --------------                 -----
     LPARAM::LPARAM(int)               8
     IID_IFontManager                 16
     CID_CFontManager                 16
     IID_ITextRenderingManager        16
     CID_CTextRenderingManager        16
     IID_IImageManager                16
     CID_CImageManager                16
     IID_IMetaData                    16
     CID_CMetaData                    16
     IID_IIndicationDeviceManager     16
     CID_CIndicationDeviceManager     16
     statesID                       1000
     Send_REDRAW_RELEASE()            80
     ReconfigElf(void *, BOOK *)     112
     drawOnStby(wchar_t *, int, int, int, int, int)
                                     400
     ifDrawImage(bool, int, int, wchar_t const &)
                                      76
     Draw(DISP_OBJ *, int, int, int)
                                     124
     ifDrawNoMask(bool, wchar_t *, int, int, int, int, unsigned int)
                                      60
     drawStdby(wchar_t *, int, int, int, int, int, int, int)
                                     144
     drawClock(int, int)             724
     finalDraw(wchar_t *, wchar_t *, int, int)
                                     556
     onfTimer(u16, LPARAM)           100
     makeDateMask()                  268
     drawWeatherContents()           356
     errorInFile(wchar_t *)           96
     beginFile()                     392
     SB_ELF_Killed(void *, BOOK *)   148
     InitImages()                    144
     DestroyImages()                  68
     drawWeatherInfo(MyBook *)       132
     onCloseBEBook(BOOK *)           108
     ??DataTable5                      4
     ??DataTable13                     4
     ??DataTable14                     4
     ??DataTable18                     4
     ??DataTable19                     4
     ??DataTable21                     4
     ??DataTable22                     4
     ??DataTable24                     4
     ??DataTable25                     4
     ??DataTable26                     4
     ?<Initializer for IID_IFontManager>
                                      16
     ?<Initializer for CID_CFontManager>
                                      16
     ?<Initializer for IID_ITextRenderingManager>
                                      16
     ?<Initializer for CID_CTextRenderingManager>
                                      16
     ?<Initializer for IID_IImageManager>
                                      16
     ?<Initializer for CID_CImageManager>
                                      16
     ?<Initializer for IID_IMetaData>
                                      16
     ?<Initializer for CID_CMetaData>
                                      16
     ?<Initializer for IID_IIndicationDeviceManager
                                      16
     ?<Initializer for CID_CIndicationDeviceManager
                                      16
     ?<Initializer for statesID>    1000
     ?<Constant L"\x36\x2e\x70\x6e\x67">
                                      12
     ?<Constant L"\x25\x64\x3a\x25\x64">
                                      52
     ?<Constant L"\x2c\x20">          16
     ?<Constant "loading file">      628
     ?<Constant L"\x33\x31\x2e\x70\x6e\x67">
                                      16
     ?<Constant L"\x62\x61\x63\x6b\x67\x72\x6f\x75\
                                      52
     ?<Constant L"\x31\x2e\x70\x6e\x67">
                                      12
     ?<Constant L"\x32\x2e\x70\x6e\x67">
                                      12
     ?<Constant L"\x33\x2e\x70\x6e\x67">
                                      12
     ?<Constant L"\x34\x2e\x70\x6e\x67">
                                      12
     ?<Constant L"\x35\x2e\x70\x6e\x67">
                                      12
     ?<Constant L"\x37\x2e\x70\x6e\x67">
                                      12
     ?<Constant L"\x38\x2e\x70\x6e\x67">
                                      12
     ?<Constant L"\x39\x2e\x70\x6e\x67">
                                      12
     ?<Constant L"\x31\x30\x2e\x70\x6e\x67">
                                      16
     ?<Constant L"\x31\x31\x2e\x70\x6e\x67">
                                      16
     ?<Constant L"\x31\x32\x2e\x70\x6e\x67">
                                      16
     ?<Constant L"\x31\x33\x2e\x70\x6e\x67">
                                      16
     ?<Constant L"\x31\x34\x2e\x70\x6e\x67">
                                      16
     ?<Constant L"\x31\x35\x2e\x70\x6e\x67">
                                      16
     ?<Constant L"\x31\x36\x2e\x70\x6e\x67">
                                      16
     ?<Constant L"\x31\x37\x2e\x70\x6e\x67">
                                      16
     ?<Constant L"\x31\x38\x2e\x70\x6e\x67">
                                      16
     ?<Constant L"\x31\x39\x2e\x70\x6e\x67">
                                      16
     ?<Constant L"\x32\x30\x2e\x70\x6e\x67">
                                      16
     ?<Constant L"\x32\x31\x2e\x70\x6e\x67">
                                      16
     ?<Constant L"\x32\x32\x2e\x70\x6e\x67">
                                      16
     ?<Constant L"\x32\x33\x2e\x70\x6e\x67">
                                      16
     ?<Constant L"\x32\x34\x2e\x70\x6e\x67">
                                      16
     ?<Constant L"\x32\x35\x2e\x70\x6e\x67">
                                      16
     ?<Constant L"\x32\x36\x2e\x70\x6e\x67">
                                      16
     ?<Constant L"\x32\x37\x2e\x70\x6e\x67">
                                      16
     ?<Constant L"\x32\x38\x2e\x70\x6e\x67">
                                      16
     ?<Constant L"\x32\x39\x2e\x70\x6e\x67">
                                      16
     ?<Constant L"\x33\x30\x2e\x70\x6e\x67">
                                      16
     ?<Constant "StandbyBook">        12
     ?<Constant L"\x33\x32\x2e\x70\x6e\x67">
                                      16
     ?<Constant L"\x33\x33\x2e\x70\x6e\x67">
                                      16
     ?<Constant L"\x33\x34\x2e\x70\x6e\x67">
                                      16
     ?<Constant L"\x33\x35\x2e\x70\x6e\x67">
                                      16
     ?<Constant L"\x33\x36\x2e\x70\x6e\x67">
                                      16
     ?<Constant L"\x33\x37\x2e\x70\x6e\x67">
                                      16
     ?<Constant L"\x33\x38\x2e\x70\x6e\x67">
                                      16
     ?<Constant L"\x33\x39\x2e\x70\x6e\x67">
                                      16
     ?<Constant L"\x30\x2e\x70\x6e\x67">
                                      12
     ?<Constant L"\x34\x30\x2e\x70\x6e\x67">
                                      16
     ?<Constant L"\x34\x31\x2e\x70\x6e\x67">
                                      16
     ?<Constant L"\x34\x32\x2e\x70\x6e\x67">
                                      16
     ?<Constant L"\x34\x33\x2e\x70\x6e\x67">
                                      16
     ?<Constant L"\x34\x34\x2e\x70\x6e\x67">
                                      16
     ?<Constant L"\x34\x35\x2e\x70\x6e\x67">
                                      16
     ?<Constant L"\x34\x36\x2e\x70\x6e\x67">
                                      16
     ?<Constant L"\x34\x37\x2e\x70\x6e\x67">
                                      16
     ?<Constant L"\x34\x38\x2e\x70\x6e\x67">
                                      16
     ?<Constant L"\x34\x39\x2e\x70\x6e\x67">
                                      16
     ?<Constant L"\x35\x30\x2e\x70\x6e\x67">
                                      16
     ?<Constant L"\x35\x31\x2e\x70\x6e\x67">
                                      16
     ?<Constant L"\x35\x32\x2e\x70\x6e\x67">
                                      16
     ?<Constant L"\x35\x33\x2e\x70\x6e\x67">
                                      16
     ?<Constant L"\x35\x34\x2e\x70\x6e\x67">
                                      16
     ?<Constant L"\x35\x35\x2e\x70\x6e\x67">
                                      16
     ?<Constant L"\x35\x36\x2e\x70\x6e\x67">
                                      16
     ?<Constant L"\x35\x37\x2e\x70\x6e\x67">
                                      16
     ?<Constant L"\x35\x38\x2e\x70\x6e\x67">
                                      16
     ?<Constant L"\x35\x39\x2e\x70\x6e\x67">
                                      16
      Others                         568

 
 4 692 bytes in segment CODE
 1 680 bytes in segment DATA_C
 1 160 bytes in segment DATA_I
 1 160 bytes in segment DATA_ID
    12 bytes in segment INITTAB
 
 4 128 bytes of CODE  memory (+ 576 bytes shared)
 2 840 bytes of CONST memory
 1 160 bytes of DATA  memory

Errors: none
Warnings: none
