##############################################################################
#                                                                            #
# IAR ARM ANSI C/C++ Compiler V4.42A/W32 EVALUATION    07/Jun/2011  15:55:21 #
# Copyright 1999-2005 IAR Systems. All rights reserved.                      #
#                                                                            #
#    Cpu mode        =  interwork                                            #
#    Endian          =  little                                               #
#    Stack alignment =  4                                                    #
#    Source file     =  F:\Phone\Making elf patches\Elf's\GlassUIWidget\bcfg #
#                       \conf_loader.cpp                                     #
#    Command line    =  "F:\Phone\Making elf patches\Elf's\GlassUIWidget\bcf #
#                       g\conf_loader.cpp" -lC "F:\Phone\Making elf          #
#                       patches\Elf's\GlassUIWidget\Release\List\" -lA       #
#                       "F:\Phone\Making elf patches\Elf's\GlassUIWidget\Rel #
#                       ease\List\" -o "F:\Phone\Making elf                  #
#                       patches\Elf's\GlassUIWidget\Release\Obj\" -s9        #
#                       --no_unroll --no_inline --cpu_mode arm --endian      #
#                       little --cpu ARM926EJ-S --stack_align 4 --interwork  #
#                       -e --enable_multibytes --fpu None --eec++            #
#                       --dlib_config "F:\Phone\Making elf                   #
#                       patches\IAR\Embedded Workbench 4.0                   #
#                       Evaluation\ARM\LIB\dl5tpainl8n.h" -I                 #
#                       "F:\Phone\Making elf patches\IAR\Embedded Workbench  #
#                       4.0 Evaluation\ARM\INC\"                             #
#    List file       =  F:\Phone\Making elf patches\Elf's\GlassUIWidget\Rele #
#                       ase\List\conf_loader.lst                             #
#    Object file     =  F:\Phone\Making elf patches\Elf's\GlassUIWidget\Rele #
#                       ase\Obj\conf_loader.r79                              #
#                                                                            #
#                                                                            #
##############################################################################

F:\Phone\Making elf patches\Elf's\GlassUIWidget\bcfg\conf_loader.cpp
      1          #include "..\..\include\Lib_Clara.h"
      2          #include "..\..\include\Dir.h"
      3          #include "..\..\include\cfg_items.h"
      4          #include "conf_loader.h"
      5          
      6          

   \                                 In segment DATA_I, align 4, align-sorted
      7          const wchar_t *successed_config_path=L"";
   \                     successed_config_path:
   \   00000000                      DS8 4
   \   00000004                      REQUIRE `?<Initializer for successed_config_path>`
      8          const wchar_t *successed_config_name=L"";
   \                     successed_config_name:
   \   00000004                      DS8 4
   \   00000008                      REQUIRE `?<Initializer for successed_config_name>`
      9          
     10          #pragma segment="CONFIG_C"

   \                                 In segment CODE, align 4, keep-with-next
     11          int LoadConfigData(const wchar_t *path,const wchar_t *fname)
     12          {
   \                     ??LoadConfigData:
   \   00000000   F04F2DE9           PUSH     {R4-R11,LR}
     13            int f;
     14            char *buf;
     15            int result=-1;
     16            void *cfg;
     17            FSTAT _fstat;
     18            unsigned int rlen;
     19          
     20            cfg=(char *)__segment_begin("CONFIG_C");
     21          
     22            unsigned int len=(char *)__segment_end("CONFIG_C")-(char *)__segment_begin("CONFIG_C");
   \   00000004   0C719FE5           LDR      R7,??LoadConfigData_1  ;; SFB(CONFIG_C)
   \   00000008   0040A0E1           MOV      R4,R0
   \   0000000C   08019FE5           LDR      R0,??LoadConfigData_1+0x4  ;; SFE(CONFIG_C)
   \   00000010   1CD04DE2           SUB      SP,SP,#+28
   \   00000014   0150A0E1           MOV      R5,R1
   \   00000018   0060E0E3           MVN      R6,#+0
   \   0000001C   078040E0           SUB      R8,R0,R7
     23          
     24            if ((buf=new char[len]))
   \   00000020   0800A0E1           MOV      R0,R8
   \   00000024   ........           _BLF     `??operator new[]`,`??operator new[]??rA`
   \   00000028   0090B0E1           MOVS     R9,R0
   \   0000002C   3600000A           BEQ      ??LoadConfigData_2
     25            {
     26              if (fstat(path,fname,&_fstat)!=-1)
   \   00000030   0D20A0E1           MOV      R2,SP
   \   00000034   0510A0E1           MOV      R1,R5
   \   00000038   0400A0E1           MOV      R0,R4
   \   0000003C   1C0100EF           SWI      +284
   \   00000040   010070E3           CMN      R0,#+1
   \   00000044   1900000A           BEQ      ??LoadConfigData_3
     27              {
     28                if ((f=_fopen(path,fname,FSX_O_RDONLY,FSX_S_IREAD|FSX_S_IWRITE,0))>=0)
   \   00000048   0000A0E3           MOV      R0,#+0
   \   0000004C   01002DE9           PUSH     {R0}
   \   00000050   603FA0E3           MOV      R3,#+384
   \   00000054   0120A0E3           MOV      R2,#+1
   \   00000058   0510A0E1           MOV      R1,R5
   \   0000005C   0400A0E1           MOV      R0,R4
   \   00000060   160100EF           SWI      +278
   \   00000064   00B0B0E1           MOVS     R11,R0
   \   00000068   04D08DE2           ADD      SP,SP,#+4
   \   0000006C   2000004A           BMI      ??LoadConfigData_4
     29                {
     30                  rlen=fread(f,buf,len);
   \   00000070   0820A0E1           MOV      R2,R8
   \   00000074   0910A0E1           MOV      R1,R9
   \   00000078   180100EF           SWI      +280
   \   0000007C   00A0A0E1           MOV      R10,R0
     31                  fclose(f);
   \   00000080   0B00A0E1           MOV      R0,R11
   \   00000084   170100EF           SWI      +279
     32                  if (rlen!=_fstat.fsize || rlen!=len)  goto L_SAVENEWCFG;
   \   00000088   08009DE5           LDR      R0,[SP, #+8]
   \   0000008C   00005AE1           CMP      R10,R0
   \   00000090   08005A01           CMPEQ    R10,R8
   \   00000094   0500001A           BNE      ??LoadConfigData_3
     33                  memcpy(cfg,buf,len);
   \   00000098   0820A0E1           MOV      R2,R8
   \   0000009C   0910A0E1           MOV      R1,R9
   \   000000A0   0700A0E1           MOV      R0,R7
   \   000000A4   130100EF           SWI      +275
     34                  result=0;
   \   000000A8   0060A0E3           MOV      R6,#+0
   \   000000AC   100000EA           B        ??LoadConfigData_4
     35                }
     36              }
     37              else
     38              {
     39              L_SAVENEWCFG:
     40                if ((f=_fopen(path,fname,FSX_O_RDWR|FSX_O_TRUNC,FSX_S_IREAD|FSX_S_IWRITE,0))>=0)
   \                     ??LoadConfigData_3:
   \   000000B0   0000A0E3           MOV      R0,#+0
   \   000000B4   01002DE9           PUSH     {R0}
   \   000000B8   603FA0E3           MOV      R3,#+384
   \   000000BC   812FA0E3           MOV      R2,#+516
   \   000000C0   0510A0E1           MOV      R1,R5
   \   000000C4   0400A0E1           MOV      R0,R4
   \   000000C8   160100EF           SWI      +278
   \   000000CC   00B0B0E1           MOVS     R11,R0
   \   000000D0   04D08DE2           ADD      SP,SP,#+4
   \   000000D4   0600004A           BMI      ??LoadConfigData_4
     41                {
     42                  if (fwrite(f,cfg,len)==len) result=0;
   \   000000D8   0820A0E1           MOV      R2,R8
   \   000000DC   0710A0E1           MOV      R1,R7
   \   000000E0   190100EF           SWI      +281
   \   000000E4   080050E1           CMP      R0,R8
   \   000000E8   0060A003           MOVEQ    R6,#+0
     43                  fclose(f);
   \   000000EC   0B00A0E1           MOV      R0,R11
   \   000000F0   170100EF           SWI      +279
     44                }
     45              }
     46              delete buf;
   \                     ??LoadConfigData_4:
   \   000000F4   0900A0E1           MOV      R0,R9
   \   000000F8   ........           _BLF     `??operator delete`,`??operator delete??rA`
     47            }
     48            if (result>=0)
   \   000000FC   000056E3           CMP      R6,#+0
     49            {
     50              successed_config_path=path;
   \   00000100   18009F55           LDRPL    R0,??LoadConfigData_1+0x8  ;; successed_config_path
   \   00000104   00408055           STRPL    R4,[R0, #+0]
     51              successed_config_name=fname;
   \   00000108   04508055           STRPL    R5,[R0, #+4]
     52            }
     53            return(result);
   \                     ??LoadConfigData_2:
   \   0000010C   0600A0E1           MOV      R0,R6
   \   00000110   1CD08DE2           ADD      SP,SP,#+28
   \   00000114   F08FBDE8           POP      {R4-R11,PC}      ;; return
   \                     ??LoadConfigData_1:
   \   00000118   ........           DC32     SFB(CONFIG_C)
   \   0000011C   ........           DC32     SFE(CONFIG_C)
   \   00000120   ........           DC32     successed_config_path
     54          }
     55          
     56          

   \                                 In segment CODE, align 4, keep-with-next
     57          void InitConfig(void)
     58          {
   \                     ??InitConfig:
   \   00000000   10402DE9           PUSH     {R4,LR}
     59            if (LoadConfigData(GetDir(DIR_ELFS_CONFIG|MEM_EXTERNAL),L"GlassUIWidget.bcfg")<0)
   \   00000004   28409FE5           LDR      R4,??InitConfig_1  ;; `?<Constant L"\\x47\\x6c\\x61\\x73\\x73\\x55\\x49\\x57\\`
   \   00000008   1400A0E3           MOV      R0,#+20
   \   0000000C   050100EF           SWI      +261
   \   00000010   0410A0E1           MOV      R1,R4
   \   00000014   ........           BL       ??LoadConfigData
   \   00000018   000050E3           CMP      R0,#+0
   \   0000001C   1080BD58           POPPL    {R4,PC}
     60            {
     61              LoadConfigData(GetDir(DIR_ELFS_CONFIG|MEM_INTERNAL),L"GlassUIWidget.bcfg");
   \   00000020   1500A0E3           MOV      R0,#+21
   \   00000024   050100EF           SWI      +261
   \   00000028   0410A0E1           MOV      R1,R4
   \   0000002C   ........           BL       ??LoadConfigData
     62            }
     63          }
   \   00000030   1080BDE8           POP      {R4,PC}          ;; return
   \                     ??InitConfig_1:
   \   00000034   ........           DC32     `?<Constant L"\\x47\\x6c\\x61\\x73\\x73\\x55\\x49\\x57\\`

   \                                 In segment DATA_ID, align 4, align-sorted
   \                     `?<Initializer for successed_config_path>`:
   \   00000000   ........           DC32 `?<Constant L"">`
   \                     `?<Initializer for successed_config_name>`:
   \   00000004   ........           DC32 `?<Constant L"">`

   \                                 In segment CONFIG_C, align 1

   \                                 In segment DATA_C, align 2, align-sorted
   \                     `?<Constant L"">`:
   \   00000000   0000               DC8 0, 0

   \                                 In segment DATA_C, align 4, align-sorted
   \                     `?<Constant L"\\x47\\x6c\\x61\\x73\\x73\\x55\\x49\\x57\\`:
   \   00000000   47006C006100       DC8 47H, 0, 6CH, 0, 61H, 0, 73H, 0
   \              7300        
   \   00000008   730055004900       DC8 73H, 0, 55H, 0, 49H, 0, 57H, 0
   \              5700        
   \   00000010   690064006700       DC8 69H, 0, 64H, 0, 67H, 0, 65H, 0
   \              6500        
   \   00000018   74002E006200       DC8 74H, 0, 2EH, 0, 62H, 0, 63H, 0
   \              6300        
   \   00000020   660067000000       DC8 66H, 0, 67H, 0, 0, 0
   \   00000026   0000               DC8 0, 0

   Maximum stack usage in bytes:

     Function                       CSTACK
     --------                       ------
     InitConfig()                       8
     LoadConfigData(wchar_t const *, wchar_t const *)
                                       68


   Segment part sizes:

     Function/Label                 Bytes
     --------------                 -----
     successed_config_path             8
     LoadConfigData(wchar_t const *, wchar_t const *)
                                     292
     InitConfig()                     56
     ?<Initializer for successed_config_path>
                                       8
     ?<Constant L"">                   2
     ?<Constant L"\x47\x6c\x61\x73\x73\x55\x49\x57\
                                      40
      Others                          44

 
 380 bytes in segment CODE
  42 bytes in segment DATA_C
   8 bytes in segment DATA_I
   8 bytes in segment DATA_ID
  12 bytes in segment INITTAB
 
 348 bytes of CODE  memory (+ 44 bytes shared)
  50 bytes of CONST memory
   8 bytes of DATA  memory

Errors: none
Warnings: none
