//////////////////////////////////////////////////////////////////////////////
//                                                                           /
// IAR ARM ANSI C/C++ Compiler V4.42A/W32 EVALUATION   20/May/2011  21:34:11 /
// Copyright 1999-2005 IAR Systems. All rights reserved.                     /
//                                                                           /
//    Cpu mode        =  interwork                                           /
//    Endian          =  little                                              /
//    Stack alignment =  4                                                   /
//    Source file     =  C:\Users\Faby\Desktop\StudyElf\deleaker\mem2.cpp    /
//    Command line    =  C:\Users\Faby\Desktop\StudyElf\deleaker\mem2.cpp    /
//                       -lC C:\Users\Faby\Desktop\StudyElf\GlassUIWidget\Re /
//                       lease\List\ -lA C:\Users\Faby\Desktop\StudyElf\Glas /
//                       sUIWidget\Release\List\ -o                          /
//                       C:\Users\Faby\Desktop\StudyElf\GlassUIWidget\Releas /
//                       e\Obj\ -s9 --no_unroll --no_inline --cpu_mode arm   /
//                       --endian little --cpu ARM926EJ-S --stack_align 4    /
//                       --interwork -e --enable_multibytes --fpu None       /
//                       --eec++ --dlib_config "C:\Users\Faby\EmbebedIAR\Emb /
//                       edded Workbench 4.0 Evaluation\ARM\LIB\dl5tpainl8n. /
//                       h" --preinclude C:\Users\Faby\Desktop\StudyElf\dele /
//                       aker\mem2.h -I "C:\Users\Faby\EmbebedIAR\Embedded   /
//                       Workbench 4.0 Evaluation\ARM\INC\"                  /
//    List file       =  C:\Users\Faby\Desktop\StudyElf\GlassUIWidget\Releas /
//                       e\List\mem2.s79                                     /
//                                                                           /
//                                                                           /
//////////////////////////////////////////////////////////////////////////////

        NAME mem2

        RTMODEL "StackAlign4", "USED"
        RTMODEL "__cpu_mode", "__pcs__interwork"
        RTMODEL "__data_model", "absolute"
        RTMODEL "__endian", "little"
        RTMODEL "__rt_version", "6"

        RSEG CSTACK:DATA:NOROOT(2)

        ERROR
//NOTE: This module defines or uses C++ features that are not
//      accessible from assembler code. Assembling this file will
//      not produce an equivalent object file to the one produced
//      by the C++ compiler.

        PUBWEAK `?*?DATA_ID`
??DataTable0 EQU 0
??DataTable1 EQU 0
??DataTable10 EQU 0
??DataTable2 EQU 0
??DataTable4 EQU 0
??DataTable5 EQU 0
??DataTable7 EQU 0
??DataTable8 EQU 0
??DataTable9 EQU 0
        PUBLIC ??__deleaker_AllocDirHandle
        FUNCTION ??__deleaker_AllocDirHandle,0203H
        LOCFRAME CSTACK, 16, STACK
        MULTWEAK ??__deleaker_AllocDirHandle??rT
        PUBLIC ??__deleaker_BookObj_KillBook
        FUNCTION ??__deleaker_BookObj_KillBook,0203H
        LOCFRAME CSTACK, 8, STACK
        MULTWEAK ??__deleaker_BookObj_KillBook??rT
        PUBLIC ??__deleaker_BookObj_SoftKeys_SetText
        FUNCTION ??__deleaker_BookObj_SoftKeys_SetText,0203H
        LOCFRAME CSTACK, 24, STACK
        MULTWEAK ??__deleaker_BookObj_SoftKeys_SetText??rT
        PUBLIC ??__deleaker_CreateBook
        FUNCTION ??__deleaker_CreateBook,0203H
        LOCFRAME CSTACK, 44, STACK
        MULTWEAK ??__deleaker_CreateBook??rT
        PUBLIC ??__deleaker_CreateListMenu
        FUNCTION ??__deleaker_CreateListMenu,0203H
        LOCFRAME CSTACK, 16, STACK
        MULTWEAK ??__deleaker_CreateListMenu??rT
        PUBLIC ??__deleaker_CreateMonitorFeedback
        FUNCTION ??__deleaker_CreateMonitorFeedback,0203H
        LOCFRAME CSTACK, 20, STACK
        MULTWEAK ??__deleaker_CreateMonitorFeedback??rT
        PUBLIC ??__deleaker_CreateNOfMany
        FUNCTION ??__deleaker_CreateNOfMany,0203H
        LOCFRAME CSTACK, 16, STACK
        MULTWEAK ??__deleaker_CreateNOfMany??rT
        PUBLIC ??__deleaker_CreateOneOfMany
        FUNCTION ??__deleaker_CreateOneOfMany,0203H
        LOCFRAME CSTACK, 16, STACK
        MULTWEAK ??__deleaker_CreateOneOfMany??rT
        PUBLIC ??__deleaker_CreateProgressBar
        FUNCTION ??__deleaker_CreateProgressBar,0203H
        LOCFRAME CSTACK, 16, STACK
        MULTWEAK ??__deleaker_CreateProgressBar??rT
        PUBLIC ??__deleaker_CreateTabMenuBar
        FUNCTION ??__deleaker_CreateTabMenuBar,0203H
        LOCFRAME CSTACK, 16, STACK
        MULTWEAK ??__deleaker_CreateTabMenuBar??rT
        PUBLIC ??__deleaker_CreateURI
        FUNCTION ??__deleaker_CreateURI,0203H
        LOCFRAME CSTACK, 16, STACK
        MULTWEAK ??__deleaker_CreateURI??rT
        PUBLIC ??__deleaker_DataBrowserDesc_Create
        FUNCTION ??__deleaker_DataBrowserDesc_Create,0203H
        LOCFRAME CSTACK, 16, STACK
        MULTWEAK ??__deleaker_DataBrowserDesc_Create??rT
        PUBLIC ??__deleaker_DataBrowserDesc_Destroy
        FUNCTION ??__deleaker_DataBrowserDesc_Destroy,0203H
        LOCFRAME CSTACK, 8, STACK
        MULTWEAK ??__deleaker_DataBrowserDesc_Destroy??rT
        PUBLIC ??__deleaker_DataBrowserDesc_SetHeaderText
        FUNCTION ??__deleaker_DataBrowserDesc_SetHeaderText,0203H
        LOCFRAME CSTACK, 20, STACK
        MULTWEAK ??__deleaker_DataBrowserDesc_SetHeaderText??rT
        PUBLIC ??__deleaker_DataBrowserDesc_SetOKSoftKeyText
        FUNCTION ??__deleaker_DataBrowserDesc_SetOKSoftKeyText,0203H
        LOCFRAME CSTACK, 20, STACK
        MULTWEAK ??__deleaker_DataBrowserDesc_SetOKSoftKeyText??
        PUBLIC ??__deleaker_Date2ID
        FUNCTION ??__deleaker_Date2ID,0203H
        LOCFRAME CSTACK, 16, STACK
        MULTWEAK ??__deleaker_Date2ID??rT
        PUBLIC ??__deleaker_DestroyDirHandle
        FUNCTION ??__deleaker_DestroyDirHandle,0203H
        LOCFRAME CSTACK, 8, STACK
        MULTWEAK ??__deleaker_DestroyDirHandle??rT
        PUBLIC ??__deleaker_DispObject_SetBackgroundImage
        FUNCTION ??__deleaker_DispObject_SetBackgroundImage,0203H
        LOCFRAME CSTACK, 20, STACK
        MULTWEAK ??__deleaker_DispObject_SetBackgroundImage??rT
        PUBLIC ??__deleaker_DispObject_SetCursorImage
        FUNCTION ??__deleaker_DispObject_SetCursorImage,0203H
        LOCFRAME CSTACK, 20, STACK
        MULTWEAK ??__deleaker_DispObject_SetCursorImage??rT
        MULTWEAK ??__deleaker_DispObject_SetTitleBackgroundImage
        PUBLIC ??__deleaker_DispObject_SetTitleBackgroundImage_1
        FUNCTION ??__deleaker_DispObject_SetTitleBackgroundImage_1,0203H
        LOCFRAME CSTACK, 20, STACK
        PUBLIC ??__deleaker_DispObject_SetTitleText
        FUNCTION ??__deleaker_DispObject_SetTitleText,0203H
        LOCFRAME CSTACK, 20, STACK
        MULTWEAK ??__deleaker_DispObject_SetTitleText??rT
        PUBLIC ??__deleaker_FILEITEM_Create
        FUNCTION ??__deleaker_FILEITEM_Create,0203H
        LOCFRAME CSTACK, 16, STACK
        MULTWEAK ??__deleaker_FILEITEM_Create??rT
        PUBLIC ??__deleaker_FILEITEM_CreateCopy
        FUNCTION ??__deleaker_FILEITEM_CreateCopy,0203H
        LOCFRAME CSTACK, 16, STACK
        MULTWEAK ??__deleaker_FILEITEM_CreateCopy??rT
        PUBLIC ??__deleaker_FILEITEM_Destroy
        FUNCTION ??__deleaker_FILEITEM_Destroy,0203H
        LOCFRAME CSTACK, 8, STACK
        MULTWEAK ??__deleaker_FILEITEM_Destroy??rT
        PUBLIC ??__deleaker_Feedback_SetText
        FUNCTION ??__deleaker_Feedback_SetText,0203H
        LOCFRAME CSTACK, 20, STACK
        MULTWEAK ??__deleaker_Feedback_SetText??rT
        PUBLIC ??__deleaker_Feedback_SetTextExtended
        FUNCTION ??__deleaker_Feedback_SetTextExtended,0203H
        LOCFRAME CSTACK, 24, STACK
        MULTWEAK ??__deleaker_Feedback_SetTextExtended??rT
        PUBLIC ??__deleaker_FreeBook
        FUNCTION ??__deleaker_FreeBook,0203H
        LOCFRAME CSTACK, 8, STACK
        MULTWEAK ??__deleaker_FreeBook??rT
        PUBLIC ??__deleaker_GC_CreateMemoryGC
        FUNCTION ??__deleaker_GC_CreateMemoryGC,0203H
        LOCFRAME CSTACK, 24, STACK
        MULTWEAK ??__deleaker_GC_CreateMemoryGC??rT
        PUBLIC ??__deleaker_GC_FreeGC
        FUNCTION ??__deleaker_GC_FreeGC,0203H
        LOCFRAME CSTACK, 8, STACK
        MULTWEAK ??__deleaker_GC_FreeGC??rT
        PUBLIC ??__deleaker_GUIInput_SetIcon
        FUNCTION ??__deleaker_GUIInput_SetIcon,0203H
        LOCFRAME CSTACK, 20, STACK
        MULTWEAK ??__deleaker_GUIInput_SetIcon??rT
        PUBLIC ??__deleaker_GUIObject_Create
        FUNCTION ??__deleaker_GUIObject_Create,0203H
        LOCFRAME CSTACK, 52, STACK
        MULTWEAK ??__deleaker_GUIObject_Create??rT
        PUBLIC ??__deleaker_GUIObject_Destroy
        FUNCTION ??__deleaker_GUIObject_Destroy,0203H
        LOCFRAME CSTACK, 8, STACK
        MULTWEAK ??__deleaker_GUIObject_Destroy??rT
        PUBLIC ??__deleaker_GUIObject_SetBackgroundImage
        FUNCTION ??__deleaker_GUIObject_SetBackgroundImage,0203H
        LOCFRAME CSTACK, 20, STACK
        MULTWEAK ??__deleaker_GUIObject_SetBackgroundImage??rT
        PUBLIC ??__deleaker_GUIObject_SetCursorImage
        FUNCTION ??__deleaker_GUIObject_SetCursorImage,0203H
        LOCFRAME CSTACK, 20, STACK
        MULTWEAK ??__deleaker_GUIObject_SetCursorImage??rT
        PUBLIC ??__deleaker_GUIObject_SetSecondRowTitleText
        FUNCTION ??__deleaker_GUIObject_SetSecondRowTitleText,0203H
        LOCFRAME CSTACK, 20, STACK
        MULTWEAK ??__deleaker_GUIObject_SetSecondRowTitleText??r
        PUBLIC ??__deleaker_GUIObject_SetTitleBackgroundImage
        FUNCTION ??__deleaker_GUIObject_SetTitleBackgroundImage,0203H
        LOCFRAME CSTACK, 20, STACK
        MULTWEAK ??__deleaker_GUIObject_SetTitleBackgroundImage?
        PUBLIC ??__deleaker_GUIObject_SetTitleIcon
        FUNCTION ??__deleaker_GUIObject_SetTitleIcon,0203H
        LOCFRAME CSTACK, 20, STACK
        MULTWEAK ??__deleaker_GUIObject_SetTitleIcon??rT
        PUBLIC ??__deleaker_GUIObject_SetTitleText
        FUNCTION ??__deleaker_GUIObject_SetTitleText,0203H
        LOCFRAME CSTACK, 20, STACK
        MULTWEAK ??__deleaker_GUIObject_SetTitleText??rT
        PUBLIC ??__deleaker_GUIObject_SoftKeys_AddErrorStr
        FUNCTION ??__deleaker_GUIObject_SoftKeys_AddErrorStr,0203H
        LOCFRAME CSTACK, 24, STACK
        MULTWEAK ??__deleaker_GUIObject_SoftKeys_AddErrorStr??rT
        PUBLIC ??__deleaker_GUIObject_SoftKeys_SetInfoText
        FUNCTION ??__deleaker_GUIObject_SoftKeys_SetInfoText,0203H
        LOCFRAME CSTACK, 24, STACK
        MULTWEAK ??__deleaker_GUIObject_SoftKeys_SetInfoText??rT
        PUBLIC ??__deleaker_GUIObject_SoftKeys_SetText
        FUNCTION ??__deleaker_GUIObject_SoftKeys_SetText,0203H
        LOCFRAME CSTACK, 24, STACK
        MULTWEAK ??__deleaker_GUIObject_SoftKeys_SetText??rT
        PUBLIC ??__deleaker_GUIObject_SoftKeys_SetTexts
        FUNCTION ??__deleaker_GUIObject_SoftKeys_SetTexts,0203H
        LOCFRAME CSTACK, 28, STACK
        MULTWEAK ??__deleaker_GUIObject_SoftKeys_SetTexts??rT
        PUBLIC ??__deleaker_GUIonMessage_SetMenuItemIcon
        FUNCTION ??__deleaker_GUIonMessage_SetMenuItemIcon,0203H
        LOCFRAME CSTACK, 24, STACK
        MULTWEAK ??__deleaker_GUIonMessage_SetMenuItemIcon??rT
        PUBLIC ??__deleaker_GUIonMessage_SetMenuItemInfoText
        FUNCTION ??__deleaker_GUIonMessage_SetMenuItemInfoText,0203H
        LOCFRAME CSTACK, 20, STACK
        MULTWEAK ??__deleaker_GUIonMessage_SetMenuItemInfoText??
        MULTWEAK ??__deleaker_GUIonMessage_SetMenuItemSecondLine
        PUBLIC ??__deleaker_GUIonMessage_SetMenuItemSecondLine_1
        FUNCTION ??__deleaker_GUIonMessage_SetMenuItemSecondLine_1,0203H
        LOCFRAME CSTACK, 20, STACK
        PUBLIC ??__deleaker_GUIonMessage_SetMenuItemText
        FUNCTION ??__deleaker_GUIonMessage_SetMenuItemText,0203H
        LOCFRAME CSTACK, 20, STACK
        MULTWEAK ??__deleaker_GUIonMessage_SetMenuItemText??rT
        MULTWEAK ??__deleaker_GUIonMessage_SetMenuItemUnavailabl
        PUBLIC ??__deleaker_GUIonMessage_SetMenuItemUnavailabl_1
        FUNCTION ??__deleaker_GUIonMessage_SetMenuItemUnavailabl_1,0203H
        LOCFRAME CSTACK, 20, STACK
        PUBLIC ??__deleaker_GUIonMessage_SubItem_SetText
        FUNCTION ??__deleaker_GUIonMessage_SubItem_SetText,0203H
        LOCFRAME CSTACK, 20, STACK
        MULTWEAK ??__deleaker_GUIonMessage_SubItem_SetText??rT
        PUBLIC ??__deleaker_GVI_CreateBitmap
        FUNCTION ??__deleaker_GVI_CreateBitmap,0203H
        LOCFRAME CSTACK, 16, STACK
        MULTWEAK ??__deleaker_GVI_CreateBitmap??rT
        PUBLIC ??__deleaker_GVI_CreateDashedPen
        FUNCTION ??__deleaker_GVI_CreateDashedPen,0203H
        LOCFRAME CSTACK, 20, STACK
        MULTWEAK ??__deleaker_GVI_CreateDashedPen??rT
        PUBLIC ??__deleaker_GVI_CreateMemoryGC
        FUNCTION ??__deleaker_GVI_CreateMemoryGC,0203H
        LOCFRAME CSTACK, 16, STACK
        MULTWEAK ??__deleaker_GVI_CreateMemoryGC??rT
        PUBLIC ??__deleaker_GVI_CreatePen
        FUNCTION ??__deleaker_GVI_CreatePen,0203H
        LOCFRAME CSTACK, 16, STACK
        MULTWEAK ??__deleaker_GVI_CreatePen??rT
        PUBLIC ??__deleaker_GVI_CreateSolidBrush
        FUNCTION ??__deleaker_GVI_CreateSolidBrush,0203H
        LOCFRAME CSTACK, 16, STACK
        MULTWEAK ??__deleaker_GVI_CreateSolidBrush??rT
        PUBLIC ??__deleaker_GVI_DeleteMemoryGC
        FUNCTION ??__deleaker_GVI_DeleteMemoryGC,0203H
        LOCFRAME CSTACK, 8, STACK
        MULTWEAK ??__deleaker_GVI_DeleteMemoryGC??rT
        PUBLIC ??__deleaker_GVI_Delete_GVI_Object
        FUNCTION ??__deleaker_GVI_Delete_GVI_Object,0203H
        LOCFRAME CSTACK, 8, STACK
        MULTWEAK ??__deleaker_GVI_Delete_GVI_Object??rT
        PUBLIC ??__deleaker_Gif2ID
        FUNCTION ??__deleaker_Gif2ID,0203H
        LOCFRAME CSTACK, 20, STACK
        MULTWEAK ??__deleaker_Gif2ID??rT
        PUBLIC ??__deleaker_ImageID_Free
        FUNCTION ??__deleaker_ImageID_Free,0203H
        LOCFRAME CSTACK, 16, STACK
        MULTWEAK ??__deleaker_ImageID_Free??rT
        PUBLIC ??__deleaker_ImageID_Get
        FUNCTION ??__deleaker_ImageID_Get,0203H
        LOCFRAME CSTACK, 20, STACK
        MULTWEAK ??__deleaker_ImageID_Get??rT
        PUBLIC ??__deleaker_ImageID_GetIndirect
        FUNCTION ??__deleaker_ImageID_GetIndirect,0203H
        LOCFRAME CSTACK, 28, STACK
        MULTWEAK ??__deleaker_ImageID_GetIndirect??rT
        PUBLIC ??__deleaker_JavaApp_LogoImageID_Get
        FUNCTION ??__deleaker_JavaApp_LogoImageID_Get,0203H
        LOCFRAME CSTACK, 20, STACK
        MULTWEAK ??__deleaker_JavaApp_LogoImageID_Get??rT
        PUBLIC ??__deleaker_JavaSession_GetName
        FUNCTION ??__deleaker_JavaSession_GetName,0203H
        LOCFRAME CSTACK, 16, STACK
        MULTWEAK ??__deleaker_JavaSession_GetName??rT
        PUBLIC ??__deleaker_KeyCode2Name
        FUNCTION ??__deleaker_KeyCode2Name,0203H
        LOCFRAME CSTACK, 16, STACK
        MULTWEAK ??__deleaker_KeyCode2Name??rT
        PUBLIC ??__deleaker_ListMenu_SetItemIcon
        FUNCTION ??__deleaker_ListMenu_SetItemIcon,0203H
        LOCFRAME CSTACK, 36, STACK
        MULTWEAK ??__deleaker_ListMenu_SetItemIcon??rT
        PUBLIC ??__deleaker_ListMenu_SetItemSecondLineText
        FUNCTION ??__deleaker_ListMenu_SetItemSecondLineText,0203H
        LOCFRAME CSTACK, 24, STACK
        MULTWEAK ??__deleaker_ListMenu_SetItemSecondLineText??rT
        PUBLIC ??__deleaker_ListMenu_SetNoItemText
        FUNCTION ??__deleaker_ListMenu_SetNoItemText,0203H
        LOCFRAME CSTACK, 20, STACK
        MULTWEAK ??__deleaker_ListMenu_SetNoItemText??rT
        PUBLIC ??__deleaker_List_Create
        FUNCTION ??__deleaker_List_Create,0203H
        LOCFRAME CSTACK, 16, STACK
        MULTWEAK ??__deleaker_List_Create??rT
        PUBLIC ??__deleaker_List_Destroy
        FUNCTION ??__deleaker_List_Destroy,0203H
        LOCFRAME CSTACK, 8, STACK
        MULTWEAK ??__deleaker_List_Destroy??rT
        PUBLIC ??__deleaker_LoadDLL
        FUNCTION ??__deleaker_LoadDLL,0203H
        LOCFRAME CSTACK, 16, STACK
        MULTWEAK ??__deleaker_LoadDLL??rT
        PUBLIC ??__deleaker_MediaPlayer_SoftKeys_AddHelpStr
        FUNCTION ??__deleaker_MediaPlayer_SoftKeys_AddHelpStr,0203H
        LOCFRAME CSTACK, 24, STACK
        MULTWEAK ??__deleaker_MediaPlayer_SoftKeys_AddHelpStr??r
        PUBLIC ??__deleaker_MediaPlayer_SoftKeys_SetText
        FUNCTION ??__deleaker_MediaPlayer_SoftKeys_SetText,0203H
        LOCFRAME CSTACK, 24, STACK
        MULTWEAK ??__deleaker_MediaPlayer_SoftKeys_SetText??rT
        MULTWEAK ??__deleaker_MenuBook_Desktop_GetSelectedItemID
        PUBLIC ??__deleaker_MenuBook_Desktop_GetSelectedItemID_1
        FUNCTION ??__deleaker_MenuBook_Desktop_GetSelectedItemID_1,0203H
        LOCFRAME CSTACK, 16, STACK
        PUBLIC ??__deleaker_MessageBox
        FUNCTION ??__deleaker_MessageBox,0203H
        LOCFRAME CSTACK, 44, STACK
        MULTWEAK ??__deleaker_MessageBox??rT
        PUBLIC ??__deleaker_MetaData_Desc_Create
        FUNCTION ??__deleaker_MetaData_Desc_Create,0203H
        LOCFRAME CSTACK, 16, STACK
        MULTWEAK ??__deleaker_MetaData_Desc_Create??rT
        PUBLIC ??__deleaker_MetaData_Desc_Destroy
        FUNCTION ??__deleaker_MetaData_Desc_Destroy,0203H
        LOCFRAME CSTACK, 8, STACK
        MULTWEAK ??__deleaker_MetaData_Desc_Destroy??rT
        PUBLIC ??__deleaker_ModifyKeyHook
        FUNCTION ??__deleaker_ModifyKeyHook,0203H
        LOCFRAME CSTACK, 24, STACK
        MULTWEAK ??__deleaker_ModifyKeyHook??rT
        PUBLIC ??__deleaker_ModifyUIPageHook
        FUNCTION ??__deleaker_ModifyUIPageHook,0203H
        LOCFRAME CSTACK, 24, STACK
        MULTWEAK ??__deleaker_ModifyUIPageHook??rT
        PUBLIC ??__deleaker_NOfMany_SetTexts
        FUNCTION ??__deleaker_NOfMany_SetTexts,0203H
        LOCFRAME CSTACK, 28, STACK
        MULTWEAK ??__deleaker_NOfMany_SetTexts??rT
        PUBLIC ??__deleaker_ObexSendFile
        FUNCTION ??__deleaker_ObexSendFile,0203H
        LOCFRAME CSTACK, 20, STACK
        MULTWEAK ??__deleaker_ObexSendFile??rT
        PUBLIC ??__deleaker_OneOfMany_SetTexts
        FUNCTION ??__deleaker_OneOfMany_SetTexts,0203H
        LOCFRAME CSTACK, 28, STACK
        MULTWEAK ??__deleaker_OneOfMany_SetTexts??rT
        PUBLIC ??__deleaker_PNUM2Name
        FUNCTION ??__deleaker_PNUM2Name,0203H
        LOCFRAME CSTACK, 16, STACK
        MULTWEAK ??__deleaker_PNUM2Name??rT
        PUBLIC ??__deleaker_ProgressBar_SetIcon
        FUNCTION ??__deleaker_ProgressBar_SetIcon,0203H
        LOCFRAME CSTACK, 20, STACK
        MULTWEAK ??__deleaker_ProgressBar_SetIcon??rT
        PUBLIC ??__deleaker_ProgressBar_SetText
        FUNCTION ??__deleaker_ProgressBar_SetText,0203H
        LOCFRAME CSTACK, 20, STACK
        MULTWEAK ??__deleaker_ProgressBar_SetText??rT
        PUBLIC ??__deleaker_Shortcut_Get_MenuItemIconID
        FUNCTION ??__deleaker_Shortcut_Get_MenuItemIconID,0203H
        LOCFRAME CSTACK, 16, STACK
        MULTWEAK ??__deleaker_Shortcut_Get_MenuItemIconID??rT
        PUBLIC ??__deleaker_Shortcut_Get_MenuItemName
        FUNCTION ??__deleaker_Shortcut_Get_MenuItemName,0203H
        LOCFRAME CSTACK, 16, STACK
        MULTWEAK ??__deleaker_Shortcut_Get_MenuItemName??rT
        PUBLIC ??__deleaker_SoundRecorderDesc_Create
        FUNCTION ??__deleaker_SoundRecorderDesc_Create,0203H
        LOCFRAME CSTACK, 16, STACK
        MULTWEAK ??__deleaker_SoundRecorderDesc_Create??rT
        PUBLIC ??__deleaker_SoundRecorderDesc_Destroy
        FUNCTION ??__deleaker_SoundRecorderDesc_Destroy,0203H
        LOCFRAME CSTACK, 8, STACK
        MULTWEAK ??__deleaker_SoundRecorderDesc_Destroy??rT
        PUBLIC ??__deleaker_StatusIndication_Item8_SetText
        FUNCTION ??__deleaker_StatusIndication_Item8_SetText,0203H
        LOCFRAME CSTACK, 16, STACK
        MULTWEAK ??__deleaker_StatusIndication_Item8_SetText??rT
        PUBLIC ??__deleaker_StatusIndication_SetItemText
        FUNCTION ??__deleaker_StatusIndication_SetItemText,0203H
        LOCFRAME CSTACK, 24, STACK
        MULTWEAK ??__deleaker_StatusIndication_SetItemText??rT
        PUBLIC ??__deleaker_StatusIndication_ShowNotes
        FUNCTION ??__deleaker_StatusIndication_ShowNotes,0203H
        LOCFRAME CSTACK, 16, STACK
        MULTWEAK ??__deleaker_StatusIndication_ShowNotes??rT
        PUBLIC ??__deleaker_StringInput_DispObject_SetText
        FUNCTION ??__deleaker_StringInput_DispObject_SetText,0203H
        LOCFRAME CSTACK, 20, STACK
        MULTWEAK ??__deleaker_StringInput_DispObject_SetText??rT
        PUBLIC ??__deleaker_TabMenuBar_SetTabIcon
        FUNCTION ??__deleaker_TabMenuBar_SetTabIcon,0203H
        LOCFRAME CSTACK, 28, STACK
        MULTWEAK ??__deleaker_TabMenuBar_SetTabIcon??rT
        PUBLIC ??__deleaker_TabMenuBar_SetTabTitle
        FUNCTION ??__deleaker_TabMenuBar_SetTabTitle,0203H
        LOCFRAME CSTACK, 24, STACK
        MULTWEAK ??__deleaker_TabMenuBar_SetTabTitle??rT
        PUBLIC ??__deleaker_TextFeedbackWindow
        FUNCTION ??__deleaker_TextFeedbackWindow,0203H
        LOCFRAME CSTACK, 16, STACK
        MULTWEAK ??__deleaker_TextFeedbackWindow??rT
        PUBLIC ??__deleaker_TextID_Copy
        FUNCTION ??__deleaker_TextID_Copy,0203H
        LOCFRAME CSTACK, 16, STACK
        MULTWEAK ??__deleaker_TextID_Copy??rT
        PUBLIC ??__deleaker_TextID_Create
        FUNCTION ??__deleaker_TextID_Create,0203H
        LOCFRAME CSTACK, 28, STACK
        MULTWEAK ??__deleaker_TextID_Create??rT
        PUBLIC ??__deleaker_TextID_CreateIntegerID
        FUNCTION ??__deleaker_TextID_CreateIntegerID,0203H
        LOCFRAME CSTACK, 16, STACK
        MULTWEAK ??__deleaker_TextID_CreateIntegerID??rT
        PUBLIC ??__deleaker_TextID_Destroy
        FUNCTION ??__deleaker_TextID_Destroy,0203H
        LOCFRAME CSTACK, 8, STACK
        MULTWEAK ??__deleaker_TextID_Destroy??rT
        PUBLIC ??__deleaker_Time2ID
        FUNCTION ??__deleaker_Time2ID,0203H
        LOCFRAME CSTACK, 16, STACK
        MULTWEAK ??__deleaker_Time2ID??rT
        PUBLIC ??__deleaker_Timer_Kill
        FUNCTION ??__deleaker_Timer_Kill,0203H
        LOCFRAME CSTACK, 8, STACK
        MULTWEAK ??__deleaker_Timer_Kill??rT
        PUBLIC ??__deleaker_Timer_ReSet
        FUNCTION ??__deleaker_Timer_ReSet,0203H
        LOCFRAME CSTACK, 28, STACK
        MULTWEAK ??__deleaker_Timer_ReSet??rT
        PUBLIC ??__deleaker_Timer_Set
        FUNCTION ??__deleaker_Timer_Set,0203H
        LOCFRAME CSTACK, 16, STACK
        MULTWEAK ??__deleaker_Timer_Set??rT
        PUBLIC ??__deleaker_UnLoadDLL
        FUNCTION ??__deleaker_UnLoadDLL,0203H
        LOCFRAME CSTACK, 8, STACK
        MULTWEAK ??__deleaker_UnLoadDLL??rT
        PUBLIC ??__deleaker_VCALL_SetNameIcon
        FUNCTION ??__deleaker_VCALL_SetNameIcon,0203H
        LOCFRAME CSTACK, 20, STACK
        MULTWEAK ??__deleaker_VCALL_SetNameIcon??rT
        PUBLIC ??__deleaker_YesNoQuestion_SetIcon
        FUNCTION ??__deleaker_YesNoQuestion_SetIcon,0203H
        LOCFRAME CSTACK, 20, STACK
        MULTWEAK ??__deleaker_YesNoQuestion_SetIcon??rT
        PUBLIC ??__deleaker__fopen
        FUNCTION ??__deleaker__fopen,0203H
        LOCFRAME CSTACK, 20, STACK
        MULTWEAK ??__deleaker__fopen??rT
        PUBLIC ??__deleaker_alloc
        FUNCTION ??__deleaker_alloc,0203H
        LOCFRAME CSTACK, 16, STACK
        MULTWEAK ??__deleaker_alloc??rT
        PUBLIC ??__deleaker_create_process
        FUNCTION ??__deleaker_create_process,0203H
        LOCFRAME CSTACK, 52, STACK
        MULTWEAK ??__deleaker_create_process??rT
        PUBLIC ??__deleaker_fclose
        FUNCTION ??__deleaker_fclose,0203H
        LOCFRAME CSTACK, 8, STACK
        MULTWEAK ??__deleaker_fclose??rT
        PUBLIC ??__deleaker_fopen
        FUNCTION ??__deleaker_fopen,0203H
        LOCFRAME CSTACK, 16, STACK
        MULTWEAK ??__deleaker_fopen??rT
        PUBLIC ??__deleaker_free_buf
        FUNCTION ??__deleaker_free_buf,0203H
        LOCFRAME CSTACK, 8, STACK
        MULTWEAK ??__deleaker_free_buf??rT
        PUBLIC ??__deleaker_hunt
        FUNCTION ??__deleaker_hunt,0203H
        LOCFRAME CSTACK, 20, STACK
        MULTWEAK ??__deleaker_hunt??rT
        PUBLIC ??__deleaker_kill_proc
        FUNCTION ??__deleaker_kill_proc,0203H
        LOCFRAME CSTACK, 8, STACK
        MULTWEAK ??__deleaker_kill_proc??rT
        PUBLIC ??__deleaker_malloc
        FUNCTION ??__deleaker_malloc,0203H
        LOCFRAME CSTACK, 16, STACK
        MULTWEAK ??__deleaker_malloc??rT
        PUBLIC ??__deleaker_manifest_GetParam
        FUNCTION ??__deleaker_manifest_GetParam,0203H
        LOCFRAME CSTACK, 16, STACK
        MULTWEAK ??__deleaker_manifest_GetParam??rT
        PUBLIC ??__deleaker_mfree
        FUNCTION ??__deleaker_mfree,0203H
        LOCFRAME CSTACK, 8, STACK
        MULTWEAK ??__deleaker_mfree??rT
        PUBLIC ??__deleaker_mfree_adr
        FUNCTION ??__deleaker_mfree_adr,0203H
        MULTWEAK ??__deleaker_mfree_adr??rT
        PUBLIC ??__deleaker_popfileline
        FUNCTION ??__deleaker_popfileline,0203H
        LOCFRAME CSTACK, 16, STACK
        MULTWEAK ??__deleaker_popfileline??rT
        PUBLIC ??__deleaker_pushfileline
        FUNCTION ??__deleaker_pushfileline,0203H
        LOCFRAME CSTACK, 12, STACK
        MULTWEAK ??__deleaker_pushfileline??rT
        PUBLIC ??__deleaker_receive
        FUNCTION ??__deleaker_receive,0203H
        LOCFRAME CSTACK, 16, STACK
        MULTWEAK ??__deleaker_receive??rT
        PUBLIC ??__deleaker_receive_w_tmo
        FUNCTION ??__deleaker_receive_w_tmo,0203H
        LOCFRAME CSTACK, 16, STACK
        MULTWEAK ??__deleaker_receive_w_tmo??rT
        PUBLIC ??__deleaker_send
        FUNCTION ??__deleaker_send,0203H
        LOCFRAME CSTACK, 12, STACK
        MULTWEAK ??__deleaker_send??rT
        PUBLIC ??__deleaker_w_dirclose
        FUNCTION ??__deleaker_w_dirclose,0203H
        LOCFRAME CSTACK, 8, STACK
        MULTWEAK ??__deleaker_w_dirclose??rT
        PUBLIC ??__deleaker_w_diropen
        FUNCTION ??__deleaker_w_diropen,0203H
        LOCFRAME CSTACK, 16, STACK
        MULTWEAK ??__deleaker_w_diropen??rT
        PUBLIC ??__deleaker_w_fclose
        FUNCTION ??__deleaker_w_fclose,0203H
        LOCFRAME CSTACK, 8, STACK
        MULTWEAK ??__deleaker_w_fclose??rT
        PUBLIC ??__deleaker_w_fopen
        FUNCTION ??__deleaker_w_fopen,0203H
        LOCFRAME CSTACK, 16, STACK
        MULTWEAK ??__deleaker_w_fopen??rT
        FUNCTION ??findtimercb,0603H
        PUBLIC ??isallocatediconid
        FUNCTION ??isallocatediconid,0203H
        MULTWEAK ??isallocatediconid??rT
        PUBLIC ??isallocatedstrid
        FUNCTION ??isallocatedstrid,0203H
        MULTWEAK ??isallocatedstrid??rT
        PUBLIC ??mfree_
        FUNCTION ??mfree_,0603H
        LOCFRAME CSTACK, 4, STACK
        MULTWEAK ??mfree_??rT
        PUBLIC `??operator delete`
        FUNCTION `??operator delete`,0203H
        LOCFRAME CSTACK, 16, STACK
        MULTWEAK `??operator delete??rT`
        MULTWEAK `??operator delete??rT_1`
        PUBLIC `??operator delete[]`
        FUNCTION `??operator delete[]`,0203H
        LOCFRAME CSTACK, 16, STACK
        MULTWEAK `??operator delete[]??rT`
        MULTWEAK `??operator delete[]??rT_1`
        PUBLIC `??operator delete[]_1`
        FUNCTION `??operator delete[]_1`,0203H
        LOCFRAME CSTACK, 12, STACK
        PUBLIC `??operator delete_1`
        FUNCTION `??operator delete_1`,0203H
        LOCFRAME CSTACK, 12, STACK
        PUBLIC `??operator new`
        FUNCTION `??operator new`,0203H
        LOCFRAME CSTACK, 16, STACK
        MULTWEAK `??operator new??rT`
        MULTWEAK `??operator new??rT_1`
        PUBLIC `??operator new[]`
        FUNCTION `??operator new[]`,0203H
        LOCFRAME CSTACK, 16, STACK
        MULTWEAK `??operator new[]??rT`
        MULTWEAK `??operator new[]??rT_1`
        PUBLIC `??operator new[]_1`
        FUNCTION `??operator new[]_1`,0203H
        LOCFRAME CSTACK, 16, STACK
        PUBLIC `??operator new_1`
        FUNCTION `??operator new_1`,0203H
        LOCFRAME CSTACK, 16, STACK
        PUBLIC ??trace_alloc
        FUNCTION ??trace_alloc,0203H
        LOCFRAME CSTACK, 20, STACK
        MULTWEAK ??trace_alloc??rT
        PUBLIC ??trace_alloc_ret
        FUNCTION ??trace_alloc_ret,0203H
        LOCFRAME CSTACK, 8, STACK
        MULTWEAK ??trace_alloc_ret??rT
        PUBLIC ??trace_done
        FUNCTION ??trace_done,0203H
        LOCFRAME CSTACK, 304, STACK
        MULTWEAK ??trace_done??rT
        PUBLIC ??trace_free
        FUNCTION ??trace_free,0203H
        LOCFRAME CSTACK, 28, STACK
        MULTWEAK ??trace_free??rT
        PUBLIC ??trace_init
        FUNCTION ??trace_init,0203H
        LOCFRAME CSTACK, 24, STACK
        MULTWEAK ??trace_init??rT
        FUNCTION ??trace_onTimer,0603H
        LOCFRAME CSTACK, 16, STACK
        PUBLIC ??trace_timerkill
        FUNCTION ??trace_timerkill,0203H
        LOCFRAME CSTACK, 16, STACK
        MULTWEAK ??trace_timerkill??rT
        PUBLIC ??trace_timerset
        FUNCTION ??trace_timerset,0203H
        LOCFRAME CSTACK, 16, STACK
        MULTWEAK ??trace_timerset??rT
        PUBWEAK ?init?tab?DATA_I
        
        CFI Names cfiNames0
        CFI StackFrame CFA R13 HUGEDATA
        CFI Resource R0:32, R1:32, R2:32, R3:32, R4:32, R5:32, R6:32, R7:32
        CFI Resource R8:32, R9:32, R10:32, R11:32, R12:32, CPSR:32, R13:32
        CFI Resource R14:32, SPSR:32
        CFI VirtualResource ?RET:32
        CFI EndNames cfiNames0
        
        CFI Common cfiCommon0 Using cfiNames0
        CFI CodeAlign 2
        CFI DataAlign 4
        CFI ReturnAddress ?RET CODE
        CFI CFA R13+0
        CFI R0 Undefined
        CFI R1 Undefined
        CFI R2 Undefined
        CFI R3 Undefined
        CFI R4 SameValue
        CFI R5 SameValue
        CFI R6 SameValue
        CFI R7 SameValue
        CFI R8 SameValue
        CFI R9 SameValue
        CFI R10 SameValue
        CFI R11 SameValue
        CFI R12 Undefined
        CFI CPSR SameValue
        CFI R14 Undefined
        CFI SPSR SameValue
        CFI ?RET R14
        CFI EndCommon cfiCommon0
        
        
        CFI Common cfiCommon1 Using cfiNames0
        CFI CodeAlign 4
        CFI DataAlign 4
        CFI ReturnAddress ?RET CODE
        CFI CFA R13+0
        CFI R0 Undefined
        CFI R1 Undefined
        CFI R2 Undefined
        CFI R3 Undefined
        CFI R4 SameValue
        CFI R5 SameValue
        CFI R6 SameValue
        CFI R7 SameValue
        CFI R8 SameValue
        CFI R9 SameValue
        CFI R10 SameValue
        CFI R11 SameValue
        CFI R12 Undefined
        CFI CPSR SameValue
        CFI R14 Undefined
        CFI SPSR SameValue
        CFI ?RET R14
        CFI EndCommon cfiCommon1
        

??__deleaker_AllocDirHandle??rT SYMBOL "??rT", ??__deleaker_AllocDirHandle

??__deleaker_BookObj_KillBook??rT SYMBOL "??rT", ??__deleaker_BookObj_KillBook

??__deleaker_BookObj_SoftKeys_SetText??rT SYMBOL "??rT", ??__deleaker_BookObj_SoftKeys_SetText

??__deleaker_CreateBook??rT SYMBOL "??rT", ??__deleaker_CreateBook

??__deleaker_CreateListMenu??rT SYMBOL "??rT", ??__deleaker_CreateListMenu

??__deleaker_CreateMonitorFeedback??rT SYMBOL "??rT", ??__deleaker_CreateMonitorFeedback

??__deleaker_CreateNOfMany??rT SYMBOL "??rT", ??__deleaker_CreateNOfMany

??__deleaker_CreateOneOfMany??rT SYMBOL "??rT", ??__deleaker_CreateOneOfMany

??__deleaker_CreateProgressBar??rT SYMBOL "??rT", ??__deleaker_CreateProgressBar

??__deleaker_CreateTabMenuBar??rT SYMBOL "??rT", ??__deleaker_CreateTabMenuBar

??__deleaker_CreateURI??rT SYMBOL "??rT", ??__deleaker_CreateURI

??__deleaker_DataBrowserDesc_Create??rT SYMBOL "??rT", ??__deleaker_DataBrowserDesc_Create

??__deleaker_DataBrowserDesc_Destroy??rT SYMBOL "??rT", ??__deleaker_DataBrowserDesc_Destroy

??__deleaker_DataBrowserDesc_SetHeaderText??rT SYMBOL "??rT", ??__deleaker_DataBrowserDesc_SetHeaderText

??__deleaker_DataBrowserDesc_SetOKSoftKeyText?? SYMBOL "??rT", ??__deleaker_DataBrowserDesc_SetOKSoftKeyText

??__deleaker_Date2ID??rT SYMBOL "??rT", ??__deleaker_Date2ID

??__deleaker_DestroyDirHandle??rT SYMBOL "??rT", ??__deleaker_DestroyDirHandle

??__deleaker_DispObject_SetBackgroundImage??rT SYMBOL "??rT", ??__deleaker_DispObject_SetBackgroundImage

??__deleaker_DispObject_SetCursorImage??rT SYMBOL "??rT", ??__deleaker_DispObject_SetCursorImage

??__deleaker_DispObject_SetTitleBackgroundImage SYMBOL "??rT", ??__deleaker_DispObject_SetTitleBackgroundImage_1

??__deleaker_DispObject_SetTitleText??rT SYMBOL "??rT", ??__deleaker_DispObject_SetTitleText

??__deleaker_FILEITEM_Create??rT SYMBOL "??rT", ??__deleaker_FILEITEM_Create

??__deleaker_FILEITEM_CreateCopy??rT SYMBOL "??rT", ??__deleaker_FILEITEM_CreateCopy

??__deleaker_FILEITEM_Destroy??rT SYMBOL "??rT", ??__deleaker_FILEITEM_Destroy

??__deleaker_Feedback_SetText??rT SYMBOL "??rT", ??__deleaker_Feedback_SetText

??__deleaker_Feedback_SetTextExtended??rT SYMBOL "??rT", ??__deleaker_Feedback_SetTextExtended

??__deleaker_FreeBook??rT SYMBOL "??rT", ??__deleaker_FreeBook

??__deleaker_GC_CreateMemoryGC??rT SYMBOL "??rT", ??__deleaker_GC_CreateMemoryGC

??__deleaker_GC_FreeGC??rT SYMBOL "??rT", ??__deleaker_GC_FreeGC

??__deleaker_GUIInput_SetIcon??rT SYMBOL "??rT", ??__deleaker_GUIInput_SetIcon

??__deleaker_GUIObject_Create??rT SYMBOL "??rT", ??__deleaker_GUIObject_Create

??__deleaker_GUIObject_Destroy??rT SYMBOL "??rT", ??__deleaker_GUIObject_Destroy

??__deleaker_GUIObject_SetBackgroundImage??rT SYMBOL "??rT", ??__deleaker_GUIObject_SetBackgroundImage

??__deleaker_GUIObject_SetCursorImage??rT SYMBOL "??rT", ??__deleaker_GUIObject_SetCursorImage

??__deleaker_GUIObject_SetSecondRowTitleText??r SYMBOL "??rT", ??__deleaker_GUIObject_SetSecondRowTitleText

??__deleaker_GUIObject_SetTitleBackgroundImage? SYMBOL "??rT", ??__deleaker_GUIObject_SetTitleBackgroundImage

??__deleaker_GUIObject_SetTitleIcon??rT SYMBOL "??rT", ??__deleaker_GUIObject_SetTitleIcon

??__deleaker_GUIObject_SetTitleText??rT SYMBOL "??rT", ??__deleaker_GUIObject_SetTitleText

??__deleaker_GUIObject_SoftKeys_AddErrorStr??rT SYMBOL "??rT", ??__deleaker_GUIObject_SoftKeys_AddErrorStr

??__deleaker_GUIObject_SoftKeys_SetInfoText??rT SYMBOL "??rT", ??__deleaker_GUIObject_SoftKeys_SetInfoText

??__deleaker_GUIObject_SoftKeys_SetText??rT SYMBOL "??rT", ??__deleaker_GUIObject_SoftKeys_SetText

??__deleaker_GUIObject_SoftKeys_SetTexts??rT SYMBOL "??rT", ??__deleaker_GUIObject_SoftKeys_SetTexts

??__deleaker_GUIonMessage_SetMenuItemIcon??rT SYMBOL "??rT", ??__deleaker_GUIonMessage_SetMenuItemIcon

??__deleaker_GUIonMessage_SetMenuItemInfoText?? SYMBOL "??rT", ??__deleaker_GUIonMessage_SetMenuItemInfoText

??__deleaker_GUIonMessage_SetMenuItemSecondLine SYMBOL "??rT", ??__deleaker_GUIonMessage_SetMenuItemSecondLine_1

??__deleaker_GUIonMessage_SetMenuItemText??rT SYMBOL "??rT", ??__deleaker_GUIonMessage_SetMenuItemText

??__deleaker_GUIonMessage_SetMenuItemUnavailabl SYMBOL "??rT", ??__deleaker_GUIonMessage_SetMenuItemUnavailabl_1

??__deleaker_GUIonMessage_SubItem_SetText??rT SYMBOL "??rT", ??__deleaker_GUIonMessage_SubItem_SetText

??__deleaker_GVI_CreateBitmap??rT SYMBOL "??rT", ??__deleaker_GVI_CreateBitmap

??__deleaker_GVI_CreateDashedPen??rT SYMBOL "??rT", ??__deleaker_GVI_CreateDashedPen

??__deleaker_GVI_CreateMemoryGC??rT SYMBOL "??rT", ??__deleaker_GVI_CreateMemoryGC

??__deleaker_GVI_CreatePen??rT SYMBOL "??rT", ??__deleaker_GVI_CreatePen

??__deleaker_GVI_CreateSolidBrush??rT SYMBOL "??rT", ??__deleaker_GVI_CreateSolidBrush

??__deleaker_GVI_DeleteMemoryGC??rT SYMBOL "??rT", ??__deleaker_GVI_DeleteMemoryGC

??__deleaker_GVI_Delete_GVI_Object??rT SYMBOL "??rT", ??__deleaker_GVI_Delete_GVI_Object

??__deleaker_Gif2ID??rT SYMBOL "??rT", ??__deleaker_Gif2ID

??__deleaker_ImageID_Free??rT SYMBOL "??rT", ??__deleaker_ImageID_Free

??__deleaker_ImageID_Get??rT SYMBOL "??rT", ??__deleaker_ImageID_Get

??__deleaker_ImageID_GetIndirect??rT SYMBOL "??rT", ??__deleaker_ImageID_GetIndirect

??__deleaker_JavaApp_LogoImageID_Get??rT SYMBOL "??rT", ??__deleaker_JavaApp_LogoImageID_Get

??__deleaker_JavaSession_GetName??rT SYMBOL "??rT", ??__deleaker_JavaSession_GetName

??__deleaker_KeyCode2Name??rT SYMBOL "??rT", ??__deleaker_KeyCode2Name

??__deleaker_ListMenu_SetItemIcon??rT SYMBOL "??rT", ??__deleaker_ListMenu_SetItemIcon

??__deleaker_ListMenu_SetItemSecondLineText??rT SYMBOL "??rT", ??__deleaker_ListMenu_SetItemSecondLineText

??__deleaker_ListMenu_SetNoItemText??rT SYMBOL "??rT", ??__deleaker_ListMenu_SetNoItemText

??__deleaker_List_Create??rT SYMBOL "??rT", ??__deleaker_List_Create

??__deleaker_List_Destroy??rT SYMBOL "??rT", ??__deleaker_List_Destroy

??__deleaker_LoadDLL??rT SYMBOL "??rT", ??__deleaker_LoadDLL

??__deleaker_MediaPlayer_SoftKeys_AddHelpStr??r SYMBOL "??rT", ??__deleaker_MediaPlayer_SoftKeys_AddHelpStr

??__deleaker_MediaPlayer_SoftKeys_SetText??rT SYMBOL "??rT", ??__deleaker_MediaPlayer_SoftKeys_SetText

??__deleaker_MenuBook_Desktop_GetSelectedItemID SYMBOL "??rT", ??__deleaker_MenuBook_Desktop_GetSelectedItemID_1

??__deleaker_MessageBox??rT SYMBOL "??rT", ??__deleaker_MessageBox

??__deleaker_MetaData_Desc_Create??rT SYMBOL "??rT", ??__deleaker_MetaData_Desc_Create

??__deleaker_MetaData_Desc_Destroy??rT SYMBOL "??rT", ??__deleaker_MetaData_Desc_Destroy

??__deleaker_ModifyKeyHook??rT SYMBOL "??rT", ??__deleaker_ModifyKeyHook

??__deleaker_ModifyUIPageHook??rT SYMBOL "??rT", ??__deleaker_ModifyUIPageHook

??__deleaker_NOfMany_SetTexts??rT SYMBOL "??rT", ??__deleaker_NOfMany_SetTexts

??__deleaker_ObexSendFile??rT SYMBOL "??rT", ??__deleaker_ObexSendFile

??__deleaker_OneOfMany_SetTexts??rT SYMBOL "??rT", ??__deleaker_OneOfMany_SetTexts

??__deleaker_PNUM2Name??rT SYMBOL "??rT", ??__deleaker_PNUM2Name

??__deleaker_ProgressBar_SetIcon??rT SYMBOL "??rT", ??__deleaker_ProgressBar_SetIcon

??__deleaker_ProgressBar_SetText??rT SYMBOL "??rT", ??__deleaker_ProgressBar_SetText

??__deleaker_Shortcut_Get_MenuItemIconID??rT SYMBOL "??rT", ??__deleaker_Shortcut_Get_MenuItemIconID

??__deleaker_Shortcut_Get_MenuItemName??rT SYMBOL "??rT", ??__deleaker_Shortcut_Get_MenuItemName

??__deleaker_SoundRecorderDesc_Create??rT SYMBOL "??rT", ??__deleaker_SoundRecorderDesc_Create

??__deleaker_SoundRecorderDesc_Destroy??rT SYMBOL "??rT", ??__deleaker_SoundRecorderDesc_Destroy

??__deleaker_StatusIndication_Item8_SetText??rT SYMBOL "??rT", ??__deleaker_StatusIndication_Item8_SetText

??__deleaker_StatusIndication_SetItemText??rT SYMBOL "??rT", ??__deleaker_StatusIndication_SetItemText

??__deleaker_StatusIndication_ShowNotes??rT SYMBOL "??rT", ??__deleaker_StatusIndication_ShowNotes

??__deleaker_StringInput_DispObject_SetText??rT SYMBOL "??rT", ??__deleaker_StringInput_DispObject_SetText

??__deleaker_TabMenuBar_SetTabIcon??rT SYMBOL "??rT", ??__deleaker_TabMenuBar_SetTabIcon

??__deleaker_TabMenuBar_SetTabTitle??rT SYMBOL "??rT", ??__deleaker_TabMenuBar_SetTabTitle

??__deleaker_TextFeedbackWindow??rT SYMBOL "??rT", ??__deleaker_TextFeedbackWindow

??__deleaker_TextID_Copy??rT SYMBOL "??rT", ??__deleaker_TextID_Copy

??__deleaker_TextID_Create??rT SYMBOL "??rT", ??__deleaker_TextID_Create

??__deleaker_TextID_CreateIntegerID??rT SYMBOL "??rT", ??__deleaker_TextID_CreateIntegerID

??__deleaker_TextID_Destroy??rT SYMBOL "??rT", ??__deleaker_TextID_Destroy

??__deleaker_Time2ID??rT SYMBOL "??rT", ??__deleaker_Time2ID

??__deleaker_Timer_Kill??rT SYMBOL "??rT", ??__deleaker_Timer_Kill

??__deleaker_Timer_ReSet??rT SYMBOL "??rT", ??__deleaker_Timer_ReSet

??__deleaker_Timer_Set??rT SYMBOL "??rT", ??__deleaker_Timer_Set

??__deleaker_UnLoadDLL??rT SYMBOL "??rT", ??__deleaker_UnLoadDLL

??__deleaker_VCALL_SetNameIcon??rT SYMBOL "??rT", ??__deleaker_VCALL_SetNameIcon

??__deleaker_YesNoQuestion_SetIcon??rT SYMBOL "??rT", ??__deleaker_YesNoQuestion_SetIcon

??__deleaker__fopen??rT SYMBOL "??rT", ??__deleaker__fopen

??__deleaker_alloc??rT SYMBOL "??rT", ??__deleaker_alloc

??__deleaker_create_process??rT SYMBOL "??rT", ??__deleaker_create_process

??__deleaker_fclose??rT SYMBOL "??rT", ??__deleaker_fclose

??__deleaker_fopen??rT SYMBOL "??rT", ??__deleaker_fopen

??__deleaker_free_buf??rT SYMBOL "??rT", ??__deleaker_free_buf

??__deleaker_hunt??rT SYMBOL "??rT", ??__deleaker_hunt

??__deleaker_kill_proc??rT SYMBOL "??rT", ??__deleaker_kill_proc

??__deleaker_malloc??rT SYMBOL "??rT", ??__deleaker_malloc

??__deleaker_manifest_GetParam??rT SYMBOL "??rT", ??__deleaker_manifest_GetParam

??__deleaker_mfree??rT SYMBOL "??rT", ??__deleaker_mfree

??__deleaker_mfree_adr??rT SYMBOL "??rT", ??__deleaker_mfree_adr

??__deleaker_popfileline??rT SYMBOL "??rT", ??__deleaker_popfileline

??__deleaker_pushfileline??rT SYMBOL "??rT", ??__deleaker_pushfileline

??__deleaker_receive??rT SYMBOL "??rT", ??__deleaker_receive

??__deleaker_receive_w_tmo??rT SYMBOL "??rT", ??__deleaker_receive_w_tmo

??__deleaker_send??rT SYMBOL "??rT", ??__deleaker_send

??__deleaker_w_dirclose??rT SYMBOL "??rT", ??__deleaker_w_dirclose

??__deleaker_w_diropen??rT SYMBOL "??rT", ??__deleaker_w_diropen

??__deleaker_w_fclose??rT SYMBOL "??rT", ??__deleaker_w_fclose

??__deleaker_w_fopen??rT SYMBOL "??rT", ??__deleaker_w_fopen

??isallocatediconid??rT SYMBOL "??rT", ??isallocatediconid

??isallocatedstrid??rT SYMBOL "??rT", ??isallocatedstrid

??mfree_??rT        SYMBOL "??rT", ??mfree_

`??operator delete??rT` SYMBOL "??rT", `??operator delete`

`??operator delete??rT_1` SYMBOL "??rT", `??operator delete_1`

`??operator delete[]??rT` SYMBOL "??rT", `??operator delete[]`

`??operator delete[]??rT_1` SYMBOL "??rT", `??operator delete[]_1`

`??operator new??rT` SYMBOL "??rT", `??operator new`

`??operator new??rT_1` SYMBOL "??rT", `??operator new_1`

`??operator new[]??rT` SYMBOL "??rT", `??operator new[]`

`??operator new[]??rT_1` SYMBOL "??rT", `??operator new[]_1`

??trace_alloc??rT   SYMBOL "??rT", ??trace_alloc

??trace_alloc_ret??rT SYMBOL "??rT", ??trace_alloc_ret

??trace_done??rT    SYMBOL "??rT", ??trace_done

??trace_free??rT    SYMBOL "??rT", ??trace_free

??trace_init??rT    SYMBOL "??rT", ??trace_init

??trace_timerkill??rT SYMBOL "??rT", ??trace_timerkill

??trace_timerset??rT SYMBOL "??rT", ??trace_timerset

// C:\Users\Faby\Desktop\StudyElf\deleaker\mem2.cpp
//    1 #ifdef NDEBUG
//    2 
//    3 #include "..\include\Lib_Clara.h"
//    4 
//    5 void* operator new(size_t sz){return malloc(sz);};
//    6 void* operator new[](size_t sz){return malloc(sz);};
//    7 void operator delete(void * p){mfree(p);};
//    8 void operator delete[](void * p){mfree(p);};
//    9 
//   10 void* operator new(size_t size, void* p){ return p; }
//   11 void* operator new[](size_t size, void* p){ return p; }
//   12 void operator delete (void*, void*) { }
//   13 void operator delete[] (void*, void*) { }
//   14 
//   15 #else
//   16 
//   17 #include "mem2.h"
//   18 #include "..\include\dir.h"
//   19 #include "lib_clara_original.h"
//   20 #undef new
//   21 #undef delete
//   22 
//   23 

        RSEG DATA_I:DATA:SORT:NOROOT(2)
//   24 static char* leaktypes[]={
//   25 	"memory",
//   26 	"strid",
//   27 	"iconid",
//   28 	"timer",
//   29 	"file",
//   30 	"hook",
//   31 	"dll",
//   32 	"gc",
//   33 	"gvi",
//   34 	"gui",
//   35 	"book",
//   36 	"process",
//   37 	"ose buffer",
//   38 	"metadatadesc",
//   39 	"fileitemstruct",
//   40 	"w_dir",
//   41 
//   42 	"unallocated"
//   43 };
//   44 
//   45 static bool started=false;
//   46 
//   47 static LIST* buffers[trace_typescount];
buffers:
        DS8 68
        REQUIRE `?<Initializer for buffers>`
        DS8 16
        REQUIRE `?<Initializer for buffers2>`
        DS8 68
        REQUIRE `?<Initializer for leaktypes>`
        DS8 4
        REQUIRE `?<Initializer for iconid_start>`
        DS8 4
        REQUIRE `?<Initializer for iconid_end>`
        DS8 1
        REQUIRE `?<Initializer for started>`
        DS8 3
        DS8 128
        REQUIRE `?<Initializer for logname>`

        RSEG CODE:CODE:NOROOT(2)
        CFI Block cfiBlock0 Using cfiCommon0
        CFI NoFunction
        THUMB
??trace_init??rT:
        BX       PC
        Nop      
        CFI EndBlock cfiBlock0
        REQUIRE ??trace_init
//   48 
//   49 #define LISTDATACOUNT 3
//   50 
//   51 static int iconid_start=0xE800;
//   52 static int iconid_end=0xE8FF;
//   53 
//   54 
//   55 enum
//   56 {
//   57 	trace_list_timers_id,
//   58 	trace_list_timers_proc,
//   59 	trace_list_file,
//   60 	trace_list_line,
//   61 
//   62 	trace_list_size
//   63 };
//   64 static LIST* buffers2[trace_list_size];
//   65 
//   66 static wchar_t logname[64]=_T("memory.txt");
//   67 
//   68 

        RSEG CODE:CODE:NOROOT(2)
        CFI Block cfiBlock1 Using cfiCommon1
        CFI Function ??trace_init
        ARM
//   69 void trace_init(wchar_t* arg_logname)
//   70 {
??trace_init:
        PUSH     {R4-R7,LR}
        CFI ?RET Frame(CFA, -4)
        CFI R7 Frame(CFA, -8)
        CFI R6 Frame(CFA, -12)
        CFI R5 Frame(CFA, -16)
        CFI R4 Frame(CFA, -20)
        CFI CFA R13+20
//   71     if(arg_logname)
        LDR      R4,??DataTable3  ;; buffers
        SUB      SP,SP,#+4
        CFI CFA R13+24
        CMP      R0,#+0
        BEQ      ??trace_init_1
//   72 		wstrncpy(logname,arg_logname,MAXELEMS(logname));
        MOV      R2,#+64
        MOV      R1,R0
        ADD      R0,R4,#+164
        SWI      +339
//   73 
//   74 	for(int i=0;i<trace_typescount;i++)
??trace_init_1:
        MOV      R5,#+0
//   75 		buffers[i]=__original_List_Create();
??trace_init_2:
        SWI      +361
        STR      R0,[R4, +R5, LSL #+2]
        ADD      R5,R5,#+1
        CMP      R5,#+17
        BLT      ??trace_init_2
//   76 	started=true;
        MOV      R0,#+1
        STRB     R0,[R4, #+160]
//   77 
//   78 	for(int i=0;i<trace_list_size;i++)
        MOV      R5,#+0
//   79 		buffers2[i]=__original_List_Create();
??trace_init_3:
        SWI      +361
        ADD      R1,R4,R5, LSL #+2
        STR      R0,[R1, #+68]
        ADD      R5,R5,#+1
        CMP      R5,#+4
        BLT      ??trace_init_3
//   80 
//   81 	int chipid = GetChipID() & CHIPID_MASK;
        SWI      +590
        AND      R0,R0,#0xFE00
//   82 
//   83 	if( chipid == CHIPID_DB2000 || chipid == CHIPID_DB2010 )
        CMP      R0,#+28672
        CMPNE    R0,#+32768
        POPNE    {R0,R4-R7,PC}
//   84 	{
//   85 		int max=0;
//   86 		int iconid;
//   87 		
//   88 		if( iconidname2id( _T("RN_SHORTCUT_LIST_CALL_LIST_ICN"), TEXTID_ANY_LEN, &iconid ) )
        LDR      R5,??trace_init_4  ;; `?<Constant L"\\x57\\x56\\x5f\\x59\\x41\\x48\\x4f\\x4f\\`
        MOV      R7,#+0
        MOV      R6,#+255
        ORR      R6,R6,#0xFF00
        MOV      R2,SP
        MOV      R1,R6
        ADD      R0,R5,#+68
        SWI      +646
        CMP      R0,#+0
        BEQ      ??trace_init_5
//   89 			if( max < iconid )
        LDR      R0,[SP, #+0]
        CMP      R0,#+1
//   90 				max = iconid;
        MOVGE    R7,R0
//   91 		if( iconidname2id( _T("ZERO_ROW_SEPARATOR_ICN"), TEXTID_ANY_LEN, &iconid ) )
??trace_init_5:
        MOV      R2,SP
        MOV      R1,R6
        ADD      R0,R5,#+132
        SWI      +646
        CMP      R0,#+0
        BEQ      ??trace_init_6
//   92 			if( max < iconid )
        LDR      R0,[SP, #+0]
        CMP      R7,R0
//   93 				max = iconid;
        MOVLT    R7,R0
//   94 		if( iconidname2id( _T("WV_YAHOO_STATUSBAR_SYSTEMMSG_ICN"), TEXTID_ANY_LEN, &iconid ) )
??trace_init_6:
        MOV      R2,SP
        MOV      R1,R6
        MOV      R0,R5
        SWI      +646
        CMP      R0,#+0
        BEQ      ??trace_init_7
//   95 			if( max < iconid )
        LDR      R0,[SP, #+0]
        CMP      R7,R0
//   96 				max = iconid;
        MOVLT    R7,R0
//   97 
//   98 		if( max )
??trace_init_7:
        CMP      R7,#+0
        POPEQ    {R0,R4-R7,PC}
//   99 		{
//  100 			iconid_start = ( max + 0xFF ) & ~0xFF;
        ADD      R0,R7,#+255
        BIC      R0,R0,#0xFF
        STR      R0,[R4, #+152]
//  101 			iconid_end = 0xFFFE; //сомнительно
        BIC      R0,R6,#0x1
        STR      R0,[R4, #+156]
//  102 		}
//  103 	}
//  104 }
        POP      {R0,R4-R7,PC}    ;; return
        DATA
??trace_init_4:
        DC32     `?<Constant L"\\x57\\x56\\x5f\\x59\\x41\\x48\\x4f\\x4f\\`
        CFI EndBlock cfiBlock1

        RSEG CODE:CODE:NOROOT(2)
        CFI Block cfiBlock2 Using cfiCommon0
        CFI NoFunction
        THUMB
??trace_done??rT:
        BX       PC
        Nop      
        CFI EndBlock cfiBlock2
        REQUIRE ??trace_done
//  105 

        RSEG CODE:CODE:NOROOT(2)
        CFI Block cfiBlock3 Using cfiCommon1
        CFI Function ??trace_done
        ARM
//  106 void trace_done()
//  107 {
??trace_done:
        PUSH     {R4-R11,LR}
        CFI ?RET Frame(CFA, -4)
        CFI R11 Frame(CFA, -8)
        CFI R10 Frame(CFA, -12)
        CFI R9 Frame(CFA, -16)
        CFI R8 Frame(CFA, -20)
        CFI R7 Frame(CFA, -24)
        CFI R6 Frame(CFA, -28)
        CFI R5 Frame(CFA, -32)
        CFI R4 Frame(CFA, -36)
        CFI CFA R13+36
//  108 	char tmp[256];
//  109 
//  110 	started=false;
        LDR      R4,??DataTable3  ;; buffers
//  111 
//  112 	BOOL detected=FALSE;
//  113 
//  114 	__original_w_chdir(GetDir(DIR_OTHER|MEM_INTERNAL));
//  115 	int f=__original_w_fopen(logname,WA_Write+WA_Create+WA_Truncate,0x1FF,0);
//  116 
//  117 	for(int memtype=0;memtype<trace_typescount;memtype++)
        LDR      R6,??trace_done_1  ;; `?<Constant "leak type \\"%s\\"\\n">`
        SUB      SP,SP,#+264
        CFI CFA R13+300
        MOV      R0,#+0
        STRB     R0,[R4, #+160]
        MOV      R1,#+0
        STR      R1,[SP, #+4]
        MOV      R0,#+9
        SWI      +261
        SWI      +759
        MOV      R3,#+0
        MOV      R2,#+255
        ORR      R2,R2,#0x100
        MOV      R1,#+74
        ADD      R0,R4,#+164
        SWI      +760
        MOV      R5,R0
        MOV      R7,#+0
//  118 	{
//  119 		if(buffers[memtype]->FirstFree)
??trace_done_2:
        ADD      R8,R4,R7, LSL #+2
        LDR      R0,[R8, #+0]
        LDRH     R0,[R0, #+2]
        CMP      R0,#+0
        BEQ      ??trace_done_3
//  120 		{
//  121 			detected=TRUE;
        MOV      R1,#+1
        STR      R1,[SP, #+4]
//  122 
//  123 			__original_w_fwrite(f,tmp,__original_sprintf(tmp,"leak type \"%s\"\n",leaktypes[memtype]));
        ADD      R0,R4,R7, LSL #+2
        LDR      R2,[R0, #+84]
        MOV      R1,R6
        ADD      R0,SP,#+8
        SWI      +276
        MOV      R2,R0
        ADD      R1,SP,#+8
        MOV      R0,R5
        SWI      +762
//  124 
//  125 			for(int j=0;j<buffers[memtype]->FirstFree;j+=LISTDATACOUNT)
        LDR      R0,[R8, #+0]
        MOV      R9,#+0
        LDRH     R0,[R0, #+2]
        CMP      R0,#+0
        BNE      ??trace_done_4
        B        ??trace_done_3
//  126 			{
//  127 				__original_w_fwrite(f,tmp,
//  128 									__original_sprintf(tmp,"- %s:%d (%x)\n",
//  129 											__original_List_Get(buffers[memtype],j+1),//file
//  130 											__original_List_Get(buffers[memtype],j+2),//line
//  131 											__original_List_Get(buffers[memtype],j)//value
//  132 												)
//  133 										);
??trace_done_5:
        MOV      R1,R9
        SWI      +429
        MOV      R10,R0
        LDR      R0,[R8, #+0]
        ADD      R1,R9,#+2
        SWI      +429
        MOV      R11,R0
        LDR      R0,[R8, #+0]
        ADD      R1,R9,#+1
        SWI      +429
        MOV      R2,R0
        PUSH     {R10}
        CFI CFA R13+304
        MOV      R3,R11
        ADD      R1,R6,#+16
        ADD      R0,SP,#+12
        SWI      +276
        MOV      R2,R0
        ADD      R1,SP,#+12
        MOV      R0,R5
        SWI      +762
//  134 			}
        ADD      R9,R9,#+3
        ADD      SP,SP,#+4
        CFI CFA R13+300
??trace_done_4:
        LDR      R0,[R8, #+0]
        LDRH     R1,[R0, #+2]
        CMP      R9,R1
        BLT      ??trace_done_5
//  135 		}
//  136 		__original_List_Destroy(buffers[memtype]);
??trace_done_3:
        LDR      R0,[R8, #+0]
//  137 	}
        ADD      R7,R7,#+1
        SWI      +362
        CMP      R7,#+17
        BLT      ??trace_done_2
//  138 
//  139 	if(!detected)
        LDR      R0,[SP, #+4]
        CMP      R0,#+0
        BNE      ??trace_done_6
//  140 		__original_w_fwrite(f,tmp, __original_sprintf(tmp,"no leaks detected\n") );
        ADD      R1,R6,#+32
        ADD      R0,SP,#+8
        SWI      +276
        MOV      R2,R0
        ADD      R1,SP,#+8
        MOV      R0,R5
        SWI      +762
//  141 
//  142 	if(buffers2[trace_list_file]->FirstFree)
??trace_done_6:
        LDR      R0,[R4, #+76]
        LDRH     R0,[R0, #+2]
        CMP      R0,#+0
        BEQ      ??trace_done_7
//  143 		__original_w_fwrite(f,tmp, __original_sprintf(tmp,"new/delete counter broken\n") );
        ADD      R1,R6,#+52
        ADD      R0,SP,#+8
        SWI      +276
        MOV      R2,R0
        ADD      R1,SP,#+8
        MOV      R0,R5
        SWI      +762
//  144 
//  145 	__original_w_fclose(f);
??trace_done_7:
        MOV      R0,R5
        SWI      +765
        LDR      R0,[R4, #+68]
        LDRH     R0,[R0, #+2]
        CMP      R0,#+0
        BEQ      ??trace_done_8
//  146 
//  147 	while(buffers2[trace_list_timers_id]->FirstFree)
//  148 	{
//  149 		u16 timerid=(u16)(int)__original_List_RemoveAt(buffers2[trace_list_timers_id],0);
??trace_done_9:
        LDR      R0,[R4, #+68]
        MOV      R1,#+0
        SWI      +377
        STRH     R0,[SP, #+0]
//  150 		__original_List_RemoveAt(buffers2[trace_list_timers_proc],0);
        LDR      R0,[R4, #+72]
        MOV      R1,#+0
        SWI      +377
//  151 		__original_Timer_Kill(&timerid);//pervent reboots
        MOV      R0,SP
        SWI      +298
//  152 	}
        LDR      R0,[R4, #+68]
        LDRH     R0,[R0, #+2]
        CMP      R0,#+0
        BNE      ??trace_done_9
//  153 
//  154 	for(int i=0;i<trace_list_size;i++)
??trace_done_8:
        MOV      R5,#+0
//  155 		__original_List_Destroy(buffers2[i]);
??trace_done_10:
        ADD      R0,R4,R5, LSL #+2
        LDR      R0,[R0, #+68]
        ADD      R5,R5,#+1
        SWI      +362
        CMP      R5,#+4
        BLT      ??trace_done_10
//  156 }
        ADD      SP,SP,#+264      ;; stack cleaning
        CFI CFA R13+36
        POP      {R4-R11,PC}      ;; return
        DATA
??trace_done_1:
        DC32     `?<Constant "leak type \\"%s\\"\\n">`
        CFI EndBlock cfiBlock3

        RSEG CODE:CODE:NOROOT(2)
        CFI Block cfiBlock4 Using cfiCommon0
        CFI NoFunction
        THUMB
??trace_alloc??rT:
        BX       PC
        Nop      
        CFI EndBlock cfiBlock4
        REQUIRE ??trace_alloc
//  157 

        RSEG CODE:CODE:NOROOT(2)
        CFI Block cfiBlock5 Using cfiCommon1
        CFI Function ??trace_alloc
        ARM
//  158 void trace_alloc(int mt, void* ptr, const char* file, int line)
//  159 {
??trace_alloc:
        PUSH     {R4-R7,LR}
        CFI ?RET Frame(CFA, -4)
        CFI R7 Frame(CFA, -8)
        CFI R6 Frame(CFA, -12)
        CFI R5 Frame(CFA, -16)
        CFI R4 Frame(CFA, -20)
        CFI CFA R13+20
//  160 	__original_List_InsertLast(buffers[mt],ptr);
        LDR      R7,??DataTable3  ;; buffers
        MOV      R4,R0
        LDR      R0,[R7, +R4, LSL #+2]
        MOV      R5,R2
        MOV      R6,R3
        SWI      +432
//  161 	__original_List_InsertLast(buffers[mt],(void*)file);
        LDR      R0,[R7, +R4, LSL #+2]
        MOV      R1,R5
        SWI      +432
//  162 	__original_List_InsertLast(buffers[mt],(void*)line);
        LDR      R0,[R7, +R4, LSL #+2]
        MOV      R1,R6
        SWI      +432
//  163 }
        POP      {R4-R7,PC}       ;; return
        CFI EndBlock cfiBlock5

        RSEG CODE:CODE:NOROOT(2)
        CFI Block cfiBlock6 Using cfiCommon0
        CFI NoFunction
        THUMB
??trace_alloc_ret??rT:
        BX       PC
        Nop      
        CFI EndBlock cfiBlock6
        REQUIRE ??trace_alloc_ret
//  164 

        RSEG CODE:CODE:NOROOT(2)
        CFI Block cfiBlock7 Using cfiCommon1
        CFI Function ??trace_alloc_ret
        ARM
//  165 void* trace_alloc_ret(int mt, void* ptr, void* badvalue, const char* file, int line)
//  166 {
??trace_alloc_ret:
        PUSH     {R4,LR}
        CFI ?RET Frame(CFA, -4)
        CFI R4 Frame(CFA, -8)
        CFI CFA R13+8
        MOV      R4,R1
        MOV      R1,R3
        LDR      R3,[SP, #+8]
//  167 	if( ptr != badvalue )
        CMP      R4,R2
        BEQ      ??trace_alloc_ret_1
//  168 		trace_alloc( mt, ptr, file, line);
        MOV      R2,R1
        MOV      R1,R4
        BL       ??trace_alloc
//  169 	return ptr;
??trace_alloc_ret_1:
        MOV      R0,R4
        POP      {R4,PC}          ;; return
        CFI EndBlock cfiBlock7
//  170 }

        RSEG CODE:CODE:NOROOT(2)
        CFI Block cfiBlock8 Using cfiCommon0
        CFI NoFunction
        THUMB
??trace_free??rT:
        BX       PC
        Nop      
        CFI EndBlock cfiBlock8
        REQUIRE ??trace_free
//  171 
//  172 

        RSEG CODE:CODE:NOROOT(2)
        CFI Block cfiBlock9 Using cfiCommon1
        CFI Function ??trace_free
        ARM
//  173 void trace_free(int mt,void* p, const char* file, int line)
//  174 {
??trace_free:
        PUSH     {R4-R9,LR}
        CFI ?RET Frame(CFA, -4)
        CFI R9 Frame(CFA, -8)
        CFI R8 Frame(CFA, -12)
        CFI R7 Frame(CFA, -16)
        CFI R6 Frame(CFA, -20)
        CFI R5 Frame(CFA, -24)
        CFI R4 Frame(CFA, -28)
        CFI CFA R13+28
//  175 	if(started)
        LDR      R7,??DataTable3  ;; buffers
        MOV      R4,R1
        LDRB     R1,[R7, #+160]
        MOV      R5,R2
        MOV      R6,R3
        CMP      R1,#+0
        POPEQ    {R4-R9,PC}
//  176 	{
//  177 		bool found=false;
//  178 		for(int i=0;i<buffers[mt]->FirstFree;i+=LISTDATACOUNT)
        MOV      R8,#+0
        ADD      R9,R7,R0, LSL #+2
        B        ??trace_free_1
??trace_free_2:
        ADD      R8,R8,#+3
??trace_free_1:
        LDR      R0,[R9, #+0]
        LDRH     R1,[R0, #+2]
        CMP      R8,R1
        BGE      ??trace_free_3
//  179 		{
//  180 			if(__original_List_Get(buffers[mt],i)==p)
        MOV      R1,R8
        SWI      +429
        CMP      R0,R4
        BNE      ??trace_free_2
//  181 			{
//  182 				for(int j=0;j<LISTDATACOUNT;j++)
        MOV      R4,#+0
//  183 					__original_List_RemoveAt(buffers[mt],i);
??trace_free_4:
        LDR      R0,[R9, #+0]
        MOV      R1,R8
        SWI      +377
        ADD      R4,R4,#+1
        CMP      R4,#+3
        POPGE    {R4-R9,PC}
        B        ??trace_free_4
//  184 				found=true;
//  185 				break;
//  186 			}
//  187 		}
//  188 		if(!found)
//  189 		{
//  190 			__original_List_InsertLast(buffers[trace_unallocated],(void*)p);
??trace_free_3:
        LDR      R0,[R7, #+64]
        MOV      R1,R4
        SWI      +432
//  191 			__original_List_InsertLast(buffers[trace_unallocated],(void*)file);
        LDR      R0,[R7, #+64]
        MOV      R1,R5
        SWI      +432
//  192 			__original_List_InsertLast(buffers[trace_unallocated],(void*)line);
        LDR      R0,[R7, #+64]
        MOV      R1,R6
        SWI      +432
//  193 		}
//  194 	}
//  195 }
        POP      {R4-R9,PC}       ;; return
        CFI EndBlock cfiBlock9

        RSEG CODE:CODE:NOROOT(2)
        DATA
??DataTable3:
        DC32     buffers

        RSEG CODE:CODE:NOROOT(2)
        CFI Block cfiBlock10 Using cfiCommon0
        CFI NoFunction
        THUMB
??findtimercb??rT:
        BX       PC
        Nop      
        CFI EndBlock cfiBlock10
        REQUIRE ??findtimercb
//  196 
//  197 

        RSEG CODE:CODE:NOROOT(2)
        CFI Block cfiBlock11 Using cfiCommon1
        CFI Function ??findtimercb
        ARM
//  198 static int findtimercb(void* listitem, void* itemtofind)
//  199 {
//  200 	return ! (listitem==itemtofind);
??findtimercb:
        CMP      R0,R1
        MOVNE    R0,#+1
        BXNE     LR
        MOV      R0,#+0
        BX       LR               ;; return
        CFI EndBlock cfiBlock11
//  201 }

        RSEG CODE:CODE:NOROOT(2)
        CFI Block cfiBlock12 Using cfiCommon0
        CFI NoFunction
        THUMB
??trace_timerkill??rT:
        BX       PC
        Nop      
        CFI EndBlock cfiBlock12
        REQUIRE ??trace_timerkill
//  202 

        RSEG CODE:CODE:NOROOT(2)
        CFI Block cfiBlock13 Using cfiCommon1
        CFI Function ??trace_timerkill
        ARM
//  203 void trace_timerkill(u16* timerid)
//  204 {
//  205 	int idx=__original_List_Find(buffers2[trace_list_timers_id],(void*)*timerid,findtimercb);
??trace_timerkill:
        LDR      R2,??DataTable6  ;; ??findtimercb
        PUSH     {R4-R6,LR}
        CFI ?RET Frame(CFA, -4)
        CFI R6 Frame(CFA, -8)
        CFI R5 Frame(CFA, -12)
        CFI R4 Frame(CFA, -16)
        CFI CFA R13+16
        LDR      R5,??DataTable11  ;; buffers
        MOV      R4,R0
        LDR      R0,[R5, #+68]
        LDRH     R1,[R4, #+0]
        SWI      +428
        MOV      R6,R0
//  206 	if(idx!=LIST_ERROR)
        MOV      R0,#+255
        ORR      R0,R0,#0xFF00
        CMP      R6,R0
        BEQ      ??trace_timerkill_1
//  207 	{
//  208 		__original_List_RemoveAt(buffers2[trace_list_timers_id],idx);
        LDR      R0,[R5, #+68]
        MOV      R1,R6
        SWI      +377
//  209 		__original_List_RemoveAt(buffers2[trace_list_timers_proc],idx);		
        LDR      R0,[R5, #+72]
        MOV      R1,R6
        SWI      +377
//  210 	}
//  211 	__original_Timer_Kill(timerid);
??trace_timerkill_1:
        MOV      R0,R4
        SWI      +298
//  212 }
        POP      {R4-R6,PC}       ;; return
        CFI EndBlock cfiBlock13

        RSEG CODE:CODE:NOROOT(2)
        CFI Block cfiBlock14 Using cfiCommon0
        CFI NoFunction
        THUMB
??trace_onTimer??rT:
        BX       PC
        Nop      
        CFI EndBlock cfiBlock14
        REQUIRE ??trace_onTimer
//  213 

        RSEG CODE:CODE:NOROOT(2)
        CFI Block cfiBlock15 Using cfiCommon1
        CFI Function ??trace_onTimer
        ARM
//  214 static void trace_onTimer(u16 timerID,LPARAM lparam)
//  215 {
//  216 	int idx=__original_List_Find(buffers2[trace_list_timers_id],(void*)timerID,findtimercb);
??trace_onTimer:
        LDR      R2,??DataTable6  ;; ??findtimercb
        PUSH     {R0,R4,R5,LR}
        CFI ?RET Frame(CFA, -4)
        CFI R5 Frame(CFA, -8)
        CFI R4 Frame(CFA, -12)
        CFI CFA R13+16
        LDR      R5,??DataTable11  ;; buffers
        MOV      R4,R1
        MOV      R1,R0
        LDR      R0,[R5, #+68]
        SWI      +428
//  217 	if(idx!=LIST_ERROR)
        MOV      R1,#+255
        ORR      R1,R1,#0xFF00
        CMP      R0,R1
        POPEQ    {R0,R4,R5,PC}
//  218 	{
//  219 		void(*onTimer)(u16,LPARAM)=(void(*)(u16,LPARAM))__original_List_Get(buffers2[trace_list_timers_proc],idx);
        MOV      R1,R0
        LDR      R0,[R5, #+72]
        SWI      +429
        MOV      R2,R0
//  220 		onTimer(timerID,lparam);
        LDRH     R0,[SP, #+0]
        MOV      R1,R4
        BLX      R2
//  221 		trace_timerkill(&timerID);
        MOV      R0,SP
        BL       ??trace_timerkill
//  222 	}
//  223 }
        POP      {R0,R4,R5,PC}    ;; return
        CFI EndBlock cfiBlock15

        RSEG CODE:CODE:NOROOT(2)
        DATA
??DataTable6:
        DC32     ??findtimercb

        RSEG CODE:CODE:NOROOT(2)
        CFI Block cfiBlock16 Using cfiCommon0
        CFI NoFunction
        THUMB
??trace_timerset??rT:
        BX       PC
        Nop      
        CFI EndBlock cfiBlock16
        REQUIRE ??trace_timerset
//  224 

        RSEG CODE:CODE:NOROOT(2)
        CFI Block cfiBlock17 Using cfiCommon1
        CFI Function ??trace_timerset
        ARM
//  225 u16 trace_timerset(int time, void(*onTimer)(u16 timerID,LPARAM lparam), LPARAM lparam)
//  226 {
??trace_timerset:
        PUSH     {R4-R6,LR}
        CFI ?RET Frame(CFA, -4)
        CFI R6 Frame(CFA, -8)
        CFI R5 Frame(CFA, -12)
        CFI R4 Frame(CFA, -16)
        CFI CFA R13+16
        MOV      R4,R1
//  227 	u16 ret=__original_Timer_Set(time,trace_onTimer,lparam);
        LDR      R1,??trace_timerset_1  ;; ??trace_onTimer
        SWI      +297
        MOVS     R5,R0
//  228 	if(ret)
        BEQ      ??trace_timerset_2
//  229 	{
//  230 		__original_List_InsertLast(buffers2[trace_list_timers_id],(void*)ret);
        LDR      R6,??DataTable11  ;; buffers
        MOV      R1,R5
        LDR      R0,[R6, #+68]
        SWI      +432
//  231 		__original_List_InsertLast(buffers2[trace_list_timers_proc],(void*)onTimer);
        LDR      R0,[R6, #+72]
        MOV      R1,R4
        SWI      +432
//  232 	}
//  233 	return ret;
??trace_timerset_2:
        MOV      R0,R5
        POP      {R4-R6,PC}       ;; return
        DATA
??trace_timerset_1:
        DC32     ??trace_onTimer
        CFI EndBlock cfiBlock17
//  234 }

        RSEG CODE:CODE:NOROOT(2)
        CFI Block cfiBlock18 Using cfiCommon0
        CFI NoFunction
        THUMB
??isallocatedstrid??rT:
        BX       PC
        Nop      
        CFI EndBlock cfiBlock18
        REQUIRE ??isallocatedstrid
//  235 
//  236 

        RSEG CODE:CODE:NOROOT(2)
        CFI Block cfiBlock19 Using cfiCommon1
        CFI Function ??isallocatedstrid
        ARM
//  237 bool isallocatedstrid(TEXTID strid)
//  238 {
//  239 	return (strid!=EMPTY_TEXTID) && ((strid&0xFFFF0000)!=0);
??isallocatedstrid:
        MVN      R1,#-1879048192
        CMP      R0,R1
        BEQ      ??isallocatedstrid_1
        LSR      R0,R0,#+16
        LSLS     R0,R0,#+16
        BXEQ     LR
        MOV      R0,#+1
        BX       LR
??isallocatedstrid_1:
        MOV      R0,#+0
        BX       LR               ;; return
        CFI EndBlock cfiBlock19
//  240 }

        RSEG CODE:CODE:NOROOT(2)
        CFI Block cfiBlock20 Using cfiCommon0
        CFI NoFunction
        THUMB
??isallocatediconid??rT:
        BX       PC
        Nop      
        CFI EndBlock cfiBlock20
        REQUIRE ??isallocatediconid
//  241 

        RSEG CODE:CODE:NOROOT(2)
        CFI Block cfiBlock21 Using cfiCommon1
        CFI Function ??isallocatediconid
        ARM
//  242 bool isallocatediconid(IMAGEID iconid)
//  243 {
//  244 	return iconid >= iconid_start && iconid <= iconid_end;
??isallocatediconid:
        LDR      R1,??DataTable11  ;; buffers
        LDR      R2,[R1, #+152]
        CMP      R0,R2
        LDRGE    R1,[R1, #+156]
        CMPGE    R1,R0
        MOVGE    R0,#+1
        BXGE     LR
        MOV      R0,#+0
        BX       LR               ;; return
        CFI EndBlock cfiBlock21
//  245 }

        RSEG CODE:CODE:NOROOT(2)
        CFI Block cfiBlock22 Using cfiCommon0
        CFI NoFunction
        THUMB
??__deleaker_pushfileline??rT:
        BX       PC
        Nop      
        CFI EndBlock cfiBlock22
        REQUIRE ??__deleaker_pushfileline
//  246 
//  247 

        RSEG CODE:CODE:NOROOT(2)
        CFI Block cfiBlock23 Using cfiCommon1
        CFI Function ??__deleaker_pushfileline
        ARM
//  248 void __deleaker_pushfileline( const char* __file__, int __line__ )
//  249 {
??__deleaker_pushfileline:
        PUSH     {R4,R5,LR}
        CFI ?RET Frame(CFA, -4)
        CFI R5 Frame(CFA, -8)
        CFI R4 Frame(CFA, -12)
        CFI CFA R13+12
//  250 	__original_List_InsertLast(buffers2[trace_list_file],(void*)__file__);
        LDR      R5,??DataTable11  ;; buffers
        MOV      R4,R1
        MOV      R1,R0
        LDR      R0,[R5, #+76]
        SWI      +432
//  251 	__original_List_InsertLast(buffers2[trace_list_line],(void*)__line__);
        LDR      R0,[R5, #+80]
        MOV      R1,R4
        SWI      +432
//  252 }
        POP      {R4,R5,PC}       ;; return
        CFI EndBlock cfiBlock23

        RSEG CODE:CODE:NOROOT(2)
        CFI Block cfiBlock24 Using cfiCommon0
        CFI NoFunction
        THUMB
??__deleaker_popfileline??rT:
        BX       PC
        Nop      
        CFI EndBlock cfiBlock24
        REQUIRE ??__deleaker_popfileline
//  253 

        RSEG CODE:CODE:NOROOT(2)
        CFI Block cfiBlock25 Using cfiCommon1
        CFI Function ??__deleaker_popfileline
        ARM
//  254 void __deleaker_popfileline( const char*& __file__, int& __line__ )
//  255 {
??__deleaker_popfileline:
        PUSH     {R4-R6,LR}
        CFI ?RET Frame(CFA, -4)
        CFI R6 Frame(CFA, -8)
        CFI R5 Frame(CFA, -12)
        CFI R4 Frame(CFA, -16)
        CFI CFA R13+16
//  256 	if(0==buffers2[trace_list_file]->FirstFree)
        LDR      R6,??DataTable11  ;; buffers
        MOV      R5,R0
        LDR      R0,[R6, #+76]
        MOV      R4,R1
        LDRH     R1,[R0, #+2]
        CMP      R1,#+0
        BNE      ??__deleaker_popfileline_1
//  257 	{
//  258 		__file__="internal error";
        LDR      R0,??__deleaker_popfileline_2  ;; `?<Constant "internal error">`
        STR      R0,[R5, #+0]
//  259 		__line__=-1;
        MVN      R0,#+0
        STR      R0,[R4, #+0]
        POP      {R4-R6,PC}
//  260 	}else
//  261 	{
//  262 		__file__=(char const*)__original_List_RemoveAt(buffers2[trace_list_file],buffers2[trace_list_file]->FirstFree-1);
??__deleaker_popfileline_1:
        SUB      R1,R1,#+1
        SWI      +377
        STR      R0,[R5, #+0]
//  263 		__line__=(int)__original_List_RemoveAt(buffers2[trace_list_line],buffers2[trace_list_line]->FirstFree-1);
        LDR      R0,[R6, #+80]
        LDRH     R1,[R0, #+2]
        SUB      R1,R1,#+1
        SWI      +377
        STR      R0,[R4, #+0]
//  264 	}
//  265 }
        POP      {R4-R6,PC}       ;; return
        DATA
??__deleaker_popfileline_2:
        DC32     `?<Constant "internal error">`
        CFI EndBlock cfiBlock25

        RSEG CODE:CODE:NOROOT(2)
        DATA
??DataTable11:
        DC32     buffers

        RSEG CODE:CODE:NOROOT(2)
        CFI Block cfiBlock26 Using cfiCommon0
        CFI NoFunction
        THUMB
`??operator delete??rT`:
        BX       PC
        Nop      
        CFI EndBlock cfiBlock26
        REQUIRE `??operator delete`
//  266 

        RSEG CODE:CODE:NOROOT(2)
        CFI Block cfiBlock27 Using cfiCommon1
        CFI Function `??operator delete`
        ARM
//  267 void operator delete(void* p)
//  268 { 
`??operator delete`:
        PUSH     {R4,LR}
        CFI ?RET Frame(CFA, -4)
        CFI R4 Frame(CFA, -8)
        CFI CFA R13+8
        SUB      SP,SP,#+8
        CFI CFA R13+16
//  269 	const char* file;
//  270 	int line;
//  271 	__deleaker_popfileline(file,line);
        ADD      R1,SP,#+4
        MOV      R4,R0
        MOV      R0,SP
        BL       ??__deleaker_popfileline
//  272 	__deleaker_mfree( file, line, p );
        LDR      R1,[SP, #+4]
        LDR      R0,[SP, #+0]
        MOV      R2,R4
        BL       ??__deleaker_mfree
//  273 }
        POP      {R0,R1,R4,PC}    ;; return
        CFI EndBlock cfiBlock27

        RSEG CODE:CODE:NOROOT(2)
        CFI Block cfiBlock28 Using cfiCommon0
        CFI NoFunction
        THUMB
`??operator delete[]??rT`:
        BX       PC
        Nop      
        CFI EndBlock cfiBlock28
        REQUIRE `??operator delete[]`
//  274 

        RSEG CODE:CODE:NOROOT(2)
        CFI Block cfiBlock29 Using cfiCommon1
        CFI Function `??operator delete[]`
        ARM
//  275 void operator delete[](void* p)
//  276 {
`??operator delete[]`:
        PUSH     {R4,LR}
        CFI ?RET Frame(CFA, -4)
        CFI R4 Frame(CFA, -8)
        CFI CFA R13+8
        SUB      SP,SP,#+8
        CFI CFA R13+16
//  277 	const char* file;
//  278 	int line;
//  279 	__deleaker_popfileline(file,line);
        ADD      R1,SP,#+4
        MOV      R4,R0
        MOV      R0,SP
        BL       ??__deleaker_popfileline
//  280 	__deleaker_mfree( file, line, p );
        LDR      R1,[SP, #+4]
        LDR      R0,[SP, #+0]
        MOV      R2,R4
        BL       ??__deleaker_mfree
//  281 }
        POP      {R0,R1,R4,PC}    ;; return
        CFI EndBlock cfiBlock29

        RSEG CODE:CODE:NOROOT(2)
        CFI Block cfiBlock30 Using cfiCommon0
        CFI NoFunction
        THUMB
`??operator new??rT`:
        BX       PC
        Nop      
        CFI EndBlock cfiBlock30
        REQUIRE `??operator new`
//  282 

        RSEG CODE:CODE:NOROOT(2)
        CFI Block cfiBlock31 Using cfiCommon1
        CFI Function `??operator new`
        ARM
//  283 void* operator new(size_t sz)
//  284 {
`??operator new`:
        PUSH     {R4,LR}
        CFI ?RET Frame(CFA, -4)
        CFI R4 Frame(CFA, -8)
        CFI CFA R13+8
        SUB      SP,SP,#+8
        CFI CFA R13+16
//  285 	const char* file;
//  286 	int line;
//  287 	__deleaker_popfileline(file,line);
        ADD      R1,SP,#+4
        MOV      R4,R0
        MOV      R0,SP
        BL       ??__deleaker_popfileline
//  288 	return __deleaker_malloc( file, line, sz);
        LDR      R1,[SP, #+4]
        LDR      R0,[SP, #+0]
        MOV      R2,R4
        BL       ??__deleaker_malloc
        POP      {R1,R2,R4,PC}    ;; return
        CFI EndBlock cfiBlock31
//  289 };

        RSEG CODE:CODE:NOROOT(2)
        CFI Block cfiBlock32 Using cfiCommon0
        CFI NoFunction
        THUMB
`??operator new[]??rT`:
        BX       PC
        Nop      
        CFI EndBlock cfiBlock32
        REQUIRE `??operator new[]`
//  290 

        RSEG CODE:CODE:NOROOT(2)
        CFI Block cfiBlock33 Using cfiCommon1
        CFI Function `??operator new[]`
        ARM
//  291 void* operator new[](size_t sz)
//  292 {
`??operator new[]`:
        PUSH     {R4,LR}
        CFI ?RET Frame(CFA, -4)
        CFI R4 Frame(CFA, -8)
        CFI CFA R13+8
        SUB      SP,SP,#+8
        CFI CFA R13+16
//  293 	const char* file;
//  294 	int line;
//  295 	__deleaker_popfileline(file,line);
        ADD      R1,SP,#+4
        MOV      R4,R0
        MOV      R0,SP
        BL       ??__deleaker_popfileline
//  296 	return __deleaker_malloc( file, line, sz);
        LDR      R1,[SP, #+4]
        LDR      R0,[SP, #+0]
        MOV      R2,R4
        BL       ??__deleaker_malloc
        POP      {R1,R2,R4,PC}    ;; return
        CFI EndBlock cfiBlock33
//  297 };

        RSEG CODE:CODE:NOROOT(2)
        CFI Block cfiBlock34 Using cfiCommon0
        CFI NoFunction
        THUMB
`??operator delete??rT_1`:
        BX       PC
        Nop      
        CFI EndBlock cfiBlock34
        REQUIRE `??operator delete_1`
//  298 

        RSEG CODE:CODE:NOROOT(2)
        CFI Block cfiBlock35 Using cfiCommon1
        CFI Function `??operator delete_1`
        ARM
//  299 void operator delete (void*, void*)
//  300 {
`??operator delete_1`:
        PUSH     {LR}
        CFI ?RET Frame(CFA, -4)
        CFI CFA R13+4
        SUB      SP,SP,#+8
        CFI CFA R13+12
//  301 	const char* file;
//  302 	int line;
//  303 	__deleaker_popfileline(file,line);
        ADD      R1,SP,#+4
        MOV      R0,SP
        BL       ??__deleaker_popfileline
//  304 }
        POP      {R0,R1,PC}       ;; return
        CFI EndBlock cfiBlock35

        RSEG CODE:CODE:NOROOT(2)
        CFI Block cfiBlock36 Using cfiCommon0
        CFI NoFunction
        THUMB
`??operator delete[]??rT_1`:
        BX       PC
        Nop      
        CFI EndBlock cfiBlock36
        REQUIRE `??operator delete[]_1`
//  305 

        RSEG CODE:CODE:NOROOT(2)
        CFI Block cfiBlock37 Using cfiCommon1
        CFI Function `??operator delete[]_1`
        ARM
//  306 void operator delete[] (void*, void*)
//  307 {
`??operator delete[]_1`:
        PUSH     {LR}
        CFI ?RET Frame(CFA, -4)
        CFI CFA R13+4
        SUB      SP,SP,#+8
        CFI CFA R13+12
//  308 	const char* file;
//  309 	int line;
//  310 	__deleaker_popfileline(file,line);
        ADD      R1,SP,#+4
        MOV      R0,SP
        BL       ??__deleaker_popfileline
//  311 }
        POP      {R0,R1,PC}       ;; return
        CFI EndBlock cfiBlock37

        RSEG CODE:CODE:NOROOT(2)
        CFI Block cfiBlock38 Using cfiCommon0
        CFI NoFunction
        THUMB
`??operator new??rT_1`:
        BX       PC
        Nop      
        CFI EndBlock cfiBlock38
        REQUIRE `??operator new_1`
//  312 

        RSEG CODE:CODE:NOROOT(2)
        CFI Block cfiBlock39 Using cfiCommon1
        CFI Function `??operator new_1`
        ARM
//  313 void* operator new(size_t size, void* p)
//  314 {
`??operator new_1`:
        PUSH     {R4,LR}
        CFI ?RET Frame(CFA, -4)
        CFI R4 Frame(CFA, -8)
        CFI CFA R13+8
        SUB      SP,SP,#+8
        CFI CFA R13+16
//  315 	const char* file;
//  316 	int line;
//  317 	__deleaker_popfileline(file,line);
        MOV      R0,SP
        MOV      R4,R1
        ADD      R1,SP,#+4
        BL       ??__deleaker_popfileline
//  318 	return p;
        MOV      R0,R4
        POP      {R1,R2,R4,PC}    ;; return
        CFI EndBlock cfiBlock39
//  319 }

        RSEG CODE:CODE:NOROOT(2)
        CFI Block cfiBlock40 Using cfiCommon0
        CFI NoFunction
        THUMB
`??operator new[]??rT_1`:
        BX       PC
        Nop      
        CFI EndBlock cfiBlock40
        REQUIRE `??operator new[]_1`
//  320 

        RSEG CODE:CODE:NOROOT(2)
        CFI Block cfiBlock41 Using cfiCommon1
        CFI Function `??operator new[]_1`
        ARM
//  321 void* operator new[](size_t size, void* p)
//  322 {
`??operator new[]_1`:
        PUSH     {R4,LR}
        CFI ?RET Frame(CFA, -4)
        CFI R4 Frame(CFA, -8)
        CFI CFA R13+8
        SUB      SP,SP,#+8
        CFI CFA R13+16
//  323 	const char* file;
//  324 	int line;
//  325 	__deleaker_popfileline(file,line);
        MOV      R0,SP
        MOV      R4,R1
        ADD      R1,SP,#+4
        BL       ??__deleaker_popfileline
//  326 	return p;
        MOV      R0,R4
        POP      {R1,R2,R4,PC}    ;; return
        CFI EndBlock cfiBlock41
//  327 }

        RSEG CODE:CODE:NOROOT(2)
        CFI Block cfiBlock42 Using cfiCommon0
        CFI NoFunction
        THUMB
??__deleaker_malloc??rT:
        BX       PC
        Nop      
        CFI EndBlock cfiBlock42
        REQUIRE ??__deleaker_malloc
//  328 
//  329 //---------------------------------------------------------------------------
//  330 
//  331 
//  332 
//  333 
//  334 

        RSEG CODE:CODE:NOROOT(2)
        CFI Block cfiBlock43 Using cfiCommon1
        CFI Function ??__deleaker_malloc
        ARM
//  335 void* __deleaker_malloc( const char* __file__, int __line__, int size )
//  336 {
??__deleaker_malloc:
        PUSH     {R4-R6,LR}
        CFI ?RET Frame(CFA, -4)
        CFI R6 Frame(CFA, -8)
        CFI R5 Frame(CFA, -12)
        CFI R4 Frame(CFA, -16)
        CFI CFA R13+16
        MOV      R4,R0
        MOV      R5,R1
        MOV      R0,R2
//  337 	void* ret = __original_malloc(size);
        SWI      +259
        MOVS     R6,R0
//  338 	if(ret)trace_alloc(trace_memory, (void*)ret, __file__, __line__);
        BEQ      ??__deleaker_malloc_1
        MOV      R3,R5
        MOV      R2,R4
        MOV      R1,R6
        MOV      R0,#+0
        BL       ??trace_alloc
//  339 	return ret;
??__deleaker_malloc_1:
        MOV      R0,R6
        POP      {R4-R6,PC}       ;; return
        CFI EndBlock cfiBlock43
//  340 }

        RSEG CODE:CODE:NOROOT(2)
        CFI Block cfiBlock44 Using cfiCommon0
        CFI NoFunction
        THUMB
??mfree_??rT:
        BX       PC
        Nop      
        CFI EndBlock cfiBlock44
        REQUIRE ??mfree_
//  341 

        RSEG CODE:CODE:NOROOT(2)
        CFI Block cfiBlock45 Using cfiCommon1
        CFI Function ??mfree_
        ARM
//  342 void mfree_(void* p)
//  343 {
//  344 	mfree(p);
??mfree_:
        MOV      R2,R0
        LDR      R0,??mfree__1    ;; `?<Constant "C:\\\\Users\\\\Faby\\\\Desktop...">`
        MOV      R1,#+344
        B        ??__deleaker_mfree  ;; tailcall
        DATA
??mfree__1:
        DC32     `?<Constant "C:\\\\Users\\\\Faby\\\\Desktop...">`
        CFI EndBlock cfiBlock45
//  345 }

        RSEG CODE:CODE:NOROOT(2)
        CFI Block cfiBlock46 Using cfiCommon0
        CFI NoFunction
        THUMB
??__deleaker_mfree_adr??rT:
        BX       PC
        Nop      
        CFI EndBlock cfiBlock46
        REQUIRE ??__deleaker_mfree_adr
//  346 

        RSEG CODE:CODE:NOROOT(2)
        CFI Block cfiBlock47 Using cfiCommon1
        CFI Function ??__deleaker_mfree_adr
        ARM
//  347 void* __deleaker_mfree_adr( const char* __file__, int __line__ )
//  348 {
//  349 	return (void*)mfree_;
??__deleaker_mfree_adr:
        LDR      R0,??__deleaker_mfree_adr_1  ;; ??mfree_
        BX       LR               ;; return
        DATA
??__deleaker_mfree_adr_1:
        DC32     ??mfree_
        CFI EndBlock cfiBlock47
//  350 }

        RSEG CODE:CODE:NOROOT(2)
        CFI Block cfiBlock48 Using cfiCommon0
        CFI NoFunction
        THUMB
??__deleaker_mfree??rT:
        BX       PC
        Nop      
        CFI EndBlock cfiBlock48
        REQUIRE ??__deleaker_mfree
//  351 

        RSEG CODE:CODE:NOROOT(2)
        CFI Block cfiBlock49 Using cfiCommon1
        CFI Function ??__deleaker_mfree
        ARM
//  352 void __deleaker_mfree( const char* __file__, int __line__, void* p )
//  353 {
??__deleaker_mfree:
        PUSH     {R4,LR}
        CFI ?RET Frame(CFA, -4)
        CFI R4 Frame(CFA, -8)
        CFI CFA R13+8
//  354 	trace_free(trace_memory, p, __file__, __line__);
        MOV      R3,R1
        MOV      R4,R2
        MOV      R2,R0
        MOV      R1,R4
        MOV      R0,#+0
        BL       ??trace_free
//  355 	__original_mfree(p);
        MOV      R0,R4
        SWI      +260
//  356 }
        POP      {R4,PC}          ;; return
        CFI EndBlock cfiBlock49

        RSEG CODE:CODE:NOROOT(2)
        CFI Block cfiBlock50 Using cfiCommon0
        CFI NoFunction
        THUMB
??__deleaker_CreateBook??rT:
        BX       PC
        Nop      
        CFI EndBlock cfiBlock50
        REQUIRE ??__deleaker_CreateBook
//  357 

        RSEG CODE:CODE:NOROOT(2)
        CFI Block cfiBlock51 Using cfiCommon1
        CFI Function ??__deleaker_CreateBook
        ARM
//  358 int __deleaker_CreateBook( const char* __file__, int __line__, BOOK* pbook, void (*onClose)( BOOK* ), const PAGE_DESC* bp, const char* name, int ParentBookID, APP_DESC* __unknwnargname6 )
//  359 {
??__deleaker_CreateBook:
        PUSH     {R4-R11,LR}
        CFI ?RET Frame(CFA, -4)
        CFI R11 Frame(CFA, -8)
        CFI R10 Frame(CFA, -12)
        CFI R9 Frame(CFA, -16)
        CFI R8 Frame(CFA, -20)
        CFI R7 Frame(CFA, -24)
        CFI R6 Frame(CFA, -28)
        CFI R5 Frame(CFA, -32)
        CFI R4 Frame(CFA, -36)
        CFI CFA R13+36
        LDR      R8,[SP, #+36]
        LDR      R9,[SP, #+40]
        LDR      R10,[SP, #+44]
        LDR      R11,[SP, #+48]
        MOV      R4,R0
        MOV      R5,R1
        MOV      R6,R2
        MOV      R7,R3
//  360 	trace_free(trace_memory, pbook, __file__, __line__);
        MOV      R3,R5
        MOV      R2,R4
        MOV      R1,R6
        MOV      R0,#+0
        BL       ??trace_free
//  361 	trace_alloc(trace_book, pbook, __file__, __line__);
        MOV      R3,R5
        MOV      R2,R4
        MOV      R1,R6
        MOV      R0,#+10
        BL       ??trace_alloc
//  362 	return __original_CreateBook(pbook, onClose, bp, name, ParentBookID, __unknwnargname6);
        PUSH     {R11}
        CFI CFA R13+40
        PUSH     {R10}
        CFI CFA R13+44
        MOV      R3,R9
        MOV      R2,R8
        MOV      R1,R7
        MOV      R0,R6
        SWI      +299
        POP      {R1,R2,R4-R11,PC}  ;; return
        CFI EndBlock cfiBlock51
//  363 }

        RSEG CODE:CODE:NOROOT(2)
        CFI Block cfiBlock52 Using cfiCommon0
        CFI NoFunction
        THUMB
??__deleaker_FreeBook??rT:
        BX       PC
        Nop      
        CFI EndBlock cfiBlock52
        REQUIRE ??__deleaker_FreeBook
//  364 

        RSEG CODE:CODE:NOROOT(2)
        CFI Block cfiBlock53 Using cfiCommon1
        CFI Function ??__deleaker_FreeBook
        ARM
//  365 void __deleaker_FreeBook( const char* __file__, int __line__, BOOK* book )
//  366 {
??__deleaker_FreeBook:
        PUSH     {R4,LR}
        CFI ?RET Frame(CFA, -4)
        CFI R4 Frame(CFA, -8)
        CFI CFA R13+8
//  367 	trace_free(trace_book, book, __file__, __line__);
        MOV      R3,R1
        MOV      R4,R2
        MOV      R2,R0
        MOV      R1,R4
        MOV      R0,#+10
        BL       ??trace_free
//  368 	__original_FreeBook(book);
        MOV      R0,R4
        SWI      +303
//  369 }
        POP      {R4,PC}          ;; return
        CFI EndBlock cfiBlock53

        RSEG CODE:CODE:NOROOT(2)
        CFI Block cfiBlock54 Using cfiCommon0
        CFI NoFunction
        THUMB
??__deleaker_BookObj_KillBook??rT:
        BX       PC
        Nop      
        CFI EndBlock cfiBlock54
        REQUIRE ??__deleaker_BookObj_KillBook
//  370 

        RSEG CODE:CODE:NOROOT(2)
        CFI Block cfiBlock55 Using cfiCommon1
        CFI Function ??__deleaker_BookObj_KillBook
        ARM
//  371 void __deleaker_BookObj_KillBook( const char* __file__, int __line__, BOOK* book )
//  372 {
??__deleaker_BookObj_KillBook:
        PUSH     {R4,LR}
        CFI ?RET Frame(CFA, -4)
        CFI R4 Frame(CFA, -8)
        CFI CFA R13+8
//  373 	trace_free(trace_book, book, __file__, __line__);
        MOV      R3,R1
        MOV      R4,R2
        MOV      R2,R0
        MOV      R1,R4
        MOV      R0,#+10
        BL       ??trace_free
//  374 	__original_BookObj_KillBook(book);
        MOV      R0,R4
        SWI      +300
//  375 }
        POP      {R4,PC}          ;; return
        CFI EndBlock cfiBlock55

        RSEG CODE:CODE:NOROOT(2)
        CFI Block cfiBlock56 Using cfiCommon0
        CFI NoFunction
        THUMB
??__deleaker_List_Create??rT:
        BX       PC
        Nop      
        CFI EndBlock cfiBlock56
        REQUIRE ??__deleaker_List_Create
//  376 

        RSEG CODE:CODE:NOROOT(2)
        CFI Block cfiBlock57 Using cfiCommon1
        CFI Function ??__deleaker_List_Create
        ARM
//  377 LIST* __deleaker_List_Create( const char* __file__, int __line__ )
//  378 {
??__deleaker_List_Create:
        PUSH     {R4-R6,LR}
        CFI ?RET Frame(CFA, -4)
        CFI R6 Frame(CFA, -8)
        CFI R5 Frame(CFA, -12)
        CFI R4 Frame(CFA, -16)
        CFI CFA R13+16
        MOV      R4,R0
        MOV      R5,R1
//  379 	LIST* ret = __original_List_Create();
        SWI      +361
        MOVS     R6,R0
//  380 	if(ret)trace_alloc(trace_memory, (void*)ret, __file__, __line__);
        BEQ      ??__deleaker_List_Create_1
        MOV      R3,R5
        MOV      R2,R4
        MOV      R1,R6
        MOV      R0,#+0
        BL       ??trace_alloc
//  381 	return ret;
??__deleaker_List_Create_1:
        MOV      R0,R6
        POP      {R4-R6,PC}       ;; return
        CFI EndBlock cfiBlock57
//  382 }

        RSEG CODE:CODE:NOROOT(2)
        CFI Block cfiBlock58 Using cfiCommon0
        CFI NoFunction
        THUMB
??__deleaker_List_Destroy??rT:
        BX       PC
        Nop      
        CFI EndBlock cfiBlock58
        REQUIRE ??__deleaker_List_Destroy
//  383 

        RSEG CODE:CODE:NOROOT(2)
        CFI Block cfiBlock59 Using cfiCommon1
        CFI Function ??__deleaker_List_Destroy
        ARM
//  384 void __deleaker_List_Destroy( const char* __file__, int __line__, LIST* lst )
//  385 {
??__deleaker_List_Destroy:
        PUSH     {R4,LR}
        CFI ?RET Frame(CFA, -4)
        CFI R4 Frame(CFA, -8)
        CFI CFA R13+8
//  386 	trace_free(trace_memory, lst, __file__, __line__);
        MOV      R3,R1
        MOV      R4,R2
        MOV      R2,R0
        MOV      R1,R4
        MOV      R0,#+0
        BL       ??trace_free
//  387 	__original_List_Destroy(lst);
        MOV      R0,R4
        SWI      +362
//  388 }
        POP      {R4,PC}          ;; return
        CFI EndBlock cfiBlock59

        RSEG CODE:CODE:NOROOT(2)
        CFI Block cfiBlock60 Using cfiCommon0
        CFI NoFunction
        THUMB
??__deleaker_manifest_GetParam??rT:
        BX       PC
        Nop      
        CFI EndBlock cfiBlock60
        REQUIRE ??__deleaker_manifest_GetParam
//  389 

        RSEG CODE:CODE:NOROOT(2)
        CFI Block cfiBlock61 Using cfiCommon1
        CFI Function ??__deleaker_manifest_GetParam
        ARM
//  390 char* __deleaker_manifest_GetParam( const char* __file__, int __line__, const char* buf, const char* param_name, int unk )
//  391 {
??__deleaker_manifest_GetParam:
        PUSH     {R4-R6,LR}
        CFI ?RET Frame(CFA, -4)
        CFI R6 Frame(CFA, -8)
        CFI R5 Frame(CFA, -12)
        CFI R4 Frame(CFA, -16)
        CFI CFA R13+16
        MOV      R4,R0
        MOV      R5,R1
        MOV      R0,R2
        LDR      R2,[SP, #+16]
        MOV      R1,R3
//  392 	char* ret = __original_manifest_GetParam(buf, param_name, unk);
        SWI      +373
        MOVS     R6,R0
//  393 	if(ret)trace_alloc(trace_memory, (void*)ret, __file__, __line__);
        BEQ      ??__deleaker_manifest_GetParam_1
        MOV      R3,R5
        MOV      R2,R4
        MOV      R1,R6
        MOV      R0,#+0
        BL       ??trace_alloc
//  394 	return ret;
??__deleaker_manifest_GetParam_1:
        MOV      R0,R6
        POP      {R4-R6,PC}       ;; return
        CFI EndBlock cfiBlock61
//  395 }

        RSEG CODE:CODE:NOROOT(2)
        CFI Block cfiBlock62 Using cfiCommon0
        CFI NoFunction
        THUMB
??__deleaker_AllocDirHandle??rT:
        BX       PC
        Nop      
        CFI EndBlock cfiBlock62
        REQUIRE ??__deleaker_AllocDirHandle
//  396 

        RSEG CODE:CODE:NOROOT(2)
        CFI Block cfiBlock63 Using cfiCommon1
        CFI Function ??__deleaker_AllocDirHandle
        ARM
//  397 DIR_HANDLE* __deleaker_AllocDirHandle( const char* __file__, int __line__, const wchar_t* path )
//  398 {
??__deleaker_AllocDirHandle:
        PUSH     {R4-R6,LR}
        CFI ?RET Frame(CFA, -4)
        CFI R6 Frame(CFA, -8)
        CFI R5 Frame(CFA, -12)
        CFI R4 Frame(CFA, -16)
        CFI CFA R13+16
        MOV      R4,R0
        MOV      R5,R1
        MOV      R0,R2
//  399 	DIR_HANDLE* ret = __original_AllocDirHandle(path);
        SWI      +285
        MOVS     R6,R0
//  400 	if(ret)trace_alloc(trace_memory, (void*)ret, __file__, __line__);
        BEQ      ??__deleaker_AllocDirHandle_1
        MOV      R3,R5
        MOV      R2,R4
        MOV      R1,R6
        MOV      R0,#+0
        BL       ??trace_alloc
//  401 	return ret;
??__deleaker_AllocDirHandle_1:
        MOV      R0,R6
        POP      {R4-R6,PC}       ;; return
        CFI EndBlock cfiBlock63
//  402 }

        RSEG CODE:CODE:NOROOT(2)
        CFI Block cfiBlock64 Using cfiCommon0
        CFI NoFunction
        THUMB
??__deleaker_DestroyDirHandle??rT:
        BX       PC
        Nop      
        CFI EndBlock cfiBlock64
        REQUIRE ??__deleaker_DestroyDirHandle
//  403 

        RSEG CODE:CODE:NOROOT(2)
        CFI Block cfiBlock65 Using cfiCommon1
        CFI Function ??__deleaker_DestroyDirHandle
        ARM
//  404 void __deleaker_DestroyDirHandle( const char* __file__, int __line__, DIR_HANDLE* handle )
//  405 {
??__deleaker_DestroyDirHandle:
        PUSH     {R4,LR}
        CFI ?RET Frame(CFA, -4)
        CFI R4 Frame(CFA, -8)
        CFI CFA R13+8
//  406 	trace_free(trace_memory, handle, __file__, __line__);
        MOV      R3,R1
        MOV      R4,R2
        MOV      R2,R0
        MOV      R1,R4
        MOV      R0,#+0
        BL       ??trace_free
//  407 	__original_DestroyDirHandle(handle);
        MOV      R0,R4
        SWI      +596
//  408 }
        POP      {R4,PC}          ;; return
        CFI EndBlock cfiBlock65

        RSEG CODE:CODE:NOROOT(2)
        CFI Block cfiBlock66 Using cfiCommon0
        CFI NoFunction
        THUMB
??__deleaker_GUIObject_Create??rT:
        BX       PC
        Nop      
        CFI EndBlock cfiBlock66
        REQUIRE ??__deleaker_GUIObject_Create
//  409 

        RSEG CODE:CODE:NOROOT(2)
        CFI Block cfiBlock67 Using cfiCommon1
        CFI Function ??__deleaker_GUIObject_Create
        ARM
//  410 int __deleaker_GUIObject_Create( const char* __file__, int __line__, GUI* __unknwnargname1, void (*GuiDestroy)( GUI* ), void (*DispDescCreate)( DISP_DESC* ), BOOK* __unknwnargname4, void (*DispObjCallBack)( DISP_OBJ*, void* msg, GUI* ), int display, int size_of_gui )
//  411 {
??__deleaker_GUIObject_Create:
        PUSH     {R3-R11,LR}
        CFI ?RET Frame(CFA, -4)
        CFI R11 Frame(CFA, -8)
        CFI R10 Frame(CFA, -12)
        CFI R9 Frame(CFA, -16)
        CFI R8 Frame(CFA, -20)
        CFI R7 Frame(CFA, -24)
        CFI R6 Frame(CFA, -28)
        CFI R5 Frame(CFA, -32)
        CFI R4 Frame(CFA, -36)
        CFI CFA R13+40
        LDR      R7,[SP, #+40]
        LDR      R8,[SP, #+44]
        LDR      R9,[SP, #+48]
        LDR      R10,[SP, #+52]
        LDR      R11,[SP, #+56]
        MOV      R4,R0
        MOV      R5,R1
        MOV      R6,R2
//  412 	trace_free(trace_memory, __unknwnargname1, __file__, __line__);
        MOV      R3,R5
        MOV      R2,R4
        MOV      R1,R6
        MOV      R0,#+0
        BL       ??trace_free
//  413 	trace_alloc(trace_gui, __unknwnargname1, __file__, __line__);
        MOV      R3,R5
        MOV      R2,R4
        MOV      R1,R6
        MOV      R0,#+9
        BL       ??trace_alloc
//  414 	return __original_GUIObject_Create(__unknwnargname1, GuiDestroy, DispDescCreate, __unknwnargname4, DispObjCallBack, display, size_of_gui);
        PUSH     {R11}
        CFI CFA R13+44
        PUSH     {R10}
        CFI CFA R13+48
        PUSH     {R9}
        CFI CFA R13+52
        LDR      R1,[SP, #+12]
        MOV      R3,R8
        MOV      R2,R7
        MOV      R0,R6
        SWI      +496
        ADD      SP,SP,#+16
        CFI CFA R13+36
        POP      {R4-R11,PC}      ;; return
        CFI EndBlock cfiBlock67
//  415 }

        RSEG CODE:CODE:NOROOT(2)
        CFI Block cfiBlock68 Using cfiCommon0
        CFI NoFunction
        THUMB
??__deleaker_GUIObject_Destroy??rT:
        BX       PC
        Nop      
        CFI EndBlock cfiBlock68
        REQUIRE ??__deleaker_GUIObject_Destroy
//  416 

        RSEG CODE:CODE:NOROOT(2)
        CFI Block cfiBlock69 Using cfiCommon1
        CFI Function ??__deleaker_GUIObject_Destroy
        ARM
//  417 GUI* __deleaker_GUIObject_Destroy( const char* __file__, int __line__, GUI* __unknwnargname1 )
//  418 {
??__deleaker_GUIObject_Destroy:
        PUSH     {R4,LR}
        CFI ?RET Frame(CFA, -4)
        CFI R4 Frame(CFA, -8)
        CFI CFA R13+8
//  419 	trace_free(trace_gui, __unknwnargname1, __file__, __line__);
        MOV      R3,R1
        MOV      R4,R2
        MOV      R2,R0
        MOV      R1,R4
        MOV      R0,#+9
        BL       ??trace_free
//  420 	return __original_GUIObject_Destroy(__unknwnargname1);
        MOV      R0,R4
        SWI      +462
        POP      {R4,PC}          ;; return
        CFI EndBlock cfiBlock69
//  421 }

        RSEG CODE:CODE:NOROOT(2)
        CFI Block cfiBlock70 Using cfiCommon0
        CFI NoFunction
        THUMB
??__deleaker__fopen??rT:
        BX       PC
        Nop      
        CFI EndBlock cfiBlock70
        REQUIRE ??__deleaker__fopen
//  422 

        RSEG CODE:CODE:NOROOT(2)
        CFI Block cfiBlock71 Using cfiCommon1
        CFI Function ??__deleaker__fopen
        ARM
//  423 int __deleaker__fopen( const char* __file__, int __line__, const wchar_t* filpath, const wchar_t* filname, unsigned int mode, unsigned int rights, FILELISTITEM* destfname )
//  424 {
??__deleaker__fopen:
        PUSH     {R4-R6,LR}
        CFI ?RET Frame(CFA, -4)
        CFI R6 Frame(CFA, -8)
        CFI R5 Frame(CFA, -12)
        CFI R4 Frame(CFA, -16)
        CFI CFA R13+16
        LDR      R12,[SP, #+24]
        MOV      R4,R0
        MOV      R5,R1
        MOV      R0,R2
        LDR      R2,[SP, #+16]
        MOV      R1,R3
        LDR      R3,[SP, #+20]
//  425 	int ret = __original__fopen(filpath, filname, mode, rights, destfname);
        PUSH     {R12}
        CFI CFA R13+20
        SWI      +278
        MOV      R6,R0
//  426 	if(ret!=-1)trace_alloc(trace_file, (void*)ret, __file__, __line__);
        CMN      R6,#+1
        ADD      SP,SP,#+4
        CFI CFA R13+16
        BEQ      ??__deleaker__fopen_1
        MOV      R3,R5
        MOV      R2,R4
        MOV      R1,R6
        MOV      R0,#+4
        BL       ??trace_alloc
//  427 	return ret;
??__deleaker__fopen_1:
        MOV      R0,R6
        POP      {R4-R6,PC}       ;; return
        CFI EndBlock cfiBlock71
//  428 }

        RSEG CODE:CODE:NOROOT(2)
        CFI Block cfiBlock72 Using cfiCommon0
        CFI NoFunction
        THUMB
??__deleaker_fopen??rT:
        BX       PC
        Nop      
        CFI EndBlock cfiBlock72
        REQUIRE ??__deleaker_fopen
//  429 

        RSEG CODE:CODE:NOROOT(2)
        CFI Block cfiBlock73 Using cfiCommon1
        CFI Function ??__deleaker_fopen
        ARM
//  430 int __deleaker_fopen( const char* __file__, int __line__, const wchar_t* fname, int mode, int rights )
//  431 {
??__deleaker_fopen:
        PUSH     {R4-R6,LR}
        CFI ?RET Frame(CFA, -4)
        CFI R6 Frame(CFA, -8)
        CFI R5 Frame(CFA, -12)
        CFI R4 Frame(CFA, -16)
        CFI CFA R13+16
        MOV      R4,R0
        MOV      R5,R1
        MOV      R0,R2
        LDR      R2,[SP, #+16]
        MOV      R1,R3
//  432 	int ret = __original_fopen(fname, mode, rights);
        SWI      +262
        MOV      R6,R0
//  433 	if(ret!=-1)trace_alloc(trace_file, (void*)ret, __file__, __line__);
        CMN      R6,#+1
        BEQ      ??__deleaker_fopen_1
        MOV      R3,R5
        MOV      R2,R4
        MOV      R1,R6
        MOV      R0,#+4
        BL       ??trace_alloc
//  434 	return ret;
??__deleaker_fopen_1:
        MOV      R0,R6
        POP      {R4-R6,PC}       ;; return
        CFI EndBlock cfiBlock73
//  435 }

        RSEG CODE:CODE:NOROOT(2)
        CFI Block cfiBlock74 Using cfiCommon0
        CFI NoFunction
        THUMB
??__deleaker_fclose??rT:
        BX       PC
        Nop      
        CFI EndBlock cfiBlock74
        REQUIRE ??__deleaker_fclose
//  436 

        RSEG CODE:CODE:NOROOT(2)
        CFI Block cfiBlock75 Using cfiCommon1
        CFI Function ??__deleaker_fclose
        ARM
//  437 int __deleaker_fclose( const char* __file__, int __line__, int file )
//  438 {
??__deleaker_fclose:
        PUSH     {R4,LR}
        CFI ?RET Frame(CFA, -4)
        CFI R4 Frame(CFA, -8)
        CFI CFA R13+8
//  439 	trace_free(trace_file, (void*)file, __file__, __line__);
        MOV      R3,R1
        MOV      R4,R2
        MOV      R2,R0
        MOV      R1,R4
        MOV      R0,#+4
        BL       ??trace_free
//  440 	return __original_fclose(file);
        MOV      R0,R4
        SWI      +279
        POP      {R4,PC}          ;; return
        CFI EndBlock cfiBlock75
//  441 }

        RSEG CODE:CODE:NOROOT(2)
        CFI Block cfiBlock76 Using cfiCommon0
        CFI NoFunction
        THUMB
??__deleaker_w_fopen??rT:
        BX       PC
        Nop      
        CFI EndBlock cfiBlock76
        REQUIRE ??__deleaker_w_fopen
//  442 

        RSEG CODE:CODE:NOROOT(2)
        CFI Block cfiBlock77 Using cfiCommon1
        CFI Function ??__deleaker_w_fopen
        ARM
//  443 int __deleaker_w_fopen( const char* __file__, int __line__, const wchar_t* name, int attr, int rights, int err )
//  444 {
??__deleaker_w_fopen:
        PUSH     {R4-R6,LR}
        CFI ?RET Frame(CFA, -4)
        CFI R6 Frame(CFA, -8)
        CFI R5 Frame(CFA, -12)
        CFI R4 Frame(CFA, -16)
        CFI CFA R13+16
        MOV      R4,R0
        MOV      R5,R1
        MOV      R0,R2
        LDR      R2,[SP, #+16]
        MOV      R1,R3
        LDR      R3,[SP, #+20]
//  445 	//тот же trace_file?
//  446 	int ret = __original_w_fopen(name, attr, rights, err);
        SWI      +760
        MOV      R6,R0
//  447 	if(ret!=-1)trace_alloc(trace_file, (void*)ret, __file__, __line__);
        CMN      R6,#+1
        BEQ      ??__deleaker_w_fopen_1
        MOV      R3,R5
        MOV      R2,R4
        MOV      R1,R6
        MOV      R0,#+4
        BL       ??trace_alloc
//  448 	return ret;
??__deleaker_w_fopen_1:
        MOV      R0,R6
        POP      {R4-R6,PC}       ;; return
        CFI EndBlock cfiBlock77
//  449 }

        RSEG CODE:CODE:NOROOT(2)
        CFI Block cfiBlock78 Using cfiCommon0
        CFI NoFunction
        THUMB
??__deleaker_w_fclose??rT:
        BX       PC
        Nop      
        CFI EndBlock cfiBlock78
        REQUIRE ??__deleaker_w_fclose
//  450 

        RSEG CODE:CODE:NOROOT(2)
        CFI Block cfiBlock79 Using cfiCommon1
        CFI Function ??__deleaker_w_fclose
        ARM
//  451 int __deleaker_w_fclose( const char* __file__, int __line__, int f )
//  452 {
??__deleaker_w_fclose:
        PUSH     {R4,LR}
        CFI ?RET Frame(CFA, -4)
        CFI R4 Frame(CFA, -8)
        CFI CFA R13+8
//  453 	trace_free(trace_file, (void*)f, __file__, __line__);
        MOV      R3,R1
        MOV      R4,R2
        MOV      R2,R0
        MOV      R1,R4
        MOV      R0,#+4
        BL       ??trace_free
//  454 	return __original_w_fclose(f);
        MOV      R0,R4
        SWI      +765
        POP      {R4,PC}          ;; return
        CFI EndBlock cfiBlock79
//  455 }

        RSEG CODE:CODE:NOROOT(2)
        CFI Block cfiBlock80 Using cfiCommon0
        CFI NoFunction
        THUMB
??__deleaker_CreateListMenu??rT:
        BX       PC
        Nop      
        CFI EndBlock cfiBlock80
        REQUIRE ??__deleaker_CreateListMenu
//  456 

        RSEG CODE:CODE:NOROOT(2)
        CFI Block cfiBlock81 Using cfiCommon1
        CFI Function ??__deleaker_CreateListMenu
        ARM
//  457 GUI_LIST* __deleaker_CreateListMenu( const char* __file__, int __line__, BOOK* __unknwnargname1, int display )
//  458 {
??__deleaker_CreateListMenu:
        PUSH     {R4-R6,LR}
        CFI ?RET Frame(CFA, -4)
        CFI R6 Frame(CFA, -8)
        CFI R5 Frame(CFA, -12)
        CFI R4 Frame(CFA, -16)
        CFI CFA R13+16
        MOV      R4,R0
        MOV      R5,R1
        MOV      R0,R2
        MOV      R1,R3
//  459 	GUI_LIST* ret = __original_CreateListMenu(__unknwnargname1, display);
        SWI      +448
        MOVS     R6,R0
//  460 	if(ret)trace_alloc(trace_gui, (void*)ret, __file__, __line__);
        BEQ      ??__deleaker_CreateListMenu_1
        MOV      R3,R5
        MOV      R2,R4
        MOV      R1,R6
        MOV      R0,#+9
        BL       ??trace_alloc
//  461 	return ret;
??__deleaker_CreateListMenu_1:
        MOV      R0,R6
        POP      {R4-R6,PC}       ;; return
        CFI EndBlock cfiBlock81
//  462 }

        RSEG CODE:CODE:NOROOT(2)
        CFI Block cfiBlock82 Using cfiCommon0
        CFI NoFunction
        THUMB
??__deleaker_CreateNOfMany??rT:
        BX       PC
        Nop      
        CFI EndBlock cfiBlock82
        REQUIRE ??__deleaker_CreateNOfMany
//  463 

        RSEG CODE:CODE:NOROOT(2)
        CFI Block cfiBlock83 Using cfiCommon1
        CFI Function ??__deleaker_CreateNOfMany
        ARM
//  464 GUI_NOFMANY* __deleaker_CreateNOfMany( const char* __file__, int __line__, BOOK* book )
//  465 {
??__deleaker_CreateNOfMany:
        PUSH     {R4-R6,LR}
        CFI ?RET Frame(CFA, -4)
        CFI R6 Frame(CFA, -8)
        CFI R5 Frame(CFA, -12)
        CFI R4 Frame(CFA, -16)
        CFI CFA R13+16
        MOV      R4,R0
        MOV      R5,R1
        MOV      R0,R2
//  466 	GUI_NOFMANY* ret = __original_CreateNOfMany(book);
        SWI      +468
        MOVS     R6,R0
//  467 	if(ret)trace_alloc(trace_gui, (void*)ret, __file__, __line__);
        BEQ      ??__deleaker_CreateNOfMany_1
        MOV      R3,R5
        MOV      R2,R4
        MOV      R1,R6
        MOV      R0,#+9
        BL       ??trace_alloc
//  468 	return ret;
??__deleaker_CreateNOfMany_1:
        MOV      R0,R6
        POP      {R4-R6,PC}       ;; return
        CFI EndBlock cfiBlock83
//  469 }

        RSEG CODE:CODE:NOROOT(2)
        CFI Block cfiBlock84 Using cfiCommon0
        CFI NoFunction
        THUMB
??__deleaker_CreateOneOfMany??rT:
        BX       PC
        Nop      
        CFI EndBlock cfiBlock84
        REQUIRE ??__deleaker_CreateOneOfMany
//  470 

        RSEG CODE:CODE:NOROOT(2)
        CFI Block cfiBlock85 Using cfiCommon1
        CFI Function ??__deleaker_CreateOneOfMany
        ARM
//  471 GUI_ONEOFMANY* __deleaker_CreateOneOfMany( const char* __file__, int __line__, BOOK* book )
//  472 {
??__deleaker_CreateOneOfMany:
        PUSH     {R4-R6,LR}
        CFI ?RET Frame(CFA, -4)
        CFI R6 Frame(CFA, -8)
        CFI R5 Frame(CFA, -12)
        CFI R4 Frame(CFA, -16)
        CFI CFA R13+16
        MOV      R4,R0
        MOV      R5,R1
        MOV      R0,R2
//  473 	GUI_ONEOFMANY* ret = __original_CreateOneOfMany(book);
        SWI      +325
        MOVS     R6,R0
//  474 	if(ret)trace_alloc(trace_gui, (void*)ret, __file__, __line__);
        BEQ      ??__deleaker_CreateOneOfMany_1
        MOV      R3,R5
        MOV      R2,R4
        MOV      R1,R6
        MOV      R0,#+9
        BL       ??trace_alloc
//  475 	return ret;
??__deleaker_CreateOneOfMany_1:
        MOV      R0,R6
        POP      {R4-R6,PC}       ;; return
        CFI EndBlock cfiBlock85
//  476 }

        RSEG CODE:CODE:NOROOT(2)
        CFI Block cfiBlock86 Using cfiCommon0
        CFI NoFunction
        THUMB
??__deleaker_CreateTabMenuBar??rT:
        BX       PC
        Nop      
        CFI EndBlock cfiBlock86
        REQUIRE ??__deleaker_CreateTabMenuBar
//  477 

        RSEG CODE:CODE:NOROOT(2)
        CFI Block cfiBlock87 Using cfiCommon1
        CFI Function ??__deleaker_CreateTabMenuBar
        ARM
//  478 GUI_TABMENUBAR* __deleaker_CreateTabMenuBar( const char* __file__, int __line__, BOOK* book )
//  479 {
??__deleaker_CreateTabMenuBar:
        PUSH     {R4-R6,LR}
        CFI ?RET Frame(CFA, -4)
        CFI R6 Frame(CFA, -8)
        CFI R5 Frame(CFA, -12)
        CFI R4 Frame(CFA, -16)
        CFI CFA R13+16
        MOV      R4,R0
        MOV      R5,R1
        MOV      R0,R2
//  480 	GUI_TABMENUBAR* ret = __original_CreateTabMenuBar(book);
        SWI      +458
        MOVS     R6,R0
//  481 	if(ret)trace_alloc(trace_gui, (void*)ret, __file__, __line__);
        BEQ      ??__deleaker_CreateTabMenuBar_1
        MOV      R3,R5
        MOV      R2,R4
        MOV      R1,R6
        MOV      R0,#+9
        BL       ??trace_alloc
//  482 	return ret;
??__deleaker_CreateTabMenuBar_1:
        MOV      R0,R6
        POP      {R4-R6,PC}       ;; return
        CFI EndBlock cfiBlock87
//  483 }

        RSEG CODE:CODE:NOROOT(2)
        CFI Block cfiBlock88 Using cfiCommon0
        CFI NoFunction
        THUMB
??__deleaker_CreateProgressBar??rT:
        BX       PC
        Nop      
        CFI EndBlock cfiBlock88
        REQUIRE ??__deleaker_CreateProgressBar
//  484 

        RSEG CODE:CODE:NOROOT(2)
        CFI Block cfiBlock89 Using cfiCommon1
        CFI Function ??__deleaker_CreateProgressBar
        ARM
//  485 GUI* __deleaker_CreateProgressBar( const char* __file__, int __line__, BOOK* book, int display )
//  486 {
??__deleaker_CreateProgressBar:
        PUSH     {R4-R6,LR}
        CFI ?RET Frame(CFA, -4)
        CFI R6 Frame(CFA, -8)
        CFI R5 Frame(CFA, -12)
        CFI R4 Frame(CFA, -16)
        CFI CFA R13+16
        MOV      R4,R0
        MOV      R5,R1
        MOV      R0,R2
        MOV      R1,R3
//  487 	GUI* ret = __original_CreateProgressBar(book, display);
        SWI      +781
        MOVS     R6,R0
//  488 	if(ret)trace_alloc(trace_gui, (void*)ret, __file__, __line__);
        BEQ      ??__deleaker_CreateProgressBar_1
        MOV      R3,R5
        MOV      R2,R4
        MOV      R1,R6
        MOV      R0,#+9
        BL       ??trace_alloc
//  489 	return ret;
??__deleaker_CreateProgressBar_1:
        MOV      R0,R6
        POP      {R4-R6,PC}       ;; return
        CFI EndBlock cfiBlock89
//  490 }

        RSEG CODE:CODE:NOROOT(2)
        CFI Block cfiBlock90 Using cfiCommon0
        CFI NoFunction
        THUMB
??__deleaker_TextID_Create??rT:
        BX       PC
        Nop      
        CFI EndBlock cfiBlock90
        REQUIRE ??__deleaker_TextID_Create
//  491 

        RSEG CODE:CODE:NOROOT(2)
        CFI Block cfiBlock91 Using cfiCommon1
        CFI Function ??__deleaker_TextID_Create
        ARM
//  492 TEXTID __deleaker_TextID_Create( const char* __file__, int __line__, const void* wstr, TEXT_ENCODING flag, int len )
//  493 {
??__deleaker_TextID_Create:
        PUSH     {R4-R9,LR}
        CFI ?RET Frame(CFA, -4)
        CFI R9 Frame(CFA, -8)
        CFI R8 Frame(CFA, -12)
        CFI R7 Frame(CFA, -16)
        CFI R6 Frame(CFA, -20)
        CFI R5 Frame(CFA, -24)
        CFI R4 Frame(CFA, -28)
        CFI CFA R13+28
        LDR      R8,[SP, #+28]
        MOV      R4,R0
        MOV      R5,R1
        MOV      R6,R2
        MOV      R7,R3
//  494 	TEXTID ret = __original_TextID_Create(wstr, flag, len);
        MOV      R2,R8
        MOV      R1,R7
        MOV      R0,R6
        SWI      +349
        MOV      R9,R0
//  495 	if(isallocatedstrid(ret))
        BL       ??isallocatedstrid
        CMP      R0,#+0
        BEQ      ??__deleaker_TextID_Create_1
//  496 	{
//  497 		trace_alloc(trace_strid, (void*)ret, __file__, __line__);
        MOV      R3,R5
        MOV      R2,R4
        MOV      R1,R9
        MOV      R0,#+1
        BL       ??trace_alloc
//  498 		if(flag==ENC_TEXTID)
        CMP      R7,#+5
        BNE      ??__deleaker_TextID_Create_1
//  499 		{
//  500 			for(int i=0;i<len;i++)
        MOV      R7,#+0
        CMP      R8,#+1
        BGE      ??__deleaker_TextID_Create_2
        MOV      R0,R9
        POP      {R4-R9,PC}
//  501 				trace_free(trace_strid, (void*)((TEXTID*)wstr)[i], __file__, __line__);
??__deleaker_TextID_Create_3:
        LDR      R1,[R6, +R7, LSL #+2]
        MOV      R3,R5
        MOV      R2,R4
        MOV      R0,#+1
        BL       ??trace_free
        ADD      R7,R7,#+1
??__deleaker_TextID_Create_2:
        CMP      R7,R8
        BLT      ??__deleaker_TextID_Create_3
//  502 		}
//  503 	}
//  504 	return ret;
??__deleaker_TextID_Create_1:
        MOV      R0,R9
        POP      {R4-R9,PC}       ;; return
        CFI EndBlock cfiBlock91
//  505 }

        RSEG CODE:CODE:NOROOT(2)
        CFI Block cfiBlock92 Using cfiCommon0
        CFI NoFunction
        THUMB
??__deleaker_TextID_Copy??rT:
        BX       PC
        Nop      
        CFI EndBlock cfiBlock92
        REQUIRE ??__deleaker_TextID_Copy
//  506 

        RSEG CODE:CODE:NOROOT(2)
        CFI Block cfiBlock93 Using cfiCommon1
        CFI Function ??__deleaker_TextID_Copy
        ARM
//  507 TEXTID __deleaker_TextID_Copy( const char* __file__, int __line__, TEXTID __unknwnargname1 )
//  508 {
??__deleaker_TextID_Copy:
        PUSH     {R4-R6,LR}
        CFI ?RET Frame(CFA, -4)
        CFI R6 Frame(CFA, -8)
        CFI R5 Frame(CFA, -12)
        CFI R4 Frame(CFA, -16)
        CFI CFA R13+16
        MOV      R4,R0
        MOV      R5,R1
        MOV      R0,R2
//  509 	TEXTID ret = __original_TextID_Copy(__unknwnargname1);
        SWI      +578
        MOV      R6,R0
//  510 	if(isallocatedstrid(ret))
        BL       ??isallocatedstrid
        CMP      R0,#+0
        BEQ      ??__deleaker_TextID_Copy_1
//  511 		trace_alloc(trace_strid, (void*)ret, __file__, __line__);
        MOV      R3,R5
        MOV      R2,R4
        MOV      R1,R6
        MOV      R0,#+1
        BL       ??trace_alloc
//  512 	return ret;
??__deleaker_TextID_Copy_1:
        MOV      R0,R6
        POP      {R4-R6,PC}       ;; return
        CFI EndBlock cfiBlock93
//  513 }

        RSEG CODE:CODE:NOROOT(2)
        CFI Block cfiBlock94 Using cfiCommon0
        CFI NoFunction
        THUMB
??__deleaker_TextID_CreateIntegerID??rT:
        BX       PC
        Nop      
        CFI EndBlock cfiBlock94
        REQUIRE ??__deleaker_TextID_CreateIntegerID
//  514 

        RSEG CODE:CODE:NOROOT(2)
        CFI Block cfiBlock95 Using cfiCommon1
        CFI Function ??__deleaker_TextID_CreateIntegerID
        ARM
//  515 TEXTID __deleaker_TextID_CreateIntegerID( const char* __file__, int __line__, int num )
//  516 {
??__deleaker_TextID_CreateIntegerID:
        PUSH     {R4-R6,LR}
        CFI ?RET Frame(CFA, -4)
        CFI R6 Frame(CFA, -8)
        CFI R5 Frame(CFA, -12)
        CFI R4 Frame(CFA, -16)
        CFI CFA R13+16
        MOV      R4,R0
        MOV      R5,R1
        MOV      R0,R2
//  517 	TEXTID ret = __original_TextID_CreateIntegerID(num);
        SWI      +348
        MOV      R6,R0
//  518 	if(isallocatedstrid(ret))
        BL       ??isallocatedstrid
        CMP      R0,#+0
        BEQ      ??__deleaker_TextID_CreateIntegerID_1
//  519 		trace_alloc(trace_strid, (void*)ret, __file__, __line__);
        MOV      R3,R5
        MOV      R2,R4
        MOV      R1,R6
        MOV      R0,#+1
        BL       ??trace_alloc
//  520 	return ret;
??__deleaker_TextID_CreateIntegerID_1:
        MOV      R0,R6
        POP      {R4-R6,PC}       ;; return
        CFI EndBlock cfiBlock95
//  521 }

        RSEG CODE:CODE:NOROOT(2)
        CFI Block cfiBlock96 Using cfiCommon0
        CFI NoFunction
        THUMB
??__deleaker_TextID_Destroy??rT:
        BX       PC
        Nop      
        CFI EndBlock cfiBlock96
        REQUIRE ??__deleaker_TextID_Destroy
//  522 

        RSEG CODE:CODE:NOROOT(2)
        CFI Block cfiBlock97 Using cfiCommon1
        CFI Function ??__deleaker_TextID_Destroy
        ARM
//  523 void __deleaker_TextID_Destroy( const char* __file__, int __line__, TEXTID __unknwnargname1 )
//  524 {
??__deleaker_TextID_Destroy:
        PUSH     {R4,LR}
        CFI ?RET Frame(CFA, -4)
        CFI R4 Frame(CFA, -8)
        CFI CFA R13+8
//  525 	trace_free(trace_strid, (void*)__unknwnargname1, __file__, __line__ );
        MOV      R3,R1
        MOV      R4,R2
        MOV      R2,R0
        MOV      R1,R4
        MOV      R0,#+1
        BL       ??trace_free
//  526 	return __original_TextID_Destroy(__unknwnargname1);
        MOV      R0,R4
        SWI      +353
        POP      {R4,PC}          ;; return
        CFI EndBlock cfiBlock97
//  527 }

        RSEG CODE:CODE:NOROOT(2)
        CFI Block cfiBlock98 Using cfiCommon0
        CFI NoFunction
        THUMB
??__deleaker_GUIObject_SetTitleText??rT:
        BX       PC
        Nop      
        CFI EndBlock cfiBlock98
        REQUIRE ??__deleaker_GUIObject_SetTitleText
//  528 

        RSEG CODE:CODE:NOROOT(2)
        CFI Block cfiBlock99 Using cfiCommon1
        CFI Function ??__deleaker_GUIObject_SetTitleText
        ARM
//  529 void __deleaker_GUIObject_SetTitleText( const char* __file__, int __line__, GUI* __unknwnargname1, TEXTID __unknwnargname2 )
//  530 {
??__deleaker_GUIObject_SetTitleText:
        PUSH     {R4-R7,LR}
        CFI ?RET Frame(CFA, -4)
        CFI R7 Frame(CFA, -8)
        CFI R6 Frame(CFA, -12)
        CFI R5 Frame(CFA, -16)
        CFI R4 Frame(CFA, -20)
        CFI CFA R13+20
        MOV      R4,R0
        MOV      R5,R1
        MOV      R6,R2
        MOV      R7,R3
//  531 	if(isallocatedstrid(__unknwnargname2))trace_free(trace_strid, (void*)__unknwnargname2, __file__, __line__ );
        MOV      R0,R7
        BL       ??isallocatedstrid
        CMP      R0,#+0
        BEQ      ??__deleaker_GUIObject_SetTitleText_1
        MOV      R3,R5
        MOV      R2,R4
        MOV      R1,R7
        MOV      R0,#+1
        BL       ??trace_free
//  532 	return __original_GUIObject_SetTitleText(__unknwnargname1, __unknwnargname2);
??__deleaker_GUIObject_SetTitleText_1:
        MOV      R1,R7
        MOV      R0,R6
        SWI      +307
        POP      {R4-R7,PC}       ;; return
        CFI EndBlock cfiBlock99
//  533 }

        RSEG CODE:CODE:NOROOT(2)
        CFI Block cfiBlock100 Using cfiCommon0
        CFI NoFunction
        THUMB
??__deleaker_GUIObject_SoftKeys_SetText??rT:
        BX       PC
        Nop      
        CFI EndBlock cfiBlock100
        REQUIRE ??__deleaker_GUIObject_SoftKeys_SetText
//  534 

        RSEG CODE:CODE:NOROOT(2)
        CFI Block cfiBlock101 Using cfiCommon1
        CFI Function ??__deleaker_GUIObject_SoftKeys_SetText
        ARM
//  535 void __deleaker_GUIObject_SoftKeys_SetText( const char* __file__, int __line__, GUI* __unknwnargname1, u16 actionID, TEXTID __unknwnargname3 )
//  536 {
??__deleaker_GUIObject_SoftKeys_SetText:
        PUSH     {R4-R8,LR}
        CFI ?RET Frame(CFA, -4)
        CFI R8 Frame(CFA, -8)
        CFI R7 Frame(CFA, -12)
        CFI R6 Frame(CFA, -16)
        CFI R5 Frame(CFA, -20)
        CFI R4 Frame(CFA, -24)
        CFI CFA R13+24
        LDR      R8,[SP, #+24]
        MOV      R4,R0
        MOV      R5,R1
        MOV      R6,R2
        MOV      R7,R3
//  537 	if(isallocatedstrid(__unknwnargname3))trace_free(trace_strid, (void*)__unknwnargname3, __file__, __line__ );
        MOV      R0,R8
        BL       ??isallocatedstrid
        CMP      R0,#+0
        BEQ      ??__deleaker_GUIObject_SoftKeys_SetText_1
        MOV      R3,R5
        MOV      R2,R4
        MOV      R1,R8
        MOV      R0,#+1
        BL       ??trace_free
//  538 	return __original_GUIObject_SoftKeys_SetText(__unknwnargname1, actionID, __unknwnargname3);
??__deleaker_GUIObject_SoftKeys_SetText_1:
        MOV      R2,R8
        MOV      R1,R7
        MOV      R0,R6
        SWI      +332
        POP      {R4-R8,PC}       ;; return
        CFI EndBlock cfiBlock101
//  539 }

        RSEG CODE:CODE:NOROOT(2)
        CFI Block cfiBlock102 Using cfiCommon0
        CFI NoFunction
        THUMB
??__deleaker_GUIonMessage_SetMenuItemText??rT:
        BX       PC
        Nop      
        CFI EndBlock cfiBlock102
        REQUIRE ??__deleaker_GUIonMessage_SetMenuItemText
//  540 

        RSEG CODE:CODE:NOROOT(2)
        CFI Block cfiBlock103 Using cfiCommon1
        CFI Function ??__deleaker_GUIonMessage_SetMenuItemText
        ARM
//  541 char __deleaker_GUIonMessage_SetMenuItemText( const char* __file__, int __line__, GUI_MESSAGE* msg, TEXTID __unknwnargname2 )
//  542 {
??__deleaker_GUIonMessage_SetMenuItemText:
        PUSH     {R4-R7,LR}
        CFI ?RET Frame(CFA, -4)
        CFI R7 Frame(CFA, -8)
        CFI R6 Frame(CFA, -12)
        CFI R5 Frame(CFA, -16)
        CFI R4 Frame(CFA, -20)
        CFI CFA R13+20
        MOV      R4,R0
        MOV      R5,R1
        MOV      R6,R2
        MOV      R7,R3
//  543 	if(isallocatedstrid(__unknwnargname2))trace_free(trace_strid, (void*)__unknwnargname2, __file__, __line__ );
        MOV      R0,R7
        BL       ??isallocatedstrid
        CMP      R0,#+0
        BEQ      ??__deleaker_GUIonMessage_SetMenuItemText_1
        MOV      R3,R5
        MOV      R2,R4
        MOV      R1,R7
        MOV      R0,#+1
        BL       ??trace_free
//  544 	return __original_GUIonMessage_SetMenuItemText(msg, __unknwnargname2);
??__deleaker_GUIonMessage_SetMenuItemText_1:
        MOV      R1,R7
        MOV      R0,R6
        SWI      +312
        POP      {R4-R7,PC}       ;; return
        CFI EndBlock cfiBlock103
//  545 }

        RSEG CODE:CODE:NOROOT(2)
        CFI Block cfiBlock104 Using cfiCommon0
        CFI NoFunction
        THUMB
??__deleaker_GUIonMessage_SetMenuItemSecondLine:
        BX       PC
        Nop      
        CFI EndBlock cfiBlock104
        REQUIRE ??__deleaker_GUIonMessage_SetMenuItemSecondLine_1
//  546 

        RSEG CODE:CODE:NOROOT(2)
        CFI Block cfiBlock105 Using cfiCommon1
        CFI Function ??__deleaker_GUIonMessage_SetMenuItemSecondLine_1
        ARM
//  547 char __deleaker_GUIonMessage_SetMenuItemSecondLineText( const char* __file__, int __line__, GUI_MESSAGE* msg, TEXTID __unknwnargname2 )
//  548 {
??__deleaker_GUIonMessage_SetMenuItemSecondLine_1:
        PUSH     {R4-R7,LR}
        CFI ?RET Frame(CFA, -4)
        CFI R7 Frame(CFA, -8)
        CFI R6 Frame(CFA, -12)
        CFI R5 Frame(CFA, -16)
        CFI R4 Frame(CFA, -20)
        CFI CFA R13+20
        MOV      R4,R0
        MOV      R5,R1
        MOV      R6,R2
        MOV      R7,R3
//  549 	if(isallocatedstrid(__unknwnargname2))trace_free(trace_strid, (void*)__unknwnargname2, __file__, __line__ );
        MOV      R0,R7
        BL       ??isallocatedstrid
        CMP      R0,#+0
        BEQ      ??__deleaker_GUIonMessage_SetMenuItemSecondLine_2
        MOV      R3,R5
        MOV      R2,R4
        MOV      R1,R7
        MOV      R0,#+1
        BL       ??trace_free
//  550 	return __original_GUIonMessage_SetMenuItemSecondLineText(msg, __unknwnargname2);
??__deleaker_GUIonMessage_SetMenuItemSecondLine_2:
        MOV      R1,R7
        MOV      R0,R6
        SWI      +313
        POP      {R4-R7,PC}       ;; return
        CFI EndBlock cfiBlock105
//  551 }

        RSEG CODE:CODE:NOROOT(2)
        CFI Block cfiBlock106 Using cfiCommon0
        CFI NoFunction
        THUMB
??__deleaker_GUIonMessage_SetMenuItemInfoText??:
        BX       PC
        Nop      
        CFI EndBlock cfiBlock106
        REQUIRE ??__deleaker_GUIonMessage_SetMenuItemInfoText
//  552 

        RSEG CODE:CODE:NOROOT(2)
        CFI Block cfiBlock107 Using cfiCommon1
        CFI Function ??__deleaker_GUIonMessage_SetMenuItemInfoText
        ARM
//  553 char __deleaker_GUIonMessage_SetMenuItemInfoText( const char* __file__, int __line__, GUI_MESSAGE* msg, TEXTID __unknwnargname2 )
//  554 {
??__deleaker_GUIonMessage_SetMenuItemInfoText:
        PUSH     {R4-R7,LR}
        CFI ?RET Frame(CFA, -4)
        CFI R7 Frame(CFA, -8)
        CFI R6 Frame(CFA, -12)
        CFI R5 Frame(CFA, -16)
        CFI R4 Frame(CFA, -20)
        CFI CFA R13+20
        MOV      R4,R0
        MOV      R5,R1
        MOV      R6,R2
        MOV      R7,R3
//  555 	if(isallocatedstrid(__unknwnargname2))trace_free(trace_strid, (void*)__unknwnargname2, __file__, __line__ );
        MOV      R0,R7
        BL       ??isallocatedstrid
        CMP      R0,#+0
        BEQ      ??__deleaker_GUIonMessage_SetMenuItemInfoText_1
        MOV      R3,R5
        MOV      R2,R4
        MOV      R1,R7
        MOV      R0,#+1
        BL       ??trace_free
//  556 	return __original_GUIonMessage_SetMenuItemInfoText(msg, __unknwnargname2);
??__deleaker_GUIonMessage_SetMenuItemInfoText_1:
        MOV      R1,R7
        MOV      R0,R6
        SWI      +314
        POP      {R4-R7,PC}       ;; return
        CFI EndBlock cfiBlock107
//  557 }

        RSEG CODE:CODE:NOROOT(2)
        CFI Block cfiBlock108 Using cfiCommon0
        CFI NoFunction
        THUMB
??__deleaker_GUIonMessage_SetMenuItemUnavailabl:
        BX       PC
        Nop      
        CFI EndBlock cfiBlock108
        REQUIRE ??__deleaker_GUIonMessage_SetMenuItemUnavailabl_1
//  558 

        RSEG CODE:CODE:NOROOT(2)
        CFI Block cfiBlock109 Using cfiCommon1
        CFI Function ??__deleaker_GUIonMessage_SetMenuItemUnavailabl_1
        ARM
//  559 char __deleaker_GUIonMessage_SetMenuItemUnavailableText( const char* __file__, int __line__, GUI_MESSAGE* msg, TEXTID __unknwnargname2 )
//  560 {
??__deleaker_GUIonMessage_SetMenuItemUnavailabl_1:
        PUSH     {R4-R7,LR}
        CFI ?RET Frame(CFA, -4)
        CFI R7 Frame(CFA, -8)
        CFI R6 Frame(CFA, -12)
        CFI R5 Frame(CFA, -16)
        CFI R4 Frame(CFA, -20)
        CFI CFA R13+20
        MOV      R4,R0
        MOV      R5,R1
        MOV      R6,R2
        MOV      R7,R3
//  561 	if(isallocatedstrid(__unknwnargname2))trace_free(trace_strid, (void*)__unknwnargname2, __file__, __line__ );
        MOV      R0,R7
        BL       ??isallocatedstrid
        CMP      R0,#+0
        BEQ      ??__deleaker_GUIonMessage_SetMenuItemUnavailabl_2
        MOV      R3,R5
        MOV      R2,R4
        MOV      R1,R7
        MOV      R0,#+1
        BL       ??trace_free
//  562 	return __original_GUIonMessage_SetMenuItemUnavailableText(msg, __unknwnargname2);
??__deleaker_GUIonMessage_SetMenuItemUnavailabl_2:
        MOV      R1,R7
        MOV      R0,R6
        SWI      +315
        POP      {R4-R7,PC}       ;; return
        CFI EndBlock cfiBlock109
//  563 }

        RSEG CODE:CODE:NOROOT(2)
        CFI Block cfiBlock110 Using cfiCommon0
        CFI NoFunction
        THUMB
??__deleaker_MessageBox??rT:
        BX       PC
        Nop      
        CFI EndBlock cfiBlock110
        REQUIRE ??__deleaker_MessageBox
//  564 

        RSEG CODE:CODE:NOROOT(2)
        CFI Block cfiBlock111 Using cfiCommon1
        CFI Function ??__deleaker_MessageBox
        ARM
//  565 int __deleaker_MessageBox( const char* __file__, int __line__, TEXTID header_text, TEXTID message_text, IMAGEID __unknwnargname3, int style, int time, BOOK* book )
//  566 {
??__deleaker_MessageBox:
        PUSH     {R4-R11,LR}
        CFI ?RET Frame(CFA, -4)
        CFI R11 Frame(CFA, -8)
        CFI R10 Frame(CFA, -12)
        CFI R9 Frame(CFA, -16)
        CFI R8 Frame(CFA, -20)
        CFI R7 Frame(CFA, -24)
        CFI R6 Frame(CFA, -28)
        CFI R5 Frame(CFA, -32)
        CFI R4 Frame(CFA, -36)
        CFI CFA R13+36
        LDRH     R8,[SP, #+36]
        LDR      R9,[SP, #+40]
        LDR      R10,[SP, #+44]
        LDR      R11,[SP, #+48]
        MOV      R4,R0
        MOV      R5,R1
        MOV      R6,R2
        MOV      R7,R3
//  567 	if(isallocatedstrid(header_text))trace_free(trace_strid, (void*)header_text, __file__, __line__ );
        MOV      R0,R6
        BL       ??isallocatedstrid
        CMP      R0,#+0
        BEQ      ??__deleaker_MessageBox_1
        MOV      R3,R5
        MOV      R2,R4
        MOV      R1,R6
        MOV      R0,#+1
        BL       ??trace_free
//  568 	if(isallocatedstrid(message_text))trace_free(trace_strid, (void*)message_text, __file__, __line__ );
??__deleaker_MessageBox_1:
        MOV      R0,R7
        BL       ??isallocatedstrid
        CMP      R0,#+0
        BEQ      ??__deleaker_MessageBox_2
        MOV      R3,R5
        MOV      R2,R4
        MOV      R1,R7
        MOV      R0,#+1
        BL       ??trace_free
//  569 	if(isallocatediconid(__unknwnargname3))trace_free(trace_iconid, (void*)__unknwnargname3, __file__, __line__ );
??__deleaker_MessageBox_2:
        MOV      R0,R8
        BL       ??isallocatediconid
        CMP      R0,#+0
        BEQ      ??__deleaker_MessageBox_3
        MOV      R3,R5
        MOV      R2,R4
        MOV      R1,R8
        MOV      R0,#+2
        BL       ??trace_free
//  570 	return __original_MessageBox(header_text, message_text, __unknwnargname3, style, time, book);
??__deleaker_MessageBox_3:
        PUSH     {R11}
        CFI CFA R13+40
        PUSH     {R10}
        CFI CFA R13+44
        MOV      R3,R9
        MOV      R2,R8
        MOV      R1,R7
        MOV      R0,R6
        SWI      +599
        POP      {R1,R2,R4-R11,PC}  ;; return
        CFI EndBlock cfiBlock111
//  571 }

        RSEG CODE:CODE:NOROOT(2)
        CFI Block cfiBlock112 Using cfiCommon0
        CFI NoFunction
        THUMB
??__deleaker_BookObj_SoftKeys_SetText??rT:
        BX       PC
        Nop      
        CFI EndBlock cfiBlock112
        REQUIRE ??__deleaker_BookObj_SoftKeys_SetText
//  572 

        RSEG CODE:CODE:NOROOT(2)
        CFI Block cfiBlock113 Using cfiCommon1
        CFI Function ??__deleaker_BookObj_SoftKeys_SetText
        ARM
//  573 void __deleaker_BookObj_SoftKeys_SetText( const char* __file__, int __line__, BOOK* book, int actionID, TEXTID __unknwnargname3 )
//  574 {
??__deleaker_BookObj_SoftKeys_SetText:
        PUSH     {R4-R8,LR}
        CFI ?RET Frame(CFA, -4)
        CFI R8 Frame(CFA, -8)
        CFI R7 Frame(CFA, -12)
        CFI R6 Frame(CFA, -16)
        CFI R5 Frame(CFA, -20)
        CFI R4 Frame(CFA, -24)
        CFI CFA R13+24
        LDR      R8,[SP, #+24]
        MOV      R4,R0
        MOV      R5,R1
        MOV      R6,R2
        MOV      R7,R3
//  575 	if(isallocatedstrid(__unknwnargname3))trace_free(trace_strid, (void*)__unknwnargname3, __file__, __line__ );
        MOV      R0,R8
        BL       ??isallocatedstrid
        CMP      R0,#+0
        BEQ      ??__deleaker_BookObj_SoftKeys_SetText_1
        MOV      R3,R5
        MOV      R2,R4
        MOV      R1,R8
        MOV      R0,#+1
        BL       ??trace_free
//  576 	return __original_BookObj_SoftKeys_SetText(book, actionID, __unknwnargname3);
??__deleaker_BookObj_SoftKeys_SetText_1:
        MOV      R2,R8
        MOV      R1,R7
        MOV      R0,R6
        SWI      +707
        POP      {R4-R8,PC}       ;; return
        CFI EndBlock cfiBlock113
//  577 }

        RSEG CODE:CODE:NOROOT(2)
        CFI Block cfiBlock114 Using cfiCommon0
        CFI NoFunction
        THUMB
??__deleaker_DataBrowserDesc_SetHeaderText??rT:
        BX       PC
        Nop      
        CFI EndBlock cfiBlock114
        REQUIRE ??__deleaker_DataBrowserDesc_SetHeaderText
//  578 

        RSEG CODE:CODE:NOROOT(2)
        CFI Block cfiBlock115 Using cfiCommon1
        CFI Function ??__deleaker_DataBrowserDesc_SetHeaderText
        ARM
//  579 void __deleaker_DataBrowserDesc_SetHeaderText( const char* __file__, int __line__, void* DataBrowserDesc, TEXTID __unknwnargname2 )
//  580 {
??__deleaker_DataBrowserDesc_SetHeaderText:
        PUSH     {R4-R7,LR}
        CFI ?RET Frame(CFA, -4)
        CFI R7 Frame(CFA, -8)
        CFI R6 Frame(CFA, -12)
        CFI R5 Frame(CFA, -16)
        CFI R4 Frame(CFA, -20)
        CFI CFA R13+20
        MOV      R4,R0
        MOV      R5,R1
        MOV      R6,R2
        MOV      R7,R3
//  581 	if(isallocatedstrid(__unknwnargname2))trace_free(trace_strid, (void*)__unknwnargname2, __file__, __line__ );
        MOV      R0,R7
        BL       ??isallocatedstrid
        CMP      R0,#+0
        BEQ      ??__deleaker_DataBrowserDesc_SetHeaderText_1
        MOV      R3,R5
        MOV      R2,R4
        MOV      R1,R7
        MOV      R0,#+1
        BL       ??trace_free
//  582 	return __original_DataBrowserDesc_SetHeaderText(DataBrowserDesc, __unknwnargname2);
??__deleaker_DataBrowserDesc_SetHeaderText_1:
        MOV      R1,R7
        MOV      R0,R6
        SWI      +289
        POP      {R4-R7,PC}       ;; return
        CFI EndBlock cfiBlock115
//  583 }

        RSEG CODE:CODE:NOROOT(2)
        CFI Block cfiBlock116 Using cfiCommon0
        CFI NoFunction
        THUMB
??__deleaker_DataBrowserDesc_SetOKSoftKeyText??:
        BX       PC
        Nop      
        CFI EndBlock cfiBlock116
        REQUIRE ??__deleaker_DataBrowserDesc_SetOKSoftKeyText
//  584 

        RSEG CODE:CODE:NOROOT(2)
        CFI Block cfiBlock117 Using cfiCommon1
        CFI Function ??__deleaker_DataBrowserDesc_SetOKSoftKeyText
        ARM
//  585 void __deleaker_DataBrowserDesc_SetOKSoftKeyText( const char* __file__, int __line__, void* DataBrowserDesc, TEXTID __unknwnargname2 )
//  586 {
??__deleaker_DataBrowserDesc_SetOKSoftKeyText:
        PUSH     {R4-R7,LR}
        CFI ?RET Frame(CFA, -4)
        CFI R7 Frame(CFA, -8)
        CFI R6 Frame(CFA, -12)
        CFI R5 Frame(CFA, -16)
        CFI R4 Frame(CFA, -20)
        CFI CFA R13+20
        MOV      R4,R0
        MOV      R5,R1
        MOV      R6,R2
        MOV      R7,R3
//  587 	if(isallocatedstrid(__unknwnargname2))trace_free(trace_strid, (void*)__unknwnargname2, __file__, __line__ );
        MOV      R0,R7
        BL       ??isallocatedstrid
        CMP      R0,#+0
        BEQ      ??__deleaker_DataBrowserDesc_SetOKSoftKeyText_1
        MOV      R3,R5
        MOV      R2,R4
        MOV      R1,R7
        MOV      R0,#+1
        BL       ??trace_free
//  588 	return __original_DataBrowserDesc_SetOKSoftKeyText(DataBrowserDesc, __unknwnargname2);
??__deleaker_DataBrowserDesc_SetOKSoftKeyText_1:
        MOV      R1,R7
        MOV      R0,R6
        SWI      +291
        POP      {R4-R7,PC}       ;; return
        CFI EndBlock cfiBlock117
//  589 }

        RSEG CODE:CODE:NOROOT(2)
        CFI Block cfiBlock118 Using cfiCommon0
        CFI NoFunction
        THUMB
??__deleaker_DispObject_SetTitleText??rT:
        BX       PC
        Nop      
        CFI EndBlock cfiBlock118
        REQUIRE ??__deleaker_DispObject_SetTitleText
//  590 

        RSEG CODE:CODE:NOROOT(2)
        CFI Block cfiBlock119 Using cfiCommon1
        CFI Function ??__deleaker_DispObject_SetTitleText
        ARM
//  591 void __deleaker_DispObject_SetTitleText( const char* __file__, int __line__, DISP_OBJ* __unknwnargname1, TEXTID __unknwnargname2 )
//  592 {
??__deleaker_DispObject_SetTitleText:
        PUSH     {R4-R7,LR}
        CFI ?RET Frame(CFA, -4)
        CFI R7 Frame(CFA, -8)
        CFI R6 Frame(CFA, -12)
        CFI R5 Frame(CFA, -16)
        CFI R4 Frame(CFA, -20)
        CFI CFA R13+20
        MOV      R4,R0
        MOV      R5,R1
        MOV      R6,R2
        MOV      R7,R3
//  593 	if(isallocatedstrid(__unknwnargname2))trace_free(trace_strid, (void*)__unknwnargname2, __file__, __line__ );
        MOV      R0,R7
        BL       ??isallocatedstrid
        CMP      R0,#+0
        BEQ      ??__deleaker_DispObject_SetTitleText_1
        MOV      R3,R5
        MOV      R2,R4
        MOV      R1,R7
        MOV      R0,#+1
        BL       ??trace_free
//  594 	return __original_DispObject_SetTitleText(__unknwnargname1, __unknwnargname2);
??__deleaker_DispObject_SetTitleText_1:
        MOV      R1,R7
        MOV      R0,R6
        SWI      +317
        POP      {R4-R7,PC}       ;; return
        CFI EndBlock cfiBlock119
//  595 }

        RSEG CODE:CODE:NOROOT(2)
        CFI Block cfiBlock120 Using cfiCommon0
        CFI NoFunction
        THUMB
??__deleaker_GUIObject_SoftKeys_AddErrorStr??rT:
        BX       PC
        Nop      
        CFI EndBlock cfiBlock120
        REQUIRE ??__deleaker_GUIObject_SoftKeys_AddErrorStr
//  596 

        RSEG CODE:CODE:NOROOT(2)
        CFI Block cfiBlock121 Using cfiCommon1
        CFI Function ??__deleaker_GUIObject_SoftKeys_AddErrorStr
        ARM
//  597 void __deleaker_GUIObject_SoftKeys_AddErrorStr( const char* __file__, int __line__, GUI* __unknwnargname1, u16 actionID, TEXTID __unknwnargname3 )
//  598 {
??__deleaker_GUIObject_SoftKeys_AddErrorStr:
        PUSH     {R4-R8,LR}
        CFI ?RET Frame(CFA, -4)
        CFI R8 Frame(CFA, -8)
        CFI R7 Frame(CFA, -12)
        CFI R6 Frame(CFA, -16)
        CFI R5 Frame(CFA, -20)
        CFI R4 Frame(CFA, -24)
        CFI CFA R13+24
        LDR      R8,[SP, #+24]
        MOV      R4,R0
        MOV      R5,R1
        MOV      R6,R2
        MOV      R7,R3
//  599 	if(isallocatedstrid(__unknwnargname3))trace_free(trace_strid, (void*)__unknwnargname3, __file__, __line__ );
        MOV      R0,R8
        BL       ??isallocatedstrid
        CMP      R0,#+0
        BEQ      ??__deleaker_GUIObject_SoftKeys_AddErrorStr_1
        MOV      R3,R5
        MOV      R2,R4
        MOV      R1,R8
        MOV      R0,#+1
        BL       ??trace_free
//  600 	return __original_GUIObject_SoftKeys_AddErrorStr(__unknwnargname1, actionID, __unknwnargname3);
??__deleaker_GUIObject_SoftKeys_AddErrorStr_1:
        MOV      R2,R8
        MOV      R1,R7
        MOV      R0,R6
        SWI      +334
        POP      {R4-R8,PC}       ;; return
        CFI EndBlock cfiBlock121
//  601 }

        RSEG CODE:CODE:NOROOT(2)
        CFI Block cfiBlock122 Using cfiCommon0
        CFI NoFunction
        THUMB
??__deleaker_ProgressBar_SetText??rT:
        BX       PC
        Nop      
        CFI EndBlock cfiBlock122
        REQUIRE ??__deleaker_ProgressBar_SetText
//  602 

        RSEG CODE:CODE:NOROOT(2)
        CFI Block cfiBlock123 Using cfiCommon1
        CFI Function ??__deleaker_ProgressBar_SetText
        ARM
//  603 void __deleaker_ProgressBar_SetText( const char* __file__, int __line__, GUI* __unknwnargname1, TEXTID text )
//  604 {
??__deleaker_ProgressBar_SetText:
        PUSH     {R4-R7,LR}
        CFI ?RET Frame(CFA, -4)
        CFI R7 Frame(CFA, -8)
        CFI R6 Frame(CFA, -12)
        CFI R5 Frame(CFA, -16)
        CFI R4 Frame(CFA, -20)
        CFI CFA R13+20
        MOV      R4,R0
        MOV      R5,R1
        MOV      R6,R2
        MOV      R7,R3
//  605 	if(isallocatedstrid(text))trace_free(trace_strid, (void*)text, __file__, __line__ );
        MOV      R0,R7
        BL       ??isallocatedstrid
        CMP      R0,#+0
        BEQ      ??__deleaker_ProgressBar_SetText_1
        MOV      R3,R5
        MOV      R2,R4
        MOV      R1,R7
        MOV      R0,#+1
        BL       ??trace_free
//  606 	return __original_ProgressBar_SetText(__unknwnargname1, text);
??__deleaker_ProgressBar_SetText_1:
        MOV      R1,R7
        MOV      R0,R6
        SWI      +782
        POP      {R4-R7,PC}       ;; return
        CFI EndBlock cfiBlock123
//  607 }

        RSEG CODE:CODE:NOROOT(2)
        CFI Block cfiBlock124 Using cfiCommon0
        CFI NoFunction
        THUMB
??__deleaker_StatusIndication_Item8_SetText??rT:
        BX       PC
        Nop      
        CFI EndBlock cfiBlock124
        REQUIRE ??__deleaker_StatusIndication_Item8_SetText
//  608 

        RSEG CODE:CODE:NOROOT(2)
        CFI Block cfiBlock125 Using cfiCommon1
        CFI Function ??__deleaker_StatusIndication_Item8_SetText
        ARM
//  609 void __deleaker_StatusIndication_Item8_SetText( const char* __file__, int __line__, TEXTID __unknwnargname1 )
//  610 {
??__deleaker_StatusIndication_Item8_SetText:
        PUSH     {R4-R6,LR}
        CFI ?RET Frame(CFA, -4)
        CFI R6 Frame(CFA, -8)
        CFI R5 Frame(CFA, -12)
        CFI R4 Frame(CFA, -16)
        CFI CFA R13+16
        MOV      R4,R0
        MOV      R5,R1
        MOV      R6,R2
//  611 	if(isallocatedstrid(__unknwnargname1))trace_free(trace_strid, (void*)__unknwnargname1, __file__, __line__ );
        MOV      R0,R6
        BL       ??isallocatedstrid
        CMP      R0,#+0
        BEQ      ??__deleaker_StatusIndication_Item8_SetText_1
        MOV      R3,R5
        MOV      R2,R4
        MOV      R1,R6
        MOV      R0,#+1
        BL       ??trace_free
//  612 	return __original_StatusIndication_Item8_SetText(__unknwnargname1);
??__deleaker_StatusIndication_Item8_SetText_1:
        MOV      R0,R6
        SWI      +330
        POP      {R4-R6,PC}       ;; return
        CFI EndBlock cfiBlock125
//  613 }

        RSEG CODE:CODE:NOROOT(2)
        CFI Block cfiBlock126 Using cfiCommon0
        CFI NoFunction
        THUMB
??__deleaker_StatusIndication_SetItemText??rT:
        BX       PC
        Nop      
        CFI EndBlock cfiBlock126
        REQUIRE ??__deleaker_StatusIndication_SetItemText
//  614 

        RSEG CODE:CODE:NOROOT(2)
        CFI Block cfiBlock127 Using cfiCommon1
        CFI Function ??__deleaker_StatusIndication_SetItemText
        ARM
//  615 void __deleaker_StatusIndication_SetItemText( const char* __file__, int __line__, GUI* __unknwnargname1, int item, TEXTID __unknwnargname3 )
//  616 {
??__deleaker_StatusIndication_SetItemText:
        PUSH     {R4-R8,LR}
        CFI ?RET Frame(CFA, -4)
        CFI R8 Frame(CFA, -8)
        CFI R7 Frame(CFA, -12)
        CFI R6 Frame(CFA, -16)
        CFI R5 Frame(CFA, -20)
        CFI R4 Frame(CFA, -24)
        CFI CFA R13+24
        LDR      R8,[SP, #+24]
        MOV      R4,R0
        MOV      R5,R1
        MOV      R6,R2
        MOV      R7,R3
//  617 	if(isallocatedstrid(__unknwnargname3))trace_free(trace_strid, (void*)__unknwnargname3, __file__, __line__ );
        MOV      R0,R8
        BL       ??isallocatedstrid
        CMP      R0,#+0
        BEQ      ??__deleaker_StatusIndication_SetItemText_1
        MOV      R3,R5
        MOV      R2,R4
        MOV      R1,R8
        MOV      R0,#+1
        BL       ??trace_free
//  618 	return __original_StatusIndication_SetItemText(__unknwnargname1, item, __unknwnargname3);
??__deleaker_StatusIndication_SetItemText_1:
        MOV      R2,R8
        MOV      R1,R7
        MOV      R0,R6
        SWI      +322
        POP      {R4-R8,PC}       ;; return
        CFI EndBlock cfiBlock127
//  619 }

        RSEG CODE:CODE:NOROOT(2)
        CFI Block cfiBlock128 Using cfiCommon0
        CFI NoFunction
        THUMB
??__deleaker_StatusIndication_ShowNotes??rT:
        BX       PC
        Nop      
        CFI EndBlock cfiBlock128
        REQUIRE ??__deleaker_StatusIndication_ShowNotes
//  620 

        RSEG CODE:CODE:NOROOT(2)
        CFI Block cfiBlock129 Using cfiCommon1
        CFI Function ??__deleaker_StatusIndication_ShowNotes
        ARM
//  621 void __deleaker_StatusIndication_ShowNotes( const char* __file__, int __line__, TEXTID __unknwnargname1 )
//  622 {
??__deleaker_StatusIndication_ShowNotes:
        PUSH     {R4-R6,LR}
        CFI ?RET Frame(CFA, -4)
        CFI R6 Frame(CFA, -8)
        CFI R5 Frame(CFA, -12)
        CFI R4 Frame(CFA, -16)
        CFI CFA R13+16
        MOV      R4,R0
        MOV      R5,R1
        MOV      R6,R2
//  623 	if(isallocatedstrid(__unknwnargname1))trace_free(trace_strid, (void*)__unknwnargname1, __file__, __line__ );
        MOV      R0,R6
        BL       ??isallocatedstrid
        CMP      R0,#+0
        BEQ      ??__deleaker_StatusIndication_ShowNotes_1
        MOV      R3,R5
        MOV      R2,R4
        MOV      R1,R6
        MOV      R0,#+1
        BL       ??trace_free
//  624 	return __original_StatusIndication_ShowNotes(__unknwnargname1);
??__deleaker_StatusIndication_ShowNotes_1:
        MOV      R0,R6
        SWI      +323
        POP      {R4-R6,PC}       ;; return
        CFI EndBlock cfiBlock129
//  625 }

        RSEG CODE:CODE:NOROOT(2)
        CFI Block cfiBlock130 Using cfiCommon0
        CFI NoFunction
        THUMB
??__deleaker_StringInput_DispObject_SetText??rT:
        BX       PC
        Nop      
        CFI EndBlock cfiBlock130
        REQUIRE ??__deleaker_StringInput_DispObject_SetText
//  626 

        RSEG CODE:CODE:NOROOT(2)
        CFI Block cfiBlock131 Using cfiCommon1
        CFI Function ??__deleaker_StringInput_DispObject_SetText
        ARM
//  627 void __deleaker_StringInput_DispObject_SetText( const char* __file__, int __line__, DISP_OBJ* __unknwnargname1, TEXTID __unknwnargname2 )
//  628 {
??__deleaker_StringInput_DispObject_SetText:
        PUSH     {R4-R7,LR}
        CFI ?RET Frame(CFA, -4)
        CFI R7 Frame(CFA, -8)
        CFI R6 Frame(CFA, -12)
        CFI R5 Frame(CFA, -16)
        CFI R4 Frame(CFA, -20)
        CFI CFA R13+20
        MOV      R4,R0
        MOV      R5,R1
        MOV      R6,R2
        MOV      R7,R3
//  629 	if(isallocatedstrid(__unknwnargname2))trace_free(trace_strid, (void*)__unknwnargname2, __file__, __line__ );
        MOV      R0,R7
        BL       ??isallocatedstrid
        CMP      R0,#+0
        BEQ      ??__deleaker_StringInput_DispObject_SetText_1
        MOV      R3,R5
        MOV      R2,R4
        MOV      R1,R7
        MOV      R0,#+1
        BL       ??trace_free
//  630 	return __original_StringInput_DispObject_SetText(__unknwnargname1, __unknwnargname2);
??__deleaker_StringInput_DispObject_SetText_1:
        MOV      R1,R7
        MOV      R0,R6
        SWI      +786
        POP      {R4-R7,PC}       ;; return
        CFI EndBlock cfiBlock131
//  631 }

        RSEG CODE:CODE:NOROOT(2)
        CFI Block cfiBlock132 Using cfiCommon0
        CFI NoFunction
        THUMB
??__deleaker_GUIObject_SoftKeys_SetInfoText??rT:
        BX       PC
        Nop      
        CFI EndBlock cfiBlock132
        REQUIRE ??__deleaker_GUIObject_SoftKeys_SetInfoText
//  632 

        RSEG CODE:CODE:NOROOT(2)
        CFI Block cfiBlock133 Using cfiCommon1
        CFI Function ??__deleaker_GUIObject_SoftKeys_SetInfoText
        ARM
//  633 void __deleaker_GUIObject_SoftKeys_SetInfoText( const char* __file__, int __line__, GUI* __unknwnargname1, u16 actionID, TEXTID __unknwnargname3 )
//  634 {
??__deleaker_GUIObject_SoftKeys_SetInfoText:
        PUSH     {R4-R8,LR}
        CFI ?RET Frame(CFA, -4)
        CFI R8 Frame(CFA, -8)
        CFI R7 Frame(CFA, -12)
        CFI R6 Frame(CFA, -16)
        CFI R5 Frame(CFA, -20)
        CFI R4 Frame(CFA, -24)
        CFI CFA R13+24
        LDR      R8,[SP, #+24]
        MOV      R4,R0
        MOV      R5,R1
        MOV      R6,R2
        MOV      R7,R3
//  635 	if(isallocatedstrid(__unknwnargname3))trace_free(trace_strid, (void*)__unknwnargname3, __file__, __line__ );
        MOV      R0,R8
        BL       ??isallocatedstrid
        CMP      R0,#+0
        BEQ      ??__deleaker_GUIObject_SoftKeys_SetInfoText_1
        MOV      R3,R5
        MOV      R2,R4
        MOV      R1,R8
        MOV      R0,#+1
        BL       ??trace_free
//  636 	return __original_GUIObject_SoftKeys_SetInfoText(__unknwnargname1, actionID, __unknwnargname3);
??__deleaker_GUIObject_SoftKeys_SetInfoText_1:
        MOV      R2,R8
        MOV      R1,R7
        MOV      R0,R6
        SWI      +451
        POP      {R4-R8,PC}       ;; return
        CFI EndBlock cfiBlock133
//  637 }

        RSEG CODE:CODE:NOROOT(2)
        CFI Block cfiBlock134 Using cfiCommon0
        CFI NoFunction
        THUMB
??__deleaker_ListMenu_SetItemSecondLineText??rT:
        BX       PC
        Nop      
        CFI EndBlock cfiBlock134
        REQUIRE ??__deleaker_ListMenu_SetItemSecondLineText
//  638 

        RSEG CODE:CODE:NOROOT(2)
        CFI Block cfiBlock135 Using cfiCommon1
        CFI Function ??__deleaker_ListMenu_SetItemSecondLineText
        ARM
//  639 void __deleaker_ListMenu_SetItemSecondLineText( const char* __file__, int __line__, GUI_LIST* __unknwnargname1, int elem_num, TEXTID __unknwnargname3 )
//  640 {
??__deleaker_ListMenu_SetItemSecondLineText:
        PUSH     {R4-R8,LR}
        CFI ?RET Frame(CFA, -4)
        CFI R8 Frame(CFA, -8)
        CFI R7 Frame(CFA, -12)
        CFI R6 Frame(CFA, -16)
        CFI R5 Frame(CFA, -20)
        CFI R4 Frame(CFA, -24)
        CFI CFA R13+24
        LDR      R8,[SP, #+24]
        MOV      R4,R0
        MOV      R5,R1
        MOV      R6,R2
        MOV      R7,R3
//  641 	if(isallocatedstrid(__unknwnargname3))trace_free(trace_strid, (void*)__unknwnargname3, __file__, __line__ );
        MOV      R0,R8
        BL       ??isallocatedstrid
        CMP      R0,#+0
        BEQ      ??__deleaker_ListMenu_SetItemSecondLineText_1
        MOV      R3,R5
        MOV      R2,R4
        MOV      R1,R8
        MOV      R0,#+1
        BL       ??trace_free
//  642 	return __original_ListMenu_SetItemSecondLineText(__unknwnargname1, elem_num, __unknwnargname3);
??__deleaker_ListMenu_SetItemSecondLineText_1:
        MOV      R2,R8
        MOV      R1,R7
        MOV      R0,R6
        SWI      +678
        POP      {R4-R8,PC}       ;; return
        CFI EndBlock cfiBlock135
//  643 }

        RSEG CODE:CODE:NOROOT(2)
        CFI Block cfiBlock136 Using cfiCommon0
        CFI NoFunction
        THUMB
??__deleaker_GUIonMessage_SubItem_SetText??rT:
        BX       PC
        Nop      
        CFI EndBlock cfiBlock136
        REQUIRE ??__deleaker_GUIonMessage_SubItem_SetText
//  644 

        RSEG CODE:CODE:NOROOT(2)
        CFI Block cfiBlock137 Using cfiCommon1
        CFI Function ??__deleaker_GUIonMessage_SubItem_SetText
        ARM
//  645 void __deleaker_GUIonMessage_SubItem_SetText( const char* __file__, int __line__, GUI_MESSAGE* msg, TEXTID __unknwnargname2 )
//  646 {
??__deleaker_GUIonMessage_SubItem_SetText:
        PUSH     {R4-R7,LR}
        CFI ?RET Frame(CFA, -4)
        CFI R7 Frame(CFA, -8)
        CFI R6 Frame(CFA, -12)
        CFI R5 Frame(CFA, -16)
        CFI R4 Frame(CFA, -20)
        CFI CFA R13+20
        MOV      R4,R0
        MOV      R5,R1
        MOV      R6,R2
        MOV      R7,R3
//  647 	if(isallocatedstrid(__unknwnargname2))trace_free(trace_strid, (void*)__unknwnargname2, __file__, __line__ );
        MOV      R0,R7
        BL       ??isallocatedstrid
        CMP      R0,#+0
        BEQ      ??__deleaker_GUIonMessage_SubItem_SetText_1
        MOV      R3,R5
        MOV      R2,R4
        MOV      R1,R7
        MOV      R0,#+1
        BL       ??trace_free
//  648 	return __original_GUIonMessage_SubItem_SetText(msg, __unknwnargname2);
??__deleaker_GUIonMessage_SubItem_SetText_1:
        MOV      R1,R7
        MOV      R0,R6
        SWI      +581
        POP      {R4-R7,PC}       ;; return
        CFI EndBlock cfiBlock137
//  649 }

        RSEG CODE:CODE:NOROOT(2)
        CFI Block cfiBlock138 Using cfiCommon0
        CFI NoFunction
        THUMB
??__deleaker_Feedback_SetTextExtended??rT:
        BX       PC
        Nop      
        CFI EndBlock cfiBlock138
        REQUIRE ??__deleaker_Feedback_SetTextExtended
//  650 

        RSEG CODE:CODE:NOROOT(2)
        CFI Block cfiBlock139 Using cfiCommon1
        CFI Function ??__deleaker_Feedback_SetTextExtended
        ARM
//  651 void __deleaker_Feedback_SetTextExtended( const char* __file__, int __line__, GUI_FEEDBACK* __unknwnargname1, TEXTID text, int where )
//  652 {
??__deleaker_Feedback_SetTextExtended:
        PUSH     {R4-R8,LR}
        CFI ?RET Frame(CFA, -4)
        CFI R8 Frame(CFA, -8)
        CFI R7 Frame(CFA, -12)
        CFI R6 Frame(CFA, -16)
        CFI R5 Frame(CFA, -20)
        CFI R4 Frame(CFA, -24)
        CFI CFA R13+24
        MOV      R4,R0
        MOV      R5,R1
        LDR      R8,[SP, #+24]
        MOV      R6,R2
        MOV      R7,R3
//  653 	if(isallocatedstrid(text))trace_free(trace_strid, (void*)text, __file__, __line__ );
        MOV      R0,R7
        BL       ??isallocatedstrid
        CMP      R0,#+0
        BEQ      ??__deleaker_Feedback_SetTextExtended_1
        MOV      R3,R5
        MOV      R2,R4
        MOV      R1,R7
        MOV      R0,#+1
        BL       ??trace_free
//  654 	return __original_Feedback_SetTextExtended(__unknwnargname1, text, where);
??__deleaker_Feedback_SetTextExtended_1:
        MOV      R2,R8
        MOV      R1,R7
        MOV      R0,R6
        SWI      +713
        POP      {R4-R8,PC}       ;; return
        CFI EndBlock cfiBlock139
//  655 }

        RSEG CODE:CODE:NOROOT(2)
        CFI Block cfiBlock140 Using cfiCommon0
        CFI NoFunction
        THUMB
??__deleaker_GUIObject_SoftKeys_SetTexts??rT:
        BX       PC
        Nop      
        CFI EndBlock cfiBlock140
        REQUIRE ??__deleaker_GUIObject_SoftKeys_SetTexts
//  656 

        RSEG CODE:CODE:NOROOT(2)
        CFI Block cfiBlock141 Using cfiCommon1
        CFI Function ??__deleaker_GUIObject_SoftKeys_SetTexts
        ARM
//  657 void __deleaker_GUIObject_SoftKeys_SetTexts( const char* __file__, int __line__, GUI* __unknwnargname1, u16 actionID, TEXTID short_text, TEXTID full_text )
//  658 {
??__deleaker_GUIObject_SoftKeys_SetTexts:
        PUSH     {R4-R9,LR}
        CFI ?RET Frame(CFA, -4)
        CFI R9 Frame(CFA, -8)
        CFI R8 Frame(CFA, -12)
        CFI R7 Frame(CFA, -16)
        CFI R6 Frame(CFA, -20)
        CFI R5 Frame(CFA, -24)
        CFI R4 Frame(CFA, -28)
        CFI CFA R13+28
        LDR      R8,[SP, #+28]
        MOV      R4,R0
        LDR      R9,[SP, #+32]
        MOV      R5,R1
        MOV      R6,R2
        MOV      R7,R3
//  659 	if(isallocatedstrid(short_text))trace_free(trace_strid, (void*)short_text, __file__, __line__ );
        MOV      R0,R8
        BL       ??isallocatedstrid
        CMP      R0,#+0
        BEQ      ??__deleaker_GUIObject_SoftKeys_SetTexts_1
        MOV      R3,R5
        MOV      R2,R4
        MOV      R1,R8
        MOV      R0,#+1
        BL       ??trace_free
//  660 	if(isallocatedstrid(full_text))trace_free(trace_strid, (void*)full_text, __file__, __line__ );
??__deleaker_GUIObject_SoftKeys_SetTexts_1:
        MOV      R0,R9
        BL       ??isallocatedstrid
        CMP      R0,#+0
        BEQ      ??__deleaker_GUIObject_SoftKeys_SetTexts_2
        MOV      R3,R5
        MOV      R2,R4
        MOV      R1,R9
        MOV      R0,#+1
        BL       ??trace_free
//  661 	return __original_GUIObject_SoftKeys_SetTexts(__unknwnargname1, actionID, short_text, full_text);
??__deleaker_GUIObject_SoftKeys_SetTexts_2:
        MOV      R3,R9
        MOV      R2,R8
        MOV      R1,R7
        MOV      R0,R6
        SWI      +455
        POP      {R4-R9,PC}       ;; return
        CFI EndBlock cfiBlock141
//  662 }

        RSEG CODE:CODE:NOROOT(2)
        CFI Block cfiBlock142 Using cfiCommon0
        CFI NoFunction
        THUMB
??__deleaker_PNUM2Name??rT:
        BX       PC
        Nop      
        CFI EndBlock cfiBlock142
        REQUIRE ??__deleaker_PNUM2Name
//  663 

        RSEG CODE:CODE:NOROOT(2)
        CFI Block cfiBlock143 Using cfiCommon1
        CFI Function ??__deleaker_PNUM2Name
        ARM
//  664 TEXTID __deleaker_PNUM2Name( const char* __file__, int __line__, void* pnum, int isIconNeeded, int only_full_number_flag )
//  665 {
??__deleaker_PNUM2Name:
        PUSH     {R4-R6,LR}
        CFI ?RET Frame(CFA, -4)
        CFI R6 Frame(CFA, -8)
        CFI R5 Frame(CFA, -12)
        CFI R4 Frame(CFA, -16)
        CFI CFA R13+16
        MOV      R4,R0
        MOV      R5,R1
        MOV      R0,R2
        LDR      R2,[SP, #+16]
        MOV      R1,R3
//  666 	TEXTID ret = __original_PNUM2Name(pnum, isIconNeeded, only_full_number_flag);
        SWI      +749
        MOV      R6,R0
//  667 	if(isallocatedstrid(ret))
        BL       ??isallocatedstrid
        CMP      R0,#+0
        BEQ      ??__deleaker_PNUM2Name_1
//  668 		trace_alloc(trace_strid, (void*)ret, __file__, __line__);
        MOV      R3,R5
        MOV      R2,R4
        MOV      R1,R6
        MOV      R0,#+1
        BL       ??trace_alloc
//  669 	return ret;
??__deleaker_PNUM2Name_1:
        MOV      R0,R6
        POP      {R4-R6,PC}       ;; return
        CFI EndBlock cfiBlock143
//  670 }

        RSEG CODE:CODE:NOROOT(2)
        CFI Block cfiBlock144 Using cfiCommon0
        CFI NoFunction
        THUMB
??__deleaker_Date2ID??rT:
        BX       PC
        Nop      
        CFI EndBlock cfiBlock144
        REQUIRE ??__deleaker_Date2ID
//  671 

        RSEG CODE:CODE:NOROOT(2)
        CFI Block cfiBlock145 Using cfiCommon1
        CFI Function ??__deleaker_Date2ID
        ARM
//  672 int __deleaker_Date2ID( const char* __file__, int __line__, DATE* __unknwnargname1, int TimeFormat, int __unknwnargname3 )
//  673 {
??__deleaker_Date2ID:
        PUSH     {R4-R6,LR}
        CFI ?RET Frame(CFA, -4)
        CFI R6 Frame(CFA, -8)
        CFI R5 Frame(CFA, -12)
        CFI R4 Frame(CFA, -16)
        CFI CFA R13+16
        MOV      R4,R0
        MOV      R5,R1
        MOV      R0,R2
        LDR      R2,[SP, #+16]
        MOV      R1,R3
//  674 	int ret = __original_Date2ID(__unknwnargname1, TimeFormat, __unknwnargname3);
        SWI      +446
        MOV      R6,R0
//  675 	if(isallocatedstrid(ret))
        BL       ??isallocatedstrid
        CMP      R0,#+0
        BEQ      ??__deleaker_Date2ID_1
//  676 		trace_alloc(trace_strid, (void*)ret, __file__, __line__);
        MOV      R3,R5
        MOV      R2,R4
        MOV      R1,R6
        MOV      R0,#+1
        BL       ??trace_alloc
//  677 	return ret;
??__deleaker_Date2ID_1:
        MOV      R0,R6
        POP      {R4-R6,PC}       ;; return
        CFI EndBlock cfiBlock145
//  678 }

        RSEG CODE:CODE:NOROOT(2)
        CFI Block cfiBlock146 Using cfiCommon0
        CFI NoFunction
        THUMB
??__deleaker_Time2ID??rT:
        BX       PC
        Nop      
        CFI EndBlock cfiBlock146
        REQUIRE ??__deleaker_Time2ID
//  679 

        RSEG CODE:CODE:NOROOT(2)
        CFI Block cfiBlock147 Using cfiCommon1
        CFI Function ??__deleaker_Time2ID
        ARM
//  680 int __deleaker_Time2ID( const char* __file__, int __line__, TIME* __unknwnargname1, char TimeFormat, int isSec )
//  681 {
??__deleaker_Time2ID:
        PUSH     {R4-R6,LR}
        CFI ?RET Frame(CFA, -4)
        CFI R6 Frame(CFA, -8)
        CFI R5 Frame(CFA, -12)
        CFI R4 Frame(CFA, -16)
        CFI CFA R13+16
        MOV      R4,R0
        MOV      R5,R1
        MOV      R0,R2
        LDR      R2,[SP, #+16]
        MOV      R1,R3
//  682 	int ret = __original_Time2ID(__unknwnargname1, TimeFormat, isSec);
        SWI      +447
        MOV      R6,R0
//  683 	if(isallocatedstrid(ret))
        BL       ??isallocatedstrid
        CMP      R0,#+0
        BEQ      ??__deleaker_Time2ID_1
//  684 		trace_alloc(trace_strid, (void*)ret, __file__, __line__);
        MOV      R3,R5
        MOV      R2,R4
        MOV      R1,R6
        MOV      R0,#+1
        BL       ??trace_alloc
//  685 	return ret;
??__deleaker_Time2ID_1:
        MOV      R0,R6
        POP      {R4-R6,PC}       ;; return
        CFI EndBlock cfiBlock147
//  686 }

        RSEG CODE:CODE:NOROOT(2)
        CFI Block cfiBlock148 Using cfiCommon0
        CFI NoFunction
        THUMB
??__deleaker_KeyCode2Name??rT:
        BX       PC
        Nop      
        CFI EndBlock cfiBlock148
        REQUIRE ??__deleaker_KeyCode2Name
//  687 

        RSEG CODE:CODE:NOROOT(2)
        CFI Block cfiBlock149 Using cfiCommon1
        CFI Function ??__deleaker_KeyCode2Name
        ARM
//  688 TEXTID __deleaker_KeyCode2Name( const char* __file__, int __line__, int key_code )
//  689 {
??__deleaker_KeyCode2Name:
        PUSH     {R4-R6,LR}
        CFI ?RET Frame(CFA, -4)
        CFI R6 Frame(CFA, -8)
        CFI R5 Frame(CFA, -12)
        CFI R4 Frame(CFA, -16)
        CFI CFA R13+16
        MOV      R4,R0
        MOV      R5,R1
        MOV      R0,R2
//  690 	TEXTID ret = __original_KeyCode2Name(key_code);
        SWI      +715
        MOV      R6,R0
//  691 	if(isallocatedstrid(ret))trace_alloc(trace_strid, (void*)ret, __file__, __line__);
        BL       ??isallocatedstrid
        CMP      R0,#+0
        BEQ      ??__deleaker_KeyCode2Name_1
        MOV      R3,R5
        MOV      R2,R4
        MOV      R1,R6
        MOV      R0,#+1
        BL       ??trace_alloc
//  692 	return ret;
??__deleaker_KeyCode2Name_1:
        MOV      R0,R6
        POP      {R4-R6,PC}       ;; return
        CFI EndBlock cfiBlock149
//  693 }

        RSEG CODE:CODE:NOROOT(2)
        CFI Block cfiBlock150 Using cfiCommon0
        CFI NoFunction
        THUMB
??__deleaker_NOfMany_SetTexts??rT:
        BX       PC
        Nop      
        CFI EndBlock cfiBlock150
        REQUIRE ??__deleaker_NOfMany_SetTexts
//  694 

        RSEG CODE:CODE:NOROOT(2)
        CFI Block cfiBlock151 Using cfiCommon1
        CFI Function ??__deleaker_NOfMany_SetTexts
        ARM
//  695 void __deleaker_NOfMany_SetTexts( const char* __file__, int __line__, GUI_NOFMANY* __unknwnargname1, TEXTID* strids, int items_count )
//  696 {
??__deleaker_NOfMany_SetTexts:
        PUSH     {R4-R9,LR}
        CFI ?RET Frame(CFA, -4)
        CFI R9 Frame(CFA, -8)
        CFI R8 Frame(CFA, -12)
        CFI R7 Frame(CFA, -16)
        CFI R6 Frame(CFA, -20)
        CFI R5 Frame(CFA, -24)
        CFI R4 Frame(CFA, -28)
        CFI CFA R13+28
        LDR      R8,[SP, #+28]
        MOV      R4,R0
        MOV      R5,R1
        MOV      R6,R2
        MOV      R7,R3
//  697 	for(int i=0;i<items_count;i++)
        MOV      R9,#+0
        CMP      R8,#+1
        BGE      ??__deleaker_NOfMany_SetTexts_1
//  698 		if(isallocatedstrid(strids[i]))trace_free(trace_strid, (void*)strids[i], __file__, __line__ );
//  699 	__original_NOfMany_SetTexts(__unknwnargname1, strids, items_count);
??__deleaker_NOfMany_SetTexts_2:
        MOV      R2,R8
        MOV      R1,R7
        MOV      R0,R6
        SWI      +469
//  700 }
        POP      {R4-R9,PC}       ;; return
??__deleaker_NOfMany_SetTexts_3:
        CMP      R0,#+0
        BEQ      ??__deleaker_NOfMany_SetTexts_4
        LDR      R1,[R7, +R9, LSL #+2]
        MOV      R3,R5
        MOV      R2,R4
        MOV      R0,#+1
        BL       ??trace_free
??__deleaker_NOfMany_SetTexts_4:
        ADD      R9,R9,#+1
??__deleaker_NOfMany_SetTexts_1:
        CMP      R9,R8
        BGE      ??__deleaker_NOfMany_SetTexts_2
        LDR      R0,[R7, +R9, LSL #+2]
        BL       ??isallocatedstrid
        CMP      R0,#+0
        BEQ      ??__deleaker_NOfMany_SetTexts_3
        MOV      R0,#+1
        B        ??__deleaker_NOfMany_SetTexts_3
        CFI EndBlock cfiBlock151

        RSEG CODE:CODE:NOROOT(2)
        CFI Block cfiBlock152 Using cfiCommon0
        CFI NoFunction
        THUMB
??__deleaker_OneOfMany_SetTexts??rT:
        BX       PC
        Nop      
        CFI EndBlock cfiBlock152
        REQUIRE ??__deleaker_OneOfMany_SetTexts
//  701 

        RSEG CODE:CODE:NOROOT(2)
        CFI Block cfiBlock153 Using cfiCommon1
        CFI Function ??__deleaker_OneOfMany_SetTexts
        ARM
//  702 void __deleaker_OneOfMany_SetTexts( const char* __file__, int __line__, GUI_ONEOFMANY* __unknwnargname1, TEXTID* strids, int Count )
//  703 {
??__deleaker_OneOfMany_SetTexts:
        PUSH     {R4-R9,LR}
        CFI ?RET Frame(CFA, -4)
        CFI R9 Frame(CFA, -8)
        CFI R8 Frame(CFA, -12)
        CFI R7 Frame(CFA, -16)
        CFI R6 Frame(CFA, -20)
        CFI R5 Frame(CFA, -24)
        CFI R4 Frame(CFA, -28)
        CFI CFA R13+28
        LDR      R8,[SP, #+28]
        MOV      R4,R0
        MOV      R5,R1
        MOV      R6,R2
        MOV      R7,R3
//  704 	for(int i=0;i<Count;i++)
        MOV      R9,#+0
        CMP      R8,#+1
        BGE      ??__deleaker_OneOfMany_SetTexts_1
//  705 		if(isallocatedstrid(strids[i]))trace_free(trace_strid, (void*)strids[i], __file__, __line__ );
//  706 	__original_OneOfMany_SetTexts(__unknwnargname1, strids, Count);
??__deleaker_OneOfMany_SetTexts_2:
        MOV      R2,R8
        MOV      R1,R7
        MOV      R0,R6
        SWI      +328
//  707 }
        POP      {R4-R9,PC}       ;; return
??__deleaker_OneOfMany_SetTexts_3:
        CMP      R0,#+0
        BEQ      ??__deleaker_OneOfMany_SetTexts_4
        LDR      R1,[R7, +R9, LSL #+2]
        MOV      R3,R5
        MOV      R2,R4
        MOV      R0,#+1
        BL       ??trace_free
??__deleaker_OneOfMany_SetTexts_4:
        ADD      R9,R9,#+1
??__deleaker_OneOfMany_SetTexts_1:
        CMP      R9,R8
        BGE      ??__deleaker_OneOfMany_SetTexts_2
        LDR      R0,[R7, +R9, LSL #+2]
        BL       ??isallocatedstrid
        CMP      R0,#+0
        BEQ      ??__deleaker_OneOfMany_SetTexts_3
        MOV      R0,#+1
        B        ??__deleaker_OneOfMany_SetTexts_3
        CFI EndBlock cfiBlock153

        RSEG CODE:CODE:NOROOT(2)
        CFI Block cfiBlock154 Using cfiCommon0
        CFI NoFunction
        THUMB
??__deleaker_Feedback_SetText??rT:
        BX       PC
        Nop      
        CFI EndBlock cfiBlock154
        REQUIRE ??__deleaker_Feedback_SetText
//  708 

        RSEG CODE:CODE:NOROOT(2)
        CFI Block cfiBlock155 Using cfiCommon1
        CFI Function ??__deleaker_Feedback_SetText
        ARM
//  709 void __deleaker_Feedback_SetText( const char* __file__, int __line__, GUI_FEEDBACK* __unknwnargname1, TEXTID __unknwnargname2 )
//  710 {
??__deleaker_Feedback_SetText:
        PUSH     {R4-R7,LR}
        CFI ?RET Frame(CFA, -4)
        CFI R7 Frame(CFA, -8)
        CFI R6 Frame(CFA, -12)
        CFI R5 Frame(CFA, -16)
        CFI R4 Frame(CFA, -20)
        CFI CFA R13+20
        MOV      R4,R0
        MOV      R5,R1
        MOV      R6,R2
        MOV      R7,R3
//  711 	if(isallocatedstrid(__unknwnargname2))trace_free(trace_strid, (void*)__unknwnargname2, __file__, __line__ );
        MOV      R0,R7
        BL       ??isallocatedstrid
        CMP      R0,#+0
        BEQ      ??__deleaker_Feedback_SetText_1
        MOV      R3,R5
        MOV      R2,R4
        MOV      R1,R7
        MOV      R0,#+1
        BL       ??trace_free
//  712 	return __original_Feedback_SetText(__unknwnargname1, __unknwnargname2);
??__deleaker_Feedback_SetText_1:
        MOV      R1,R7
        MOV      R0,R6
        SWI      +483
        POP      {R4-R7,PC}       ;; return
        CFI EndBlock cfiBlock155
//  713 }

        RSEG CODE:CODE:NOROOT(2)
        CFI Block cfiBlock156 Using cfiCommon0
        CFI NoFunction
        THUMB
??__deleaker_Gif2ID??rT:
        BX       PC
        Nop      
        CFI EndBlock cfiBlock156
        REQUIRE ??__deleaker_Gif2ID
//  714 

        RSEG CODE:CODE:NOROOT(2)
        CFI Block cfiBlock157 Using cfiCommon1
        CFI Function ??__deleaker_Gif2ID
        ARM
//  715 int __deleaker_Gif2ID( const char* __file__, int __line__, u16 IMAGEHANDLE, const wchar_t* path, const wchar_t* fname, IMAGEID* __unknwnargname4 )
//  716 {//проверить код ошибки
??__deleaker_Gif2ID:
        PUSH     {R4-R7,LR}
        CFI ?RET Frame(CFA, -4)
        CFI R7 Frame(CFA, -8)
        CFI R6 Frame(CFA, -12)
        CFI R5 Frame(CFA, -16)
        CFI R4 Frame(CFA, -20)
        CFI CFA R13+20
        LDR      R6,[SP, #+24]
        MOV      R4,R0
        MOV      R5,R1
        MOV      R0,R2
        LDR      R2,[SP, #+20]
        MOV      R1,R3
//  717 	int ret = __original_Gif2ID(IMAGEHANDLE, path, fname, __unknwnargname4);
        MOV      R3,R6
        SWI      +364
        MOVS     R7,R0
//  718 	if(ret)trace_alloc(trace_iconid, (void*)*__unknwnargname4, __file__, __line__);
        BEQ      ??__deleaker_Gif2ID_1
        LDRH     R1,[R6, #+0]
        MOV      R3,R5
        MOV      R2,R4
        MOV      R0,#+2
        BL       ??trace_alloc
//  719 	return ret;
??__deleaker_Gif2ID_1:
        MOV      R0,R7
        POP      {R4-R7,PC}       ;; return
        CFI EndBlock cfiBlock157
//  720 }

        RSEG CODE:CODE:NOROOT(2)
        CFI Block cfiBlock158 Using cfiCommon0
        CFI NoFunction
        THUMB
??__deleaker_GUIObject_SetTitleIcon??rT:
        BX       PC
        Nop      
        CFI EndBlock cfiBlock158
        REQUIRE ??__deleaker_GUIObject_SetTitleIcon
//  721 

        RSEG CODE:CODE:NOROOT(2)
        CFI Block cfiBlock159 Using cfiCommon1
        CFI Function ??__deleaker_GUIObject_SetTitleIcon
        ARM
//  722 void __deleaker_GUIObject_SetTitleIcon( const char* __file__, int __line__, GUI* __unknwnargname1, IMAGEID __unknwnargname2 )
//  723 {
??__deleaker_GUIObject_SetTitleIcon:
        PUSH     {R4-R7,LR}
        CFI ?RET Frame(CFA, -4)
        CFI R7 Frame(CFA, -8)
        CFI R6 Frame(CFA, -12)
        CFI R5 Frame(CFA, -16)
        CFI R4 Frame(CFA, -20)
        CFI CFA R13+20
        MOV      R4,R0
        MOV      R5,R1
        MOV      R6,R2
        MOV      R7,R3
//  724 	if(isallocatediconid(__unknwnargname2))trace_free(trace_iconid, (void*)__unknwnargname2, __file__, __line__ );
        MOV      R0,R7
        BL       ??isallocatediconid
        CMP      R0,#+0
        BEQ      ??__deleaker_GUIObject_SetTitleIcon_1
        MOV      R3,R5
        MOV      R2,R4
        MOV      R1,R7
        MOV      R0,#+2
        BL       ??trace_free
//  725 	__original_GUIObject_SetTitleIcon(__unknwnargname1, __unknwnargname2);
??__deleaker_GUIObject_SetTitleIcon_1:
        MOV      R1,R7
        MOV      R0,R6
        SWI      +788
//  726 }
        POP      {R4-R7,PC}       ;; return
        CFI EndBlock cfiBlock159

        RSEG CODE:CODE:NOROOT(2)
        CFI Block cfiBlock160 Using cfiCommon0
        CFI NoFunction
        THUMB
??__deleaker_GUIInput_SetIcon??rT:
        BX       PC
        Nop      
        CFI EndBlock cfiBlock160
        REQUIRE ??__deleaker_GUIInput_SetIcon
//  727 

        RSEG CODE:CODE:NOROOT(2)
        CFI Block cfiBlock161 Using cfiCommon1
        CFI Function ??__deleaker_GUIInput_SetIcon
        ARM
//  728 void __deleaker_GUIInput_SetIcon( const char* __file__, int __line__, GUI* __unknwnargname1, IMAGEID __unknwnargname2 )
//  729 {
??__deleaker_GUIInput_SetIcon:
        PUSH     {R4-R7,LR}
        CFI ?RET Frame(CFA, -4)
        CFI R7 Frame(CFA, -8)
        CFI R6 Frame(CFA, -12)
        CFI R5 Frame(CFA, -16)
        CFI R4 Frame(CFA, -20)
        CFI CFA R13+20
        MOV      R4,R0
        MOV      R5,R1
        MOV      R6,R2
        MOV      R7,R3
//  730 	if(isallocatediconid(__unknwnargname2))trace_free(trace_iconid, (void*)__unknwnargname2, __file__, __line__ );
        MOV      R0,R7
        BL       ??isallocatediconid
        CMP      R0,#+0
        BEQ      ??__deleaker_GUIInput_SetIcon_1
        MOV      R3,R5
        MOV      R2,R4
        MOV      R1,R7
        MOV      R0,#+2
        BL       ??trace_free
//  731 	__original_GUIInput_SetIcon(__unknwnargname1, __unknwnargname2);
??__deleaker_GUIInput_SetIcon_1:
        MOV      R1,R7
        MOV      R0,R6
        SWI      +463
//  732 }
        POP      {R4-R7,PC}       ;; return
        CFI EndBlock cfiBlock161

        RSEG CODE:CODE:NOROOT(2)
        CFI Block cfiBlock162 Using cfiCommon0
        CFI NoFunction
        THUMB
??__deleaker_ProgressBar_SetIcon??rT:
        BX       PC
        Nop      
        CFI EndBlock cfiBlock162
        REQUIRE ??__deleaker_ProgressBar_SetIcon
//  733 

        RSEG CODE:CODE:NOROOT(2)
        CFI Block cfiBlock163 Using cfiCommon1
        CFI Function ??__deleaker_ProgressBar_SetIcon
        ARM
//  734 void __deleaker_ProgressBar_SetIcon( const char* __file__, int __line__, GUI* __unknwnargname1, IMAGEID __unknwnargname2 )
//  735 {
??__deleaker_ProgressBar_SetIcon:
        PUSH     {R4-R7,LR}
        CFI ?RET Frame(CFA, -4)
        CFI R7 Frame(CFA, -8)
        CFI R6 Frame(CFA, -12)
        CFI R5 Frame(CFA, -16)
        CFI R4 Frame(CFA, -20)
        CFI CFA R13+20
        MOV      R4,R0
        MOV      R5,R1
        MOV      R6,R2
        MOV      R7,R3
//  736 	if(isallocatediconid(__unknwnargname2))trace_free(trace_iconid, (void*)__unknwnargname2, __file__, __line__ );
        MOV      R0,R7
        BL       ??isallocatediconid
        CMP      R0,#+0
        BEQ      ??__deleaker_ProgressBar_SetIcon_1
        MOV      R3,R5
        MOV      R2,R4
        MOV      R1,R7
        MOV      R0,#+2
        BL       ??trace_free
//  737 	__original_ProgressBar_SetIcon(__unknwnargname1, __unknwnargname2);
??__deleaker_ProgressBar_SetIcon_1:
        MOV      R1,R7
        MOV      R0,R6
        SWI      +783
//  738 }
        POP      {R4-R7,PC}       ;; return
        CFI EndBlock cfiBlock163

        RSEG CODE:CODE:NOROOT(2)
        CFI Block cfiBlock164 Using cfiCommon0
        CFI NoFunction
        THUMB
??__deleaker_GUIonMessage_SetMenuItemIcon??rT:
        BX       PC
        Nop      
        CFI EndBlock cfiBlock164
        REQUIRE ??__deleaker_GUIonMessage_SetMenuItemIcon
//  739 

        RSEG CODE:CODE:NOROOT(2)
        CFI Block cfiBlock165 Using cfiCommon1
        CFI Function ??__deleaker_GUIonMessage_SetMenuItemIcon
        ARM
//  740 void __deleaker_GUIonMessage_SetMenuItemIcon( const char* __file__, int __line__, GUI_MESSAGE* msg, int align, IMAGEID __unknwnargname3 )
//  741 {
??__deleaker_GUIonMessage_SetMenuItemIcon:
        PUSH     {R4-R8,LR}
        CFI ?RET Frame(CFA, -4)
        CFI R8 Frame(CFA, -8)
        CFI R7 Frame(CFA, -12)
        CFI R6 Frame(CFA, -16)
        CFI R5 Frame(CFA, -20)
        CFI R4 Frame(CFA, -24)
        CFI CFA R13+24
        LDRH     R8,[SP, #+24]
        MOV      R4,R0
        MOV      R5,R1
        MOV      R6,R2
        MOV      R7,R3
//  742 	if(isallocatediconid(__unknwnargname3))trace_free(trace_iconid, (void*)__unknwnargname3, __file__, __line__ );
        MOV      R0,R8
        BL       ??isallocatediconid
        CMP      R0,#+0
        BEQ      ??__deleaker_GUIonMessage_SetMenuItemIcon_1
        MOV      R3,R5
        MOV      R2,R4
        MOV      R1,R8
        MOV      R0,#+2
        BL       ??trace_free
//  743 	__original_GUIonMessage_SetMenuItemIcon(msg, align, __unknwnargname3);
??__deleaker_GUIonMessage_SetMenuItemIcon_1:
        MOV      R2,R8
        MOV      R1,R7
        MOV      R0,R6
        SWI      +316
//  744 }
        POP      {R4-R8,PC}       ;; return
        CFI EndBlock cfiBlock165

        RSEG CODE:CODE:NOROOT(2)
        CFI Block cfiBlock166 Using cfiCommon0
        CFI NoFunction
        THUMB
??__deleaker_TabMenuBar_SetTabIcon??rT:
        BX       PC
        Nop      
        CFI EndBlock cfiBlock166
        REQUIRE ??__deleaker_TabMenuBar_SetTabIcon
//  745 

        RSEG CODE:CODE:NOROOT(2)
        CFI Block cfiBlock167 Using cfiCommon1
        CFI Function ??__deleaker_TabMenuBar_SetTabIcon
        ARM
//  746 void __deleaker_TabMenuBar_SetTabIcon( const char* __file__, int __line__, GUI_TABMENUBAR* __unknwnargname1, int tab, IMAGEID __unknwnargname3, int for_state )
//  747 {
??__deleaker_TabMenuBar_SetTabIcon:
        PUSH     {R4-R9,LR}
        CFI ?RET Frame(CFA, -4)
        CFI R9 Frame(CFA, -8)
        CFI R8 Frame(CFA, -12)
        CFI R7 Frame(CFA, -16)
        CFI R6 Frame(CFA, -20)
        CFI R5 Frame(CFA, -24)
        CFI R4 Frame(CFA, -28)
        CFI CFA R13+28
        LDRH     R8,[SP, #+28]
        MOV      R4,R0
        LDR      R9,[SP, #+32]
        MOV      R5,R1
        MOV      R6,R2
        MOV      R7,R3
//  748 	if(isallocatediconid(__unknwnargname3))trace_free(trace_iconid, (void*)__unknwnargname3, __file__, __line__ );
        MOV      R0,R8
        BL       ??isallocatediconid
        CMP      R0,#+0
        BEQ      ??__deleaker_TabMenuBar_SetTabIcon_1
        MOV      R3,R5
        MOV      R2,R4
        MOV      R1,R8
        MOV      R0,#+2
        BL       ??trace_free
//  749 	__original_TabMenuBar_SetTabIcon(__unknwnargname1, tab, __unknwnargname3, for_state);
??__deleaker_TabMenuBar_SetTabIcon_1:
        MOV      R3,R9
        MOV      R2,R8
        MOV      R1,R7
        MOV      R0,R6
        SWI      +461
//  750 }
        POP      {R4-R9,PC}       ;; return
        CFI EndBlock cfiBlock167

        RSEG CODE:CODE:NOROOT(2)
        CFI Block cfiBlock168 Using cfiCommon0
        CFI NoFunction
        THUMB
??__deleaker_VCALL_SetNameIcon??rT:
        BX       PC
        Nop      
        CFI EndBlock cfiBlock168
        REQUIRE ??__deleaker_VCALL_SetNameIcon
//  751 

        RSEG CODE:CODE:NOROOT(2)
        CFI Block cfiBlock169 Using cfiCommon1
        CFI Function ??__deleaker_VCALL_SetNameIcon
        ARM
//  752 void __deleaker_VCALL_SetNameIcon( const char* __file__, int __line__, void* vc, IMAGEID __unknwnargname2 )
//  753 {
??__deleaker_VCALL_SetNameIcon:
        PUSH     {R4-R7,LR}
        CFI ?RET Frame(CFA, -4)
        CFI R7 Frame(CFA, -8)
        CFI R6 Frame(CFA, -12)
        CFI R5 Frame(CFA, -16)
        CFI R4 Frame(CFA, -20)
        CFI CFA R13+20
        MOV      R4,R0
        MOV      R5,R1
        MOV      R6,R2
        MOV      R7,R3
//  754 	if(isallocatediconid(__unknwnargname2))trace_free(trace_iconid, (void*)__unknwnargname2, __file__, __line__ );
        MOV      R0,R7
        BL       ??isallocatediconid
        CMP      R0,#+0
        BEQ      ??__deleaker_VCALL_SetNameIcon_1
        MOV      R3,R5
        MOV      R2,R4
        MOV      R1,R7
        MOV      R0,#+2
        BL       ??trace_free
//  755 	__original_VCALL_SetNameIcon(vc, __unknwnargname2);
??__deleaker_VCALL_SetNameIcon_1:
        MOV      R1,R7
        MOV      R0,R6
        SWI      +516
//  756 }
        POP      {R4-R7,PC}       ;; return
        CFI EndBlock cfiBlock169

        RSEG CODE:CODE:NOROOT(2)
        CFI Block cfiBlock170 Using cfiCommon0
        CFI NoFunction
        THUMB
??__deleaker_ModifyKeyHook??rT:
        BX       PC
        Nop      
        CFI EndBlock cfiBlock170
        REQUIRE ??__deleaker_ModifyKeyHook
//  757 

        RSEG CODE:CODE:NOROOT(2)
        CFI Block cfiBlock171 Using cfiCommon1
        CFI Function ??__deleaker_ModifyKeyHook
        ARM
//  758 int __deleaker_ModifyKeyHook( const char* __file__, int __line__, KEYHOOKPROC proc, int mode, LPARAM lparam )
//  759 {
??__deleaker_ModifyKeyHook:
        PUSH     {R4-R8,LR}
        CFI ?RET Frame(CFA, -4)
        CFI R8 Frame(CFA, -8)
        CFI R7 Frame(CFA, -12)
        CFI R6 Frame(CFA, -16)
        CFI R5 Frame(CFA, -20)
        CFI R4 Frame(CFA, -24)
        CFI CFA R13+24
        MOV      R4,R0
        MOV      R5,R1
        MOV      R6,R2
        LDR      R2,[SP, #+24]
        MOV      R7,R3
//  760 	int ret = __original_ModifyKeyHook(proc, mode, lparam);
        MOV      R1,R7
        MOV      R0,R6
        SWI      +263
        MOV      R8,R0
//  761 	if(mode==KEY_HOOK_REMOVE)trace_free(trace_hook, (void*)proc, __file__, __line__ );
        CMP      R7,#+0
        BNE      ??__deleaker_ModifyKeyHook_1
        MOV      R3,R5
        MOV      R2,R4
        MOV      R1,R6
        MOV      R0,#+5
        BL       ??trace_free
        MOV      R0,R8
        POP      {R4-R8,PC}
//  762 	if(mode==KEY_HOOK_ADD)trace_alloc(trace_hook, (void*)proc, __file__, __line__);
??__deleaker_ModifyKeyHook_1:
        CMP      R7,#+1
        BNE      ??__deleaker_ModifyKeyHook_2
        MOV      R3,R5
        MOV      R2,R4
        MOV      R1,R6
        MOV      R0,#+5
        BL       ??trace_alloc
//  763 	return ret;
??__deleaker_ModifyKeyHook_2:
        MOV      R0,R8
        POP      {R4-R8,PC}       ;; return
        CFI EndBlock cfiBlock171
//  764 }

        RSEG CODE:CODE:NOROOT(2)
        CFI Block cfiBlock172 Using cfiCommon0
        CFI NoFunction
        THUMB
??__deleaker_ModifyUIPageHook??rT:
        BX       PC
        Nop      
        CFI EndBlock cfiBlock172
        REQUIRE ??__deleaker_ModifyUIPageHook
//  765 

        RSEG CODE:CODE:NOROOT(2)
        CFI Block cfiBlock173 Using cfiCommon1
        CFI Function ??__deleaker_ModifyUIPageHook
        ARM
//  766 int __deleaker_ModifyUIPageHook( const char* __file__, int __line__, int event, PAGEHOOKPROC proc, LPARAM ClientData, int mode )
//  767 {
??__deleaker_ModifyUIPageHook:
        PUSH     {R4-R8,LR}
        CFI ?RET Frame(CFA, -4)
        CFI R8 Frame(CFA, -8)
        CFI R7 Frame(CFA, -12)
        CFI R6 Frame(CFA, -16)
        CFI R5 Frame(CFA, -20)
        CFI R4 Frame(CFA, -24)
        CFI CFA R13+24
        LDR      R7,[SP, #+28]
        MOV      R4,R0
        MOV      R5,R1
        MOV      R0,R2
        LDR      R2,[SP, #+24]
        MOV      R6,R3
//  768 	int ret = __original_ModifyUIPageHook(event, proc, ClientData, mode);
        MOV      R3,R7
        MOV      R1,R6
        SWI      +272
        MOV      R8,R0
//  769 	if(mode==PAGE_HOOK_REMOVE)trace_free(trace_hook, (void*)proc, __file__, __line__ );
        CMP      R7,#+0
        BNE      ??__deleaker_ModifyUIPageHook_1
        MOV      R3,R5
        MOV      R2,R4
        MOV      R1,R6
        MOV      R0,#+5
        BL       ??trace_free
        MOV      R0,R8
        POP      {R4-R8,PC}
//  770 	if(mode==PAGE_HOOK_ADD_BEFORE || mode==PAGE_HOOK_ADD_AFTER)trace_alloc(trace_hook, (void*)proc, __file__, __line__);
??__deleaker_ModifyUIPageHook_1:
        CMP      R7,#+1
        CMPNE    R7,#+2
        BNE      ??__deleaker_ModifyUIPageHook_2
        MOV      R3,R5
        MOV      R2,R4
        MOV      R1,R6
        MOV      R0,#+5
        BL       ??trace_alloc
//  771 	return ret;
??__deleaker_ModifyUIPageHook_2:
        MOV      R0,R8
        POP      {R4-R8,PC}       ;; return
        CFI EndBlock cfiBlock173
//  772 }

        RSEG CODE:CODE:NOROOT(2)
        CFI Block cfiBlock174 Using cfiCommon0
        CFI NoFunction
        THUMB
??__deleaker_ImageID_Get??rT:
        BX       PC
        Nop      
        CFI EndBlock cfiBlock174
        REQUIRE ??__deleaker_ImageID_Get
//  773 

        RSEG CODE:CODE:NOROOT(2)
        CFI Block cfiBlock175 Using cfiCommon1
        CFI Function ??__deleaker_ImageID_Get
        ARM
//  774 int __deleaker_ImageID_Get( const char* __file__, int __line__, const wchar_t* fpath, const wchar_t* fname, IMAGEID* __unknwnargname3 )
//  775 {
??__deleaker_ImageID_Get:
        PUSH     {R4-R7,LR}
        CFI ?RET Frame(CFA, -4)
        CFI R7 Frame(CFA, -8)
        CFI R6 Frame(CFA, -12)
        CFI R5 Frame(CFA, -16)
        CFI R4 Frame(CFA, -20)
        CFI CFA R13+20
        LDR      R6,[SP, #+20]
        MOV      R4,R0
        MOV      R5,R1
        MOV      R0,R2
        MOV      R1,R3
//  776 	int ret = __original_ImageID_Get(fpath, fname, __unknwnargname3);
        MOV      R2,R6
        SWI      +716
        MOVS     R7,R0
//  777 	if(ret>=0 && isallocatediconid(*__unknwnargname3))
        BMI      ??__deleaker_ImageID_Get_1
        LDRH     R6,[R6, #+0]
        MOV      R0,R6
        BL       ??isallocatediconid
        CMP      R0,#+0
        BEQ      ??__deleaker_ImageID_Get_1
//  778 		trace_alloc(trace_iconid, (void*)(*__unknwnargname3), __file__, __line__);
        MOV      R3,R5
        MOV      R2,R4
        MOV      R1,R6
        MOV      R0,#+2
        BL       ??trace_alloc
//  779 	return ret;
??__deleaker_ImageID_Get_1:
        MOV      R0,R7
        POP      {R4-R7,PC}       ;; return
        CFI EndBlock cfiBlock175
//  780 }

        RSEG CODE:CODE:NOROOT(2)
        CFI Block cfiBlock176 Using cfiCommon0
        CFI NoFunction
        THUMB
??__deleaker_ImageID_GetIndirect??rT:
        BX       PC
        Nop      
        CFI EndBlock cfiBlock176
        REQUIRE ??__deleaker_ImageID_GetIndirect
//  781 

        RSEG CODE:CODE:NOROOT(2)
        CFI Block cfiBlock177 Using cfiCommon1
        CFI Function ??__deleaker_ImageID_GetIndirect
        ARM
//  782 int __deleaker_ImageID_GetIndirect( const char* __file__, int __line__, void* buf_image, int size, int __NULL, wchar_t* image_type, IMAGEID* __unknwnargname5 )
//  783 {//проверить возвращаемое значение
??__deleaker_ImageID_GetIndirect:
        PUSH     {R4-R8,LR}
        CFI ?RET Frame(CFA, -4)
        CFI R8 Frame(CFA, -8)
        CFI R7 Frame(CFA, -12)
        CFI R6 Frame(CFA, -16)
        CFI R5 Frame(CFA, -20)
        CFI R4 Frame(CFA, -24)
        CFI CFA R13+24
        LDR      R7,[SP, #+32]
        MOV      R4,R0
        MOV      R5,R1
        MOV      R6,R2
        LDR      R2,[SP, #+24]
        MOV      R1,R3
        LDR      R3,[SP, #+28]
//  784 	int ret = __original_ImageID_GetIndirect(buf_image, size, __NULL, image_type, __unknwnargname5);
        MOV      R0,R7
        PUSH     {R0}
        CFI CFA R13+28
        MOV      R0,R6
        SWI      +770
        MOV      R8,R0
//  785 	trace_free(trace_memory, buf_image, __file__, __line__);
        MOV      R3,R5
        MOV      R2,R4
        MOV      R1,R6
        MOV      R0,#+0
        BL       ??trace_free
//  786 	trace_alloc(trace_iconid, (void*)(*__unknwnargname5), __file__, __line__);
        LDRH     R1,[R7, #+0]
        MOV      R3,R5
        MOV      R2,R4
        MOV      R0,#+2
        BL       ??trace_alloc
//  787 	return ret;
        MOV      R0,R8
        POP      {R1,R4-R8,PC}    ;; return
        CFI EndBlock cfiBlock177
//  788 }

        RSEG CODE:CODE:NOROOT(2)
        CFI Block cfiBlock178 Using cfiCommon0
        CFI NoFunction
        THUMB
??__deleaker_ImageID_Free??rT:
        BX       PC
        Nop      
        CFI EndBlock cfiBlock178
        REQUIRE ??__deleaker_ImageID_Free
//  789 

        RSEG CODE:CODE:NOROOT(2)
        CFI Block cfiBlock179 Using cfiCommon1
        CFI Function ??__deleaker_ImageID_Free
        ARM
//  790 void __deleaker_ImageID_Free( const char* __file__, int __line__, IMAGEID __unknwnargname1 )
//  791 {
??__deleaker_ImageID_Free:
        PUSH     {R4-R6,LR}
        CFI ?RET Frame(CFA, -4)
        CFI R6 Frame(CFA, -8)
        CFI R5 Frame(CFA, -12)
        CFI R4 Frame(CFA, -16)
        CFI CFA R13+16
        MOV      R4,R0
        MOV      R5,R1
        MOV      R6,R2
//  792 	if(isallocatediconid(__unknwnargname1))trace_free(trace_iconid, (void*)__unknwnargname1, __file__, __line__);
        MOV      R0,R6
        BL       ??isallocatediconid
        CMP      R0,#+0
        BEQ      ??__deleaker_ImageID_Free_1
        MOV      R3,R5
        MOV      R2,R4
        MOV      R1,R6
        MOV      R0,#+2
        BL       ??trace_free
//  793 	__original_ImageID_Free(__unknwnargname1);
??__deleaker_ImageID_Free_1:
        MOV      R0,R6
        SWI      +717
//  794 }
        POP      {R4-R6,PC}       ;; return
        CFI EndBlock cfiBlock179

        RSEG CODE:CODE:NOROOT(2)
        CFI Block cfiBlock180 Using cfiCommon0
        CFI NoFunction
        THUMB
??__deleaker_GC_CreateMemoryGC??rT:
        BX       PC
        Nop      
        CFI EndBlock cfiBlock180
        REQUIRE ??__deleaker_GC_CreateMemoryGC
//  795 

        RSEG CODE:CODE:NOROOT(2)
        CFI Block cfiBlock181 Using cfiCommon1
        CFI Function ??__deleaker_GC_CreateMemoryGC
        ARM
//  796 GC* __deleaker_GC_CreateMemoryGC( const char* __file__, int __line__, int xsize, int ysize, int bpp, int unk, void* somefn, int unk2 )
//  797 {
??__deleaker_GC_CreateMemoryGC:
        PUSH     {R4-R6,LR}
        CFI ?RET Frame(CFA, -4)
        CFI R6 Frame(CFA, -8)
        CFI R5 Frame(CFA, -12)
        CFI R4 Frame(CFA, -16)
        CFI CFA R13+16
        LDR      R12,[SP, #+24]
        MOV      R4,R0
        MOV      R5,R1
        LDR      LR,[SP, #+28]
        MOV      R0,R2
        LDR      R2,[SP, #+16]
        MOV      R1,R3
        LDR      R3,[SP, #+20]
//  798 	GC* ret = __original_GC_CreateMemoryGC(xsize, ysize, bpp, unk, somefn, unk2);
        PUSH     {LR}
        CFI CFA R13+20
        PUSH     {R12}
        CFI CFA R13+24
        SWI      +917
        MOVS     R6,R0
//  799 	if(ret)trace_alloc(trace_gc, (void*)ret, __file__, __line__);
        ADD      SP,SP,#+8
        CFI CFA R13+16
        BEQ      ??__deleaker_GC_CreateMemoryGC_1
        MOV      R3,R5
        MOV      R2,R4
        MOV      R1,R6
        MOV      R0,#+7
        BL       ??trace_alloc
//  800 	return ret;
??__deleaker_GC_CreateMemoryGC_1:
        MOV      R0,R6
        POP      {R4-R6,PC}       ;; return
        CFI EndBlock cfiBlock181
//  801 }

        RSEG CODE:CODE:NOROOT(2)
        CFI Block cfiBlock182 Using cfiCommon0
        CFI NoFunction
        THUMB
??__deleaker_GC_FreeGC??rT:
        BX       PC
        Nop      
        CFI EndBlock cfiBlock182
        REQUIRE ??__deleaker_GC_FreeGC
//  802 

        RSEG CODE:CODE:NOROOT(2)
        CFI Block cfiBlock183 Using cfiCommon1
        CFI Function ??__deleaker_GC_FreeGC
        ARM
//  803 void __deleaker_GC_FreeGC( const char* __file__, int __line__, GC* gc )
//  804 {
??__deleaker_GC_FreeGC:
        PUSH     {R4,LR}
        CFI ?RET Frame(CFA, -4)
        CFI R4 Frame(CFA, -8)
        CFI CFA R13+8
//  805 	trace_free(trace_gc, gc, __file__, __line__);
        MOV      R3,R1
        MOV      R4,R2
        MOV      R2,R0
        MOV      R1,R4
        MOV      R0,#+7
        BL       ??trace_free
//  806 	__original_GC_FreeGC(gc);
        MOV      R0,R4
        SWI      +918
//  807 }
        POP      {R4,PC}          ;; return
        CFI EndBlock cfiBlock183

        RSEG CODE:CODE:NOROOT(2)
        CFI Block cfiBlock184 Using cfiCommon0
        CFI NoFunction
        THUMB
??__deleaker_GVI_CreateDashedPen??rT:
        BX       PC
        Nop      
        CFI EndBlock cfiBlock184
        REQUIRE ??__deleaker_GVI_CreateDashedPen
//  808 

        RSEG CODE:CODE:NOROOT(2)
        CFI Block cfiBlock185 Using cfiCommon1
        CFI Function ??__deleaker_GVI_CreateDashedPen
        ARM
//  809 GVI_PEN __deleaker_GVI_CreateDashedPen( const char* __file__, int __line__, char thikness, int color, int bitmask, int step, int offset )
//  810 {
??__deleaker_GVI_CreateDashedPen:
        PUSH     {R4-R6,LR}
        CFI ?RET Frame(CFA, -4)
        CFI R6 Frame(CFA, -8)
        CFI R5 Frame(CFA, -12)
        CFI R4 Frame(CFA, -16)
        CFI CFA R13+16
        LDR      R12,[SP, #+24]
        MOV      R4,R0
        MOV      R5,R1
        MOV      R0,R2
        LDR      R2,[SP, #+16]
        MOV      R1,R3
        LDR      R3,[SP, #+20]
//  811 	GVI_PEN ret = __original_GVI_CreateDashedPen(thikness, color, bitmask, step, offset);
        PUSH     {R12}
        CFI CFA R13+20
        SWI      +897
        MOVS     R6,R0
//  812 	if(ret)trace_alloc(trace_gvi, (void*)ret, __file__, __line__);
        ADD      SP,SP,#+4
        CFI CFA R13+16
        BEQ      ??__deleaker_GVI_CreateDashedPen_1
        MOV      R3,R5
        MOV      R2,R4
        MOV      R1,R6
        MOV      R0,#+8
        BL       ??trace_alloc
//  813 	return ret;
??__deleaker_GVI_CreateDashedPen_1:
        MOV      R0,R6
        POP      {R4-R6,PC}       ;; return
        CFI EndBlock cfiBlock185
//  814 }

        RSEG CODE:CODE:NOROOT(2)
        CFI Block cfiBlock186 Using cfiCommon0
        CFI NoFunction
        THUMB
??__deleaker_GVI_CreatePen??rT:
        BX       PC
        Nop      
        CFI EndBlock cfiBlock186
        REQUIRE ??__deleaker_GVI_CreatePen
//  815 

        RSEG CODE:CODE:NOROOT(2)
        CFI Block cfiBlock187 Using cfiCommon1
        CFI Function ??__deleaker_GVI_CreatePen
        ARM
//  816 GVI_PEN __deleaker_GVI_CreatePen( const char* __file__, int __line__, char thikness, int color )
//  817 {
??__deleaker_GVI_CreatePen:
        PUSH     {R4-R6,LR}
        CFI ?RET Frame(CFA, -4)
        CFI R6 Frame(CFA, -8)
        CFI R5 Frame(CFA, -12)
        CFI R4 Frame(CFA, -16)
        CFI CFA R13+16
        MOV      R4,R0
        MOV      R5,R1
        MOV      R0,R2
        MOV      R1,R3
//  818 	GVI_PEN ret = __original_GVI_CreatePen(thikness, color);
        SWI      +896
        MOVS     R6,R0
//  819 	if(ret)trace_alloc(trace_gvi, (void*)ret, __file__, __line__);
        BEQ      ??__deleaker_GVI_CreatePen_1
        MOV      R3,R5
        MOV      R2,R4
        MOV      R1,R6
        MOV      R0,#+8
        BL       ??trace_alloc
//  820 	return ret;
??__deleaker_GVI_CreatePen_1:
        MOV      R0,R6
        POP      {R4-R6,PC}       ;; return
        CFI EndBlock cfiBlock187
//  821 }

        RSEG CODE:CODE:NOROOT(2)
        CFI Block cfiBlock188 Using cfiCommon0
        CFI NoFunction
        THUMB
??__deleaker_GVI_CreateSolidBrush??rT:
        BX       PC
        Nop      
        CFI EndBlock cfiBlock188
        REQUIRE ??__deleaker_GVI_CreateSolidBrush
//  822 

        RSEG CODE:CODE:NOROOT(2)
        CFI Block cfiBlock189 Using cfiCommon1
        CFI Function ??__deleaker_GVI_CreateSolidBrush
        ARM
//  823 GVI_BRUSH __deleaker_GVI_CreateSolidBrush( const char* __file__, int __line__, int color )
//  824 {
??__deleaker_GVI_CreateSolidBrush:
        PUSH     {R4-R6,LR}
        CFI ?RET Frame(CFA, -4)
        CFI R6 Frame(CFA, -8)
        CFI R5 Frame(CFA, -12)
        CFI R4 Frame(CFA, -16)
        CFI CFA R13+16
        MOV      R4,R0
        MOV      R5,R1
        MOV      R0,R2
//  825 	GVI_BRUSH ret = __original_GVI_CreateSolidBrush(color);
        SWI      +898
        MOVS     R6,R0
//  826 	if(ret)trace_alloc(trace_gvi, (void*)ret, __file__, __line__);
        BEQ      ??__deleaker_GVI_CreateSolidBrush_1
        MOV      R3,R5
        MOV      R2,R4
        MOV      R1,R6
        MOV      R0,#+8
        BL       ??trace_alloc
//  827 	return ret;
??__deleaker_GVI_CreateSolidBrush_1:
        MOV      R0,R6
        POP      {R4-R6,PC}       ;; return
        CFI EndBlock cfiBlock189
//  828 }

        RSEG CODE:CODE:NOROOT(2)
        CFI Block cfiBlock190 Using cfiCommon0
        CFI NoFunction
        THUMB
??__deleaker_GVI_CreateBitmap??rT:
        BX       PC
        Nop      
        CFI EndBlock cfiBlock190
        REQUIRE ??__deleaker_GVI_CreateBitmap
//  829 

        RSEG CODE:CODE:NOROOT(2)
        CFI Block cfiBlock191 Using cfiCommon1
        CFI Function ??__deleaker_GVI_CreateBitmap
        ARM
//  830 GVI_BMP __deleaker_GVI_CreateBitmap( const char* __file__, int __line__, int xsize, int ysize, int bpp )
//  831 {
??__deleaker_GVI_CreateBitmap:
        PUSH     {R4-R6,LR}
        CFI ?RET Frame(CFA, -4)
        CFI R6 Frame(CFA, -8)
        CFI R5 Frame(CFA, -12)
        CFI R4 Frame(CFA, -16)
        CFI CFA R13+16
        MOV      R4,R0
        MOV      R5,R1
        MOV      R0,R2
        LDR      R2,[SP, #+16]
        MOV      R1,R3
//  832 	GVI_BMP ret = __original_GVI_CreateBitmap(xsize, ysize, bpp);
        SWI      +923
        MOVS     R6,R0
//  833 	if(ret)trace_alloc(trace_gvi, (void*)ret, __file__, __line__);
        BEQ      ??__deleaker_GVI_CreateBitmap_1
        MOV      R3,R5
        MOV      R2,R4
        MOV      R1,R6
        MOV      R0,#+8
        BL       ??trace_alloc
//  834 	return ret;
??__deleaker_GVI_CreateBitmap_1:
        MOV      R0,R6
        POP      {R4-R6,PC}       ;; return
        CFI EndBlock cfiBlock191
//  835 }

        RSEG CODE:CODE:NOROOT(2)
        CFI Block cfiBlock192 Using cfiCommon0
        CFI NoFunction
        THUMB
??__deleaker_GVI_CreateMemoryGC??rT:
        BX       PC
        Nop      
        CFI EndBlock cfiBlock192
        REQUIRE ??__deleaker_GVI_CreateMemoryGC
//  836 

        RSEG CODE:CODE:NOROOT(2)
        CFI Block cfiBlock193 Using cfiCommon1
        CFI Function ??__deleaker_GVI_CreateMemoryGC
        ARM
//  837 GVI_GC __deleaker_GVI_CreateMemoryGC( const char* __file__, int __line__, GVI_BMP bitmap )
//  838 {
??__deleaker_GVI_CreateMemoryGC:
        PUSH     {R4-R6,LR}
        CFI ?RET Frame(CFA, -4)
        CFI R6 Frame(CFA, -8)
        CFI R5 Frame(CFA, -12)
        CFI R4 Frame(CFA, -16)
        CFI CFA R13+16
        MOV      R4,R0
        MOV      R5,R1
        MOV      R0,R2
//  839 	GVI_GC ret = __original_GVI_CreateMemoryGC(bitmap);
        SWI      +924
        MOVS     R6,R0
//  840 	if(ret)trace_alloc(trace_gvi, (void*)ret, __file__, __line__);
        BEQ      ??__deleaker_GVI_CreateMemoryGC_1
        MOV      R3,R5
        MOV      R2,R4
        MOV      R1,R6
        MOV      R0,#+8
        BL       ??trace_alloc
//  841 	return ret;
??__deleaker_GVI_CreateMemoryGC_1:
        MOV      R0,R6
        POP      {R4-R6,PC}       ;; return
        CFI EndBlock cfiBlock193
//  842 }

        RSEG CODE:CODE:NOROOT(2)
        CFI Block cfiBlock194 Using cfiCommon0
        CFI NoFunction
        THUMB
??__deleaker_GVI_Delete_GVI_Object??rT:
        BX       PC
        Nop      
        CFI EndBlock cfiBlock194
        REQUIRE ??__deleaker_GVI_Delete_GVI_Object
//  843 

        RSEG CODE:CODE:NOROOT(2)
        CFI Block cfiBlock195 Using cfiCommon1
        CFI Function ??__deleaker_GVI_Delete_GVI_Object
        ARM
//  844 BOOL __deleaker_GVI_Delete_GVI_Object( const char* __file__, int __line__, GVI_OBJ* __unknwnargname1 )
//  845 {
??__deleaker_GVI_Delete_GVI_Object:
        PUSH     {R4,LR}
        CFI ?RET Frame(CFA, -4)
        CFI R4 Frame(CFA, -8)
        CFI CFA R13+8
//  846 	trace_free(trace_gvi, *__unknwnargname1, __file__, __line__);
        MOV      R3,R1
        MOV      R4,R2
        LDR      R1,[R4, #+0]
        MOV      R2,R0
        MOV      R0,#+8
        BL       ??trace_free
//  847 	return __original_GVI_Delete_GVI_Object(__unknwnargname1);
        MOV      R0,R4
        SWI      +899
        POP      {R4,PC}          ;; return
        CFI EndBlock cfiBlock195
//  848 }

        RSEG CODE:CODE:NOROOT(2)
        CFI Block cfiBlock196 Using cfiCommon0
        CFI NoFunction
        THUMB
??__deleaker_GVI_DeleteMemoryGC??rT:
        BX       PC
        Nop      
        CFI EndBlock cfiBlock196
        REQUIRE ??__deleaker_GVI_DeleteMemoryGC
//  849 

        RSEG CODE:CODE:NOROOT(2)
        CFI Block cfiBlock197 Using cfiCommon1
        CFI Function ??__deleaker_GVI_DeleteMemoryGC
        ARM
//  850 void __deleaker_GVI_DeleteMemoryGC( const char* __file__, int __line__, GVI_GC gc )
//  851 {
??__deleaker_GVI_DeleteMemoryGC:
        PUSH     {R4,LR}
        CFI ?RET Frame(CFA, -4)
        CFI R4 Frame(CFA, -8)
        CFI CFA R13+8
//  852 	trace_free(trace_gvi, gc, __file__, __line__);
        MOV      R3,R1
        MOV      R4,R2
        MOV      R2,R0
        MOV      R1,R4
        MOV      R0,#+8
        BL       ??trace_free
//  853 	return __original_GVI_DeleteMemoryGC(gc);
        MOV      R0,R4
        SWI      +925
        POP      {R4,PC}          ;; return
        CFI EndBlock cfiBlock197
//  854 }

        RSEG CODE:CODE:NOROOT(2)
        CFI Block cfiBlock198 Using cfiCommon0
        CFI NoFunction
        THUMB
??__deleaker_TextFeedbackWindow??rT:
        BX       PC
        Nop      
        CFI EndBlock cfiBlock198
        REQUIRE ??__deleaker_TextFeedbackWindow
//  855 

        RSEG CODE:CODE:NOROOT(2)
        CFI Block cfiBlock199 Using cfiCommon1
        CFI Function ??__deleaker_TextFeedbackWindow
        ARM
//  856 GUI_FEEDBACK* __deleaker_TextFeedbackWindow( const char* __file__, int __line__, BOOK* book, int zero )
//  857 {
??__deleaker_TextFeedbackWindow:
        PUSH     {R4-R6,LR}
        CFI ?RET Frame(CFA, -4)
        CFI R6 Frame(CFA, -8)
        CFI R5 Frame(CFA, -12)
        CFI R4 Frame(CFA, -16)
        CFI CFA R13+16
        MOV      R4,R0
        MOV      R5,R1
        MOV      R0,R2
        MOV      R1,R3
//  858 	GUI_FEEDBACK* ret = __original_TextFeedbackWindow(book, zero);
        SWI      +709
        MOVS     R6,R0
//  859 	if(ret)trace_alloc(trace_gui, (void*)ret, __file__, __line__);
        BEQ      ??__deleaker_TextFeedbackWindow_1
        MOV      R3,R5
        MOV      R2,R4
        MOV      R1,R6
        MOV      R0,#+9
        BL       ??trace_alloc
//  860 	return ret;
??__deleaker_TextFeedbackWindow_1:
        MOV      R0,R6
        POP      {R4-R6,PC}       ;; return
        CFI EndBlock cfiBlock199
//  861 }

        RSEG CODE:CODE:NOROOT(2)
        CFI Block cfiBlock200 Using cfiCommon0
        CFI NoFunction
        THUMB
??__deleaker_DataBrowserDesc_Create??rT:
        BX       PC
        Nop      
        CFI EndBlock cfiBlock200
        REQUIRE ??__deleaker_DataBrowserDesc_Create
//  862 

        RSEG CODE:CODE:NOROOT(2)
        CFI Block cfiBlock201 Using cfiCommon1
        CFI Function ??__deleaker_DataBrowserDesc_Create
        ARM
//  863 void* __deleaker_DataBrowserDesc_Create( const char* __file__, int __line__ )
//  864 {
??__deleaker_DataBrowserDesc_Create:
        PUSH     {R4-R6,LR}
        CFI ?RET Frame(CFA, -4)
        CFI R6 Frame(CFA, -8)
        CFI R5 Frame(CFA, -12)
        CFI R4 Frame(CFA, -16)
        CFI CFA R13+16
        MOV      R4,R0
        MOV      R5,R1
//  865 	void* ret = __original_DataBrowserDesc_Create();
        SWI      +287
        MOVS     R6,R0
//  866 	if(ret)trace_alloc(trace_memory, (void*)ret, __file__, __line__);
        BEQ      ??__deleaker_DataBrowserDesc_Create_1
        MOV      R3,R5
        MOV      R2,R4
        MOV      R1,R6
        MOV      R0,#+0
        BL       ??trace_alloc
//  867 	return ret;
??__deleaker_DataBrowserDesc_Create_1:
        MOV      R0,R6
        POP      {R4-R6,PC}       ;; return
        CFI EndBlock cfiBlock201
//  868 }

        RSEG CODE:CODE:NOROOT(2)
        CFI Block cfiBlock202 Using cfiCommon0
        CFI NoFunction
        THUMB
??__deleaker_DataBrowserDesc_Destroy??rT:
        BX       PC
        Nop      
        CFI EndBlock cfiBlock202
        REQUIRE ??__deleaker_DataBrowserDesc_Destroy
//  869 

        RSEG CODE:CODE:NOROOT(2)
        CFI Block cfiBlock203 Using cfiCommon1
        CFI Function ??__deleaker_DataBrowserDesc_Destroy
        ARM
//  870 void __deleaker_DataBrowserDesc_Destroy( const char* __file__, int __line__, void* DataBrowserDesc )
//  871 {
??__deleaker_DataBrowserDesc_Destroy:
        PUSH     {R4,LR}
        CFI ?RET Frame(CFA, -4)
        CFI R4 Frame(CFA, -8)
        CFI CFA R13+8
//  872 	trace_free(trace_memory, DataBrowserDesc, __file__, __line__);
        MOV      R3,R1
        MOV      R4,R2
        MOV      R2,R0
        MOV      R1,R4
        MOV      R0,#+0
        BL       ??trace_free
//  873 	return __original_DataBrowserDesc_Destroy(DataBrowserDesc);
        MOV      R0,R4
        SWI      +293
        POP      {R4,PC}          ;; return
        CFI EndBlock cfiBlock203
//  874 }

        RSEG CODE:CODE:NOROOT(2)
        CFI Block cfiBlock204 Using cfiCommon0
        CFI NoFunction
        THUMB
??__deleaker_CreateMonitorFeedback??rT:
        BX       PC
        Nop      
        CFI EndBlock cfiBlock204
        REQUIRE ??__deleaker_CreateMonitorFeedback
//  875 

        RSEG CODE:CODE:NOROOT(2)
        CFI Block cfiBlock205 Using cfiCommon1
        CFI Function ??__deleaker_CreateMonitorFeedback
        ARM
//  876 GUI_FEEDBACK* __deleaker_CreateMonitorFeedback( const char* __file__, int __line__, TEXTID __unknwnargname1, BOOK* __unknwnargname2, void (*onbusy)(BOOK*), void (*onedit)(BOOK*), void (*ondelete)(BOOK*) )
//  877 {
??__deleaker_CreateMonitorFeedback:
        PUSH     {R4-R6,LR}
        CFI ?RET Frame(CFA, -4)
        CFI R6 Frame(CFA, -8)
        CFI R5 Frame(CFA, -12)
        CFI R4 Frame(CFA, -16)
        CFI CFA R13+16
        LDR      R12,[SP, #+24]
        MOV      R4,R0
        MOV      R5,R1
        MOV      R0,R2
        LDR      R2,[SP, #+16]
        MOV      R1,R3
        LDR      R3,[SP, #+20]
//  878 	GUI_FEEDBACK* ret = __original_CreateMonitorFeedback(__unknwnargname1, __unknwnargname2, onbusy, onedit, ondelete);
        PUSH     {R12}
        CFI CFA R13+20
        SWI      +482
        MOVS     R6,R0
//  879 	if(ret)trace_alloc(trace_gui, (void*)ret, __file__, __line__);
        ADD      SP,SP,#+4
        CFI CFA R13+16
        BEQ      ??__deleaker_CreateMonitorFeedback_1
        MOV      R3,R5
        MOV      R2,R4
        MOV      R1,R6
        MOV      R0,#+9
        BL       ??trace_alloc
//  880 	return ret;
??__deleaker_CreateMonitorFeedback_1:
        MOV      R0,R6
        POP      {R4-R6,PC}       ;; return
        CFI EndBlock cfiBlock205
//  881 }

        RSEG CODE:CODE:NOROOT(2)
        CFI Block cfiBlock206 Using cfiCommon0
        CFI NoFunction
        THUMB
??__deleaker_LoadDLL??rT:
        BX       PC
        Nop      
        CFI EndBlock cfiBlock206
        REQUIRE ??__deleaker_LoadDLL
//  882 

        RSEG CODE:CODE:NOROOT(2)
        CFI Block cfiBlock207 Using cfiCommon1
        CFI Function ??__deleaker_LoadDLL
        ARM
//  883 void* __deleaker_LoadDLL( const char* __file__, int __line__, wchar_t* DllName )
//  884 {
??__deleaker_LoadDLL:
        PUSH     {R4-R6,LR}
        CFI ?RET Frame(CFA, -4)
        CFI R6 Frame(CFA, -8)
        CFI R5 Frame(CFA, -12)
        CFI R4 Frame(CFA, -16)
        CFI CFA R13+16
        MOV      R4,R0
        MOV      R5,R1
        MOV      R0,R2
//  885 	void* ret = __original_LoadDLL(DllName);
        SWI      +270
        MOVS     R6,R0
//  886 	if(ret)trace_alloc(trace_dll, (void*)ret, __file__, __line__);
        BEQ      ??__deleaker_LoadDLL_1
        MOV      R3,R5
        MOV      R2,R4
        MOV      R1,R6
        MOV      R0,#+6
        BL       ??trace_alloc
//  887 	return ret;
??__deleaker_LoadDLL_1:
        MOV      R0,R6
        POP      {R4-R6,PC}       ;; return
        CFI EndBlock cfiBlock207
//  888 }

        RSEG CODE:CODE:NOROOT(2)
        CFI Block cfiBlock208 Using cfiCommon0
        CFI NoFunction
        THUMB
??__deleaker_UnLoadDLL??rT:
        BX       PC
        Nop      
        CFI EndBlock cfiBlock208
        REQUIRE ??__deleaker_UnLoadDLL
//  889 

        RSEG CODE:CODE:NOROOT(2)
        CFI Block cfiBlock209 Using cfiCommon1
        CFI Function ??__deleaker_UnLoadDLL
        ARM
//  890 int __deleaker_UnLoadDLL( const char* __file__, int __line__, void* DllData )
//  891 {
??__deleaker_UnLoadDLL:
        PUSH     {R4,LR}
        CFI ?RET Frame(CFA, -4)
        CFI R4 Frame(CFA, -8)
        CFI CFA R13+8
//  892 	trace_free(trace_dll, DllData, __file__, __line__);
        MOV      R3,R1
        MOV      R4,R2
        MOV      R2,R0
        MOV      R1,R4
        MOV      R0,#+6
        BL       ??trace_free
//  893 	return __original_UnLoadDLL(DllData);
        MOV      R0,R4
        SWI      +271
        POP      {R4,PC}          ;; return
        CFI EndBlock cfiBlock209
//  894 }

        RSEG CODE:CODE:NOROOT(2)
        CFI Block cfiBlock210 Using cfiCommon0
        CFI NoFunction
        THUMB
??__deleaker_GUIObject_SetSecondRowTitleText??r:
        BX       PC
        Nop      
        CFI EndBlock cfiBlock210
        REQUIRE ??__deleaker_GUIObject_SetSecondRowTitleText
//  895 

        RSEG CODE:CODE:NOROOT(2)
        CFI Block cfiBlock211 Using cfiCommon1
        CFI Function ??__deleaker_GUIObject_SetSecondRowTitleText
        ARM
//  896 void __deleaker_GUIObject_SetSecondRowTitleText( const char* __file__, int __line__, GUI* __unknwnargname1, TEXTID __unknwnargname2 )
//  897 {
??__deleaker_GUIObject_SetSecondRowTitleText:
        PUSH     {R4-R7,LR}
        CFI ?RET Frame(CFA, -4)
        CFI R7 Frame(CFA, -8)
        CFI R6 Frame(CFA, -12)
        CFI R5 Frame(CFA, -16)
        CFI R4 Frame(CFA, -20)
        CFI CFA R13+20
        MOV      R4,R0
        MOV      R5,R1
        MOV      R6,R2
        MOV      R7,R3
//  898 	if(isallocatedstrid(__unknwnargname2))trace_free(trace_strid, (void*)__unknwnargname2, __file__, __line__ );
        MOV      R0,R7
        BL       ??isallocatedstrid
        CMP      R0,#+0
        BEQ      ??__deleaker_GUIObject_SetSecondRowTitleText_1
        MOV      R3,R5
        MOV      R2,R4
        MOV      R1,R7
        MOV      R0,#+1
        BL       ??trace_free
//  899 	return __original_GUIObject_SetSecondRowTitleText(__unknwnargname1, __unknwnargname2);
??__deleaker_GUIObject_SetSecondRowTitleText_1:
        MOV      R1,R7
        MOV      R0,R6
        SWI      +969
        POP      {R4-R7,PC}       ;; return
        CFI EndBlock cfiBlock211
//  900 }

        RSEG CODE:CODE:NOROOT(2)
        CFI Block cfiBlock212 Using cfiCommon0
        CFI NoFunction
        THUMB
??__deleaker_ListMenu_SetNoItemText??rT:
        BX       PC
        Nop      
        CFI EndBlock cfiBlock212
        REQUIRE ??__deleaker_ListMenu_SetNoItemText
//  901 

        RSEG CODE:CODE:NOROOT(2)
        CFI Block cfiBlock213 Using cfiCommon1
        CFI Function ??__deleaker_ListMenu_SetNoItemText
        ARM
//  902 void __deleaker_ListMenu_SetNoItemText( const char* __file__, int __line__, GUI_LIST* __unknwnargname1, TEXTID str )
//  903 {
??__deleaker_ListMenu_SetNoItemText:
        PUSH     {R4-R7,LR}
        CFI ?RET Frame(CFA, -4)
        CFI R7 Frame(CFA, -8)
        CFI R6 Frame(CFA, -12)
        CFI R5 Frame(CFA, -16)
        CFI R4 Frame(CFA, -20)
        CFI CFA R13+20
        MOV      R4,R0
        MOV      R5,R1
        MOV      R6,R2
        MOV      R7,R3
//  904 	if(isallocatedstrid(str))trace_free(trace_strid, (void*)str, __file__, __line__ );
        MOV      R0,R7
        BL       ??isallocatedstrid
        CMP      R0,#+0
        BEQ      ??__deleaker_ListMenu_SetNoItemText_1
        MOV      R3,R5
        MOV      R2,R4
        MOV      R1,R7
        MOV      R0,#+1
        BL       ??trace_free
//  905 	return __original_ListMenu_SetNoItemText(__unknwnargname1, str);
??__deleaker_ListMenu_SetNoItemText_1:
        MOV      R1,R7
        MOV      R0,R6
        SWI      +648
        POP      {R4-R7,PC}       ;; return
        CFI EndBlock cfiBlock213
//  906 }

        RSEG CODE:CODE:NOROOT(2)
        CFI Block cfiBlock214 Using cfiCommon0
        CFI NoFunction
        THUMB
??__deleaker_TabMenuBar_SetTabTitle??rT:
        BX       PC
        Nop      
        CFI EndBlock cfiBlock214
        REQUIRE ??__deleaker_TabMenuBar_SetTabTitle
//  907 

        RSEG CODE:CODE:NOROOT(2)
        CFI Block cfiBlock215 Using cfiCommon1
        CFI Function ??__deleaker_TabMenuBar_SetTabTitle
        ARM
//  908 void __deleaker_TabMenuBar_SetTabTitle( const char* __file__, int __line__, GUI_TABMENUBAR* __unknwnargname1, int tab_num, TEXTID __unknwnargname3 )
//  909 {
??__deleaker_TabMenuBar_SetTabTitle:
        PUSH     {R4-R8,LR}
        CFI ?RET Frame(CFA, -4)
        CFI R8 Frame(CFA, -8)
        CFI R7 Frame(CFA, -12)
        CFI R6 Frame(CFA, -16)
        CFI R5 Frame(CFA, -20)
        CFI R4 Frame(CFA, -24)
        CFI CFA R13+24
        LDR      R8,[SP, #+24]
        MOV      R4,R0
        MOV      R5,R1
        MOV      R6,R2
        MOV      R7,R3
//  910 	if(isallocatedstrid(__unknwnargname3))trace_free(trace_strid, (void*)__unknwnargname3, __file__, __line__ );
        MOV      R0,R8
        BL       ??isallocatedstrid
        CMP      R0,#+0
        BEQ      ??__deleaker_TabMenuBar_SetTabTitle_1
        MOV      R3,R5
        MOV      R2,R4
        MOV      R1,R8
        MOV      R0,#+1
        BL       ??trace_free
//  911 	return __original_TabMenuBar_SetTabTitle(__unknwnargname1, tab_num, __unknwnargname3);
??__deleaker_TabMenuBar_SetTabTitle_1:
        MOV      R2,R8
        MOV      R1,R7
        MOV      R0,R6
        SWI      +939
        POP      {R4-R8,PC}       ;; return
        CFI EndBlock cfiBlock215
//  912 }

        RSEG CODE:CODE:NOROOT(2)
        CFI Block cfiBlock216 Using cfiCommon0
        CFI NoFunction
        THUMB
??__deleaker_DispObject_SetBackgroundImage??rT:
        BX       PC
        Nop      
        CFI EndBlock cfiBlock216
        REQUIRE ??__deleaker_DispObject_SetBackgroundImage
//  913 

        RSEG CODE:CODE:NOROOT(2)
        CFI Block cfiBlock217 Using cfiCommon1
        CFI Function ??__deleaker_DispObject_SetBackgroundImage
        ARM
//  914 void __deleaker_DispObject_SetBackgroundImage( const char* __file__, int __line__, DISP_OBJ* __unknwnargname1, IMAGEID __unknwnargname2 )
//  915 {
??__deleaker_DispObject_SetBackgroundImage:
        PUSH     {R4-R7,LR}
        CFI ?RET Frame(CFA, -4)
        CFI R7 Frame(CFA, -8)
        CFI R6 Frame(CFA, -12)
        CFI R5 Frame(CFA, -16)
        CFI R4 Frame(CFA, -20)
        CFI CFA R13+20
        MOV      R4,R0
        MOV      R5,R1
        MOV      R6,R2
        MOV      R7,R3
//  916 	if(isallocatediconid(__unknwnargname2))trace_free(trace_iconid, (void*)__unknwnargname2, __file__, __line__ );
        MOV      R0,R7
        BL       ??isallocatediconid
        CMP      R0,#+0
        BEQ      ??__deleaker_DispObject_SetBackgroundImage_1
        MOV      R3,R5
        MOV      R2,R4
        MOV      R1,R7
        MOV      R0,#+2
        BL       ??trace_free
//  917 	__original_DispObject_SetBackgroundImage(__unknwnargname1, __unknwnargname2);
??__deleaker_DispObject_SetBackgroundImage_1:
        MOV      R1,R7
        MOV      R0,R6
        SWI      +937
//  918 }
        POP      {R4-R7,PC}       ;; return
        CFI EndBlock cfiBlock217

        RSEG CODE:CODE:NOROOT(2)
        CFI Block cfiBlock218 Using cfiCommon0
        CFI NoFunction
        THUMB
??__deleaker_DispObject_SetCursorImage??rT:
        BX       PC
        Nop      
        CFI EndBlock cfiBlock218
        REQUIRE ??__deleaker_DispObject_SetCursorImage
//  919 

        RSEG CODE:CODE:NOROOT(2)
        CFI Block cfiBlock219 Using cfiCommon1
        CFI Function ??__deleaker_DispObject_SetCursorImage
        ARM
//  920 void __deleaker_DispObject_SetCursorImage( const char* __file__, int __line__, DISP_OBJ* __unknwnargname1, IMAGEID __unknwnargname2 )
//  921 {
??__deleaker_DispObject_SetCursorImage:
        PUSH     {R4-R7,LR}
        CFI ?RET Frame(CFA, -4)
        CFI R7 Frame(CFA, -8)
        CFI R6 Frame(CFA, -12)
        CFI R5 Frame(CFA, -16)
        CFI R4 Frame(CFA, -20)
        CFI CFA R13+20
        MOV      R4,R0
        MOV      R5,R1
        MOV      R6,R2
        MOV      R7,R3
//  922 	if(isallocatediconid(__unknwnargname2))trace_free(trace_iconid, (void*)__unknwnargname2, __file__, __line__ );
        MOV      R0,R7
        BL       ??isallocatediconid
        CMP      R0,#+0
        BEQ      ??__deleaker_DispObject_SetCursorImage_1
        MOV      R3,R5
        MOV      R2,R4
        MOV      R1,R7
        MOV      R0,#+2
        BL       ??trace_free
//  923 	__original_DispObject_SetCursorImage(__unknwnargname1, __unknwnargname2);
??__deleaker_DispObject_SetCursorImage_1:
        MOV      R1,R7
        MOV      R0,R6
        SWI      +936
//  924 }
        POP      {R4-R7,PC}       ;; return
        CFI EndBlock cfiBlock219

        RSEG CODE:CODE:NOROOT(2)
        CFI Block cfiBlock220 Using cfiCommon0
        CFI NoFunction
        THUMB
??__deleaker_DispObject_SetTitleBackgroundImage:
        BX       PC
        Nop      
        CFI EndBlock cfiBlock220
        REQUIRE ??__deleaker_DispObject_SetTitleBackgroundImage_1
//  925 

        RSEG CODE:CODE:NOROOT(2)
        CFI Block cfiBlock221 Using cfiCommon1
        CFI Function ??__deleaker_DispObject_SetTitleBackgroundImage_1
        ARM
//  926 void __deleaker_DispObject_SetTitleBackgroundImage( const char* __file__, int __line__, DISP_OBJ* __unknwnargname1, IMAGEID __unknwnargname2 )
//  927 {
??__deleaker_DispObject_SetTitleBackgroundImage_1:
        PUSH     {R4-R7,LR}
        CFI ?RET Frame(CFA, -4)
        CFI R7 Frame(CFA, -8)
        CFI R6 Frame(CFA, -12)
        CFI R5 Frame(CFA, -16)
        CFI R4 Frame(CFA, -20)
        CFI CFA R13+20
        MOV      R4,R0
        MOV      R5,R1
        MOV      R6,R2
        MOV      R7,R3
//  928 	if(isallocatediconid(__unknwnargname2))trace_free(trace_iconid, (void*)__unknwnargname2, __file__, __line__ );
        MOV      R0,R7
        BL       ??isallocatediconid
        CMP      R0,#+0
        BEQ      ??__deleaker_DispObject_SetTitleBackgroundImage_2
        MOV      R3,R5
        MOV      R2,R4
        MOV      R1,R7
        MOV      R0,#+2
        BL       ??trace_free
//  929 	__original_DispObject_SetTitleBackgroundImage(__unknwnargname1, __unknwnargname2);
??__deleaker_DispObject_SetTitleBackgroundImage_2:
        MOV      R1,R7
        MOV      R0,R6
        SWI      +938
//  930 }
        POP      {R4-R7,PC}       ;; return
        CFI EndBlock cfiBlock221

        RSEG CODE:CODE:NOROOT(2)
        CFI Block cfiBlock222 Using cfiCommon0
        CFI NoFunction
        THUMB
??__deleaker_GUIObject_SetBackgroundImage??rT:
        BX       PC
        Nop      
        CFI EndBlock cfiBlock222
        REQUIRE ??__deleaker_GUIObject_SetBackgroundImage
//  931 

        RSEG CODE:CODE:NOROOT(2)
        CFI Block cfiBlock223 Using cfiCommon1
        CFI Function ??__deleaker_GUIObject_SetBackgroundImage
        ARM
//  932 void __deleaker_GUIObject_SetBackgroundImage( const char* __file__, int __line__, GUI* __unknwnargname1, IMAGEID __unknwnargname2 )
//  933 {
??__deleaker_GUIObject_SetBackgroundImage:
        PUSH     {R4-R7,LR}
        CFI ?RET Frame(CFA, -4)
        CFI R7 Frame(CFA, -8)
        CFI R6 Frame(CFA, -12)
        CFI R5 Frame(CFA, -16)
        CFI R4 Frame(CFA, -20)
        CFI CFA R13+20
        MOV      R4,R0
        MOV      R5,R1
        MOV      R6,R2
        MOV      R7,R3
//  934 	if(isallocatediconid(__unknwnargname2))trace_free(trace_iconid, (void*)__unknwnargname2, __file__, __line__ );
        MOV      R0,R7
        BL       ??isallocatediconid
        CMP      R0,#+0
        BEQ      ??__deleaker_GUIObject_SetBackgroundImage_1
        MOV      R3,R5
        MOV      R2,R4
        MOV      R1,R7
        MOV      R0,#+2
        BL       ??trace_free
//  935 	__original_GUIObject_SetBackgroundImage(__unknwnargname1, __unknwnargname2);
??__deleaker_GUIObject_SetBackgroundImage_1:
        MOV      R1,R7
        MOV      R0,R6
        SWI      +790
//  936 }
        POP      {R4-R7,PC}       ;; return
        CFI EndBlock cfiBlock223

        RSEG CODE:CODE:NOROOT(2)
        CFI Block cfiBlock224 Using cfiCommon0
        CFI NoFunction
        THUMB
??__deleaker_GUIObject_SetCursorImage??rT:
        BX       PC
        Nop      
        CFI EndBlock cfiBlock224
        REQUIRE ??__deleaker_GUIObject_SetCursorImage
//  937 

        RSEG CODE:CODE:NOROOT(2)
        CFI Block cfiBlock225 Using cfiCommon1
        CFI Function ??__deleaker_GUIObject_SetCursorImage
        ARM
//  938 void __deleaker_GUIObject_SetCursorImage( const char* __file__, int __line__, GUI* __unknwnargname1, IMAGEID __unknwnargname2 )
//  939 {
??__deleaker_GUIObject_SetCursorImage:
        PUSH     {R4-R7,LR}
        CFI ?RET Frame(CFA, -4)
        CFI R7 Frame(CFA, -8)
        CFI R6 Frame(CFA, -12)
        CFI R5 Frame(CFA, -16)
        CFI R4 Frame(CFA, -20)
        CFI CFA R13+20
        MOV      R4,R0
        MOV      R5,R1
        MOV      R6,R2
        MOV      R7,R3
//  940 	if(isallocatediconid(__unknwnargname2))trace_free(trace_iconid, (void*)__unknwnargname2, __file__, __line__ );
        MOV      R0,R7
        BL       ??isallocatediconid
        CMP      R0,#+0
        BEQ      ??__deleaker_GUIObject_SetCursorImage_1
        MOV      R3,R5
        MOV      R2,R4
        MOV      R1,R7
        MOV      R0,#+2
        BL       ??trace_free
//  941 	__original_GUIObject_SetCursorImage(__unknwnargname1, __unknwnargname2);
??__deleaker_GUIObject_SetCursorImage_1:
        MOV      R1,R7
        MOV      R0,R6
        SWI      +789
//  942 }
        POP      {R4-R7,PC}       ;; return
        CFI EndBlock cfiBlock225

        RSEG CODE:CODE:NOROOT(2)
        CFI Block cfiBlock226 Using cfiCommon0
        CFI NoFunction
        THUMB
??__deleaker_GUIObject_SetTitleBackgroundImage?:
        BX       PC
        Nop      
        CFI EndBlock cfiBlock226
        REQUIRE ??__deleaker_GUIObject_SetTitleBackgroundImage
//  943 

        RSEG CODE:CODE:NOROOT(2)
        CFI Block cfiBlock227 Using cfiCommon1
        CFI Function ??__deleaker_GUIObject_SetTitleBackgroundImage
        ARM
//  944 void __deleaker_GUIObject_SetTitleBackgroundImage( const char* __file__, int __line__, GUI* __unknwnargname1, IMAGEID __unknwnargname2 )
//  945 {
??__deleaker_GUIObject_SetTitleBackgroundImage:
        PUSH     {R4-R7,LR}
        CFI ?RET Frame(CFA, -4)
        CFI R7 Frame(CFA, -8)
        CFI R6 Frame(CFA, -12)
        CFI R5 Frame(CFA, -16)
        CFI R4 Frame(CFA, -20)
        CFI CFA R13+20
        MOV      R4,R0
        MOV      R5,R1
        MOV      R6,R2
        MOV      R7,R3
//  946 	if(isallocatediconid(__unknwnargname2))trace_free(trace_iconid, (void*)__unknwnargname2, __file__, __line__ );
        MOV      R0,R7
        BL       ??isallocatediconid
        CMP      R0,#+0
        BEQ      ??__deleaker_GUIObject_SetTitleBackgroundImage_1
        MOV      R3,R5
        MOV      R2,R4
        MOV      R1,R7
        MOV      R0,#+2
        BL       ??trace_free
//  947 	__original_GUIObject_SetTitleBackgroundImage(__unknwnargname1, __unknwnargname2);
??__deleaker_GUIObject_SetTitleBackgroundImage_1:
        MOV      R1,R7
        MOV      R0,R6
        SWI      +787
//  948 }
        POP      {R4-R7,PC}       ;; return
        CFI EndBlock cfiBlock227

        RSEG CODE:CODE:NOROOT(2)
        CFI Block cfiBlock228 Using cfiCommon0
        CFI NoFunction
        THUMB
??__deleaker_Shortcut_Get_MenuItemName??rT:
        BX       PC
        Nop      
        CFI EndBlock cfiBlock228
        REQUIRE ??__deleaker_Shortcut_Get_MenuItemName
//  949 

        RSEG CODE:CODE:NOROOT(2)
        CFI Block cfiBlock229 Using cfiCommon1
        CFI Function ??__deleaker_Shortcut_Get_MenuItemName
        ARM
//  950 TEXTID __deleaker_Shortcut_Get_MenuItemName( const char* __file__, int __line__, void* __unknwnargname1 )
//  951 {
??__deleaker_Shortcut_Get_MenuItemName:
        PUSH     {R4-R6,LR}
        CFI ?RET Frame(CFA, -4)
        CFI R6 Frame(CFA, -8)
        CFI R5 Frame(CFA, -12)
        CFI R4 Frame(CFA, -16)
        CFI CFA R13+16
        MOV      R4,R0
        MOV      R5,R1
        MOV      R0,R2
//  952 	TEXTID ret = __original_Shortcut_Get_MenuItemName(__unknwnargname1);
        SWI      +737
        MOV      R6,R0
//  953 	trace_alloc(trace_strid, (void*)ret, __file__, __line__);
        MOV      R3,R5
        MOV      R2,R4
        MOV      R1,R6
        MOV      R0,#+1
        BL       ??trace_alloc
//  954 	return ret;
        MOV      R0,R6
        POP      {R4-R6,PC}       ;; return
        CFI EndBlock cfiBlock229
//  955 }

        RSEG CODE:CODE:NOROOT(2)
        CFI Block cfiBlock230 Using cfiCommon0
        CFI NoFunction
        THUMB
??__deleaker_YesNoQuestion_SetIcon??rT:
        BX       PC
        Nop      
        CFI EndBlock cfiBlock230
        REQUIRE ??__deleaker_YesNoQuestion_SetIcon
//  956 

        RSEG CODE:CODE:NOROOT(2)
        CFI Block cfiBlock231 Using cfiCommon1
        CFI Function ??__deleaker_YesNoQuestion_SetIcon
        ARM
//  957 void __deleaker_YesNoQuestion_SetIcon( const char* __file__, int __line__, GUI* __unknwnargname1, IMAGEID __unknwnargname2 )
//  958 {
??__deleaker_YesNoQuestion_SetIcon:
        PUSH     {R4-R7,LR}
        CFI ?RET Frame(CFA, -4)
        CFI R7 Frame(CFA, -8)
        CFI R6 Frame(CFA, -12)
        CFI R5 Frame(CFA, -16)
        CFI R4 Frame(CFA, -20)
        CFI CFA R13+20
        MOV      R4,R0
        MOV      R5,R1
        MOV      R6,R2
        MOV      R7,R3
//  959 	if(isallocatediconid(__unknwnargname2))trace_free(trace_iconid, (void*)__unknwnargname2, __file__, __line__ );
        MOV      R0,R7
        BL       ??isallocatediconid
        CMP      R0,#+0
        BEQ      ??__deleaker_YesNoQuestion_SetIcon_1
        MOV      R3,R5
        MOV      R2,R4
        MOV      R1,R7
        MOV      R0,#+2
        BL       ??trace_free
//  960 	__original_YesNoQuestion_SetIcon(__unknwnargname1, __unknwnargname2);
??__deleaker_YesNoQuestion_SetIcon_1:
        MOV      R1,R7
        MOV      R0,R6
        SWI      +959
//  961 }
        POP      {R4-R7,PC}       ;; return
        CFI EndBlock cfiBlock231

        RSEG CODE:CODE:NOROOT(2)
        CFI Block cfiBlock232 Using cfiCommon0
        CFI NoFunction
        THUMB
??__deleaker_ListMenu_SetItemIcon??rT:
        BX       PC
        Nop      
        CFI EndBlock cfiBlock232
        REQUIRE ??__deleaker_ListMenu_SetItemIcon
//  962 

        RSEG CODE:CODE:NOROOT(2)
        CFI Block cfiBlock233 Using cfiCommon1
        CFI Function ??__deleaker_ListMenu_SetItemIcon
        ARM
//  963 int __deleaker_ListMenu_SetItemIcon( const char* __file__, int __line__, GUI_LIST* __unknwnargname1, int Item, wchar_t unk_FFFF, int mode, IMAGEID __unknwnargname5 )
//  964 {
??__deleaker_ListMenu_SetItemIcon:
        PUSH     {R4-R10,LR}
        CFI ?RET Frame(CFA, -4)
        CFI R10 Frame(CFA, -8)
        CFI R9 Frame(CFA, -12)
        CFI R8 Frame(CFA, -16)
        CFI R7 Frame(CFA, -20)
        CFI R6 Frame(CFA, -24)
        CFI R5 Frame(CFA, -28)
        CFI R4 Frame(CFA, -32)
        CFI CFA R13+32
        LDRH     R8,[SP, #+32]
        LDR      R9,[SP, #+36]
        LDRH     R10,[SP, #+40]
        MOV      R4,R0
        MOV      R5,R1
        MOV      R6,R2
        MOV      R7,R3
//  965 	//!!!unknown arg unk_FFFF
//  966 	if(isallocatediconid(__unknwnargname5))trace_free(trace_iconid, (void*)__unknwnargname5, __file__, __line__ );
        MOV      R0,R10
        BL       ??isallocatediconid
        CMP      R0,#+0
        BEQ      ??__deleaker_ListMenu_SetItemIcon_1
        MOV      R3,R5
        MOV      R2,R4
        MOV      R1,R10
        MOV      R0,#+2
        BL       ??trace_free
//  967 	return __original_ListMenu_SetItemIcon(__unknwnargname1, Item, unk_FFFF, mode, __unknwnargname5);
??__deleaker_ListMenu_SetItemIcon_1:
        PUSH     {R10}
        CFI CFA R13+36
        MOV      R3,R9
        MOV      R2,R8
        MOV      R1,R7
        MOV      R0,R6
        SWI      +928
        POP      {R1,R4-R10,PC}   ;; return
        CFI EndBlock cfiBlock233
//  968 }

        RSEG CODE:CODE:NOROOT(2)
        CFI Block cfiBlock234 Using cfiCommon0
        CFI NoFunction
        THUMB
??__deleaker_Shortcut_Get_MenuItemIconID??rT:
        BX       PC
        Nop      
        CFI EndBlock cfiBlock234
        REQUIRE ??__deleaker_Shortcut_Get_MenuItemIconID
//  969 

        RSEG CODE:CODE:NOROOT(2)
        CFI Block cfiBlock235 Using cfiCommon1
        CFI Function ??__deleaker_Shortcut_Get_MenuItemIconID
        ARM
//  970 IMAGEID __deleaker_Shortcut_Get_MenuItemIconID( const char* __file__, int __line__, void* __unknwnargname1 )
//  971 {
??__deleaker_Shortcut_Get_MenuItemIconID:
        PUSH     {R4-R6,LR}
        CFI ?RET Frame(CFA, -4)
        CFI R6 Frame(CFA, -8)
        CFI R5 Frame(CFA, -12)
        CFI R4 Frame(CFA, -16)
        CFI CFA R13+16
        MOV      R4,R0
        MOV      R5,R1
        MOV      R0,R2
//  972 	IMAGEID ret = __original_Shortcut_Get_MenuItemIconID(__unknwnargname1);
        SWI      +738
        MOV      R6,R0
//  973 	if(isallocatediconid(ret))trace_alloc(trace_iconid, (void*)ret, __file__, __line__);
        BL       ??isallocatediconid
        CMP      R0,#+0
        BEQ      ??__deleaker_Shortcut_Get_MenuItemIconID_1
        MOV      R3,R5
        MOV      R2,R4
        MOV      R1,R6
        MOV      R0,#+2
        BL       ??trace_alloc
//  974 	return ret;
??__deleaker_Shortcut_Get_MenuItemIconID_1:
        MOV      R0,R6
        POP      {R4-R6,PC}       ;; return
        CFI EndBlock cfiBlock235
//  975 }

        RSEG CODE:CODE:NOROOT(2)
        CFI Block cfiBlock236 Using cfiCommon0
        CFI NoFunction
        THUMB
??__deleaker_create_process??rT:
        BX       PC
        Nop      
        CFI EndBlock cfiBlock236
        REQUIRE ??__deleaker_create_process
//  976 

        RSEG CODE:CODE:NOROOT(2)
        CFI Block cfiBlock237 Using cfiCommon1
        CFI Function ??__deleaker_create_process
        ARM
//  977 PROCESS __deleaker_create_process( const char* __file__, int __line__, PROCESS_TYPE proc_type, char* name, OSENTRYPOINT* entrypoint, OSADDRESS stack_size, OSPRIORITY priority, OSTIME timeslice, PROCESS pid_block, void* redir_table, OSVECTOR vector, OSUSER user )
//  978 {
??__deleaker_create_process:
        PUSH     {R4-R9,LR}
        CFI ?RET Frame(CFA, -4)
        CFI R9 Frame(CFA, -8)
        CFI R8 Frame(CFA, -12)
        CFI R7 Frame(CFA, -16)
        CFI R6 Frame(CFA, -20)
        CFI R5 Frame(CFA, -24)
        CFI R4 Frame(CFA, -28)
        CFI CFA R13+28
        LDRB     R12,[SP, #+36]
        LDR      R6,[SP, #+44]
        LDR      R7,[SP, #+48]
        LDR      LR,[SP, #+40]
        LDRH     R8,[SP, #+52]
        LDR      R9,[SP, #+56]
        MOV      R4,R0
        MOV      R5,R1
        MOV      R0,R2
        LDR      R2,[SP, #+28]
        MOV      R1,R3
        LDR      R3,[SP, #+32]
//  979 	PROCESS ret = __original_create_process(proc_type, name, entrypoint, stack_size, priority, timeslice, pid_block, redir_table, vector, user);
        PUSH     {R9}
        CFI CFA R13+32
        PUSH     {R8}
        CFI CFA R13+36
        PUSH     {R7}
        CFI CFA R13+40
        PUSH     {R6}
        CFI CFA R13+44
        PUSH     {LR}
        CFI CFA R13+48
        PUSH     {R12}
        CFI CFA R13+52
        SWI      +385
        MOV      R6,R0
//  980 	trace_alloc(trace_process, (void*)ret, __file__, __line__);
        MOV      R3,R5
        MOV      R2,R4
        MOV      R1,R6
        MOV      R0,#+11
        BL       ??trace_alloc
//  981 	return ret;
        MOV      R0,R6
        ADD      SP,SP,#+24
        CFI CFA R13+28
        POP      {R4-R9,PC}       ;; return
        CFI EndBlock cfiBlock237
//  982 }

        RSEG CODE:CODE:NOROOT(2)
        CFI Block cfiBlock238 Using cfiCommon0
        CFI NoFunction
        THUMB
??__deleaker_kill_proc??rT:
        BX       PC
        Nop      
        CFI EndBlock cfiBlock238
        REQUIRE ??__deleaker_kill_proc
//  983 

        RSEG CODE:CODE:NOROOT(2)
        CFI Block cfiBlock239 Using cfiCommon1
        CFI Function ??__deleaker_kill_proc
        ARM
//  984 void __deleaker_kill_proc( const char* __file__, int __line__, PROCESS pid )
//  985 {
??__deleaker_kill_proc:
        PUSH     {R4,LR}
        CFI ?RET Frame(CFA, -4)
        CFI R4 Frame(CFA, -8)
        CFI CFA R13+8
//  986 	trace_free(trace_process, (void*)pid, __file__, __line__);
        MOV      R3,R1
        MOV      R4,R2
        MOV      R2,R0
        MOV      R1,R4
        MOV      R0,#+11
        BL       ??trace_free
//  987 	return __original_kill_proc(pid);
        MOV      R0,R4
        SWI      +391
        POP      {R4,PC}          ;; return
        CFI EndBlock cfiBlock239
//  988 }

        RSEG CODE:CODE:NOROOT(2)
        CFI Block cfiBlock240 Using cfiCommon0
        CFI NoFunction
        THUMB
??__deleaker_MediaPlayer_SoftKeys_AddHelpStr??r:
        BX       PC
        Nop      
        CFI EndBlock cfiBlock240
        REQUIRE ??__deleaker_MediaPlayer_SoftKeys_AddHelpStr
//  989 

        RSEG CODE:CODE:NOROOT(2)
        CFI Block cfiBlock241 Using cfiCommon1
        CFI Function ??__deleaker_MediaPlayer_SoftKeys_AddHelpStr
        ARM
//  990 void __deleaker_MediaPlayer_SoftKeys_AddHelpStr( const char* __file__, int __line__, GUI* player_gui, int item, TEXTID __unknwnargname3 )
//  991 {
??__deleaker_MediaPlayer_SoftKeys_AddHelpStr:
        PUSH     {R4-R8,LR}
        CFI ?RET Frame(CFA, -4)
        CFI R8 Frame(CFA, -8)
        CFI R7 Frame(CFA, -12)
        CFI R6 Frame(CFA, -16)
        CFI R5 Frame(CFA, -20)
        CFI R4 Frame(CFA, -24)
        CFI CFA R13+24
        LDR      R8,[SP, #+24]
        MOV      R4,R0
        MOV      R5,R1
        MOV      R6,R2
        MOV      R7,R3
//  992 	if(isallocatedstrid(__unknwnargname3))trace_free(trace_strid, (void*)__unknwnargname3, __file__, __line__ );
        MOV      R0,R8
        BL       ??isallocatedstrid
        CMP      R0,#+0
        BEQ      ??__deleaker_MediaPlayer_SoftKeys_AddHelpStr_1
        MOV      R3,R5
        MOV      R2,R4
        MOV      R1,R8
        MOV      R0,#+1
        BL       ??trace_free
//  993 	__original_MediaPlayer_SoftKeys_AddHelpStr(player_gui, item, __unknwnargname3);
??__deleaker_MediaPlayer_SoftKeys_AddHelpStr_1:
        MOV      R2,R8
        MOV      R1,R7
        MOV      R0,R6
        SWI      +876
//  994 }
        POP      {R4-R8,PC}       ;; return
        CFI EndBlock cfiBlock241

        RSEG CODE:CODE:NOROOT(2)
        CFI Block cfiBlock242 Using cfiCommon0
        CFI NoFunction
        THUMB
??__deleaker_MediaPlayer_SoftKeys_SetText??rT:
        BX       PC
        Nop      
        CFI EndBlock cfiBlock242
        REQUIRE ??__deleaker_MediaPlayer_SoftKeys_SetText
//  995 

        RSEG CODE:CODE:NOROOT(2)
        CFI Block cfiBlock243 Using cfiCommon1
        CFI Function ??__deleaker_MediaPlayer_SoftKeys_SetText
        ARM
//  996 void __deleaker_MediaPlayer_SoftKeys_SetText( const char* __file__, int __line__, GUI* player_gui, int actionID, TEXTID __unknwnargname3 )
//  997 {
??__deleaker_MediaPlayer_SoftKeys_SetText:
        PUSH     {R4-R8,LR}
        CFI ?RET Frame(CFA, -4)
        CFI R8 Frame(CFA, -8)
        CFI R7 Frame(CFA, -12)
        CFI R6 Frame(CFA, -16)
        CFI R5 Frame(CFA, -20)
        CFI R4 Frame(CFA, -24)
        CFI CFA R13+24
        LDR      R8,[SP, #+24]
        MOV      R4,R0
        MOV      R5,R1
        MOV      R6,R2
        MOV      R7,R3
//  998 	if(isallocatedstrid(__unknwnargname3))trace_free(trace_strid, (void*)__unknwnargname3, __file__, __line__ );
        MOV      R0,R8
        BL       ??isallocatedstrid
        CMP      R0,#+0
        BEQ      ??__deleaker_MediaPlayer_SoftKeys_SetText_1
        MOV      R3,R5
        MOV      R2,R4
        MOV      R1,R8
        MOV      R0,#+1
        BL       ??trace_free
//  999 	__original_MediaPlayer_SoftKeys_SetText(player_gui, actionID, __unknwnargname3);
??__deleaker_MediaPlayer_SoftKeys_SetText_1:
        MOV      R2,R8
        MOV      R1,R7
        MOV      R0,R6
        SWI      +873
// 1000 }
        POP      {R4-R8,PC}       ;; return
        CFI EndBlock cfiBlock243

        RSEG CODE:CODE:NOROOT(2)
        CFI Block cfiBlock244 Using cfiCommon0
        CFI NoFunction
        THUMB
??__deleaker_MenuBook_Desktop_GetSelectedItemID:
        BX       PC
        Nop      
        CFI EndBlock cfiBlock244
        REQUIRE ??__deleaker_MenuBook_Desktop_GetSelectedItemID_1
// 1001 

        RSEG CODE:CODE:NOROOT(2)
        CFI Block cfiBlock245 Using cfiCommon1
        CFI Function ??__deleaker_MenuBook_Desktop_GetSelectedItemID_1
        ARM
// 1002 wchar_t* __deleaker_MenuBook_Desktop_GetSelectedItemID( const char* __file__, int __line__, BOOK* MenuBook_Desktop )
// 1003 {
??__deleaker_MenuBook_Desktop_GetSelectedItemID_1:
        PUSH     {R4-R6,LR}
        CFI ?RET Frame(CFA, -4)
        CFI R6 Frame(CFA, -8)
        CFI R5 Frame(CFA, -12)
        CFI R4 Frame(CFA, -16)
        CFI CFA R13+16
        MOV      R4,R0
        MOV      R5,R1
        MOV      R0,R2
// 1004 	wchar_t* ret = __original_MenuBook_Desktop_GetSelectedItemID(MenuBook_Desktop);
        SWI      +705
        MOVS     R6,R0
// 1005 	if(ret)trace_alloc(trace_memory, (void*)ret, __file__, __line__);
        BEQ      ??__deleaker_MenuBook_Desktop_GetSelectedItemID_2
        MOV      R3,R5
        MOV      R2,R4
        MOV      R1,R6
        MOV      R0,#+0
        BL       ??trace_alloc
// 1006 	return ret;
??__deleaker_MenuBook_Desktop_GetSelectedItemID_2:
        MOV      R0,R6
        POP      {R4-R6,PC}       ;; return
        CFI EndBlock cfiBlock245
// 1007 }

        RSEG CODE:CODE:NOROOT(2)
        CFI Block cfiBlock246 Using cfiCommon0
        CFI NoFunction
        THUMB
??__deleaker_CreateURI??rT:
        BX       PC
        Nop      
        CFI EndBlock cfiBlock246
        REQUIRE ??__deleaker_CreateURI
// 1008 

        RSEG CODE:CODE:NOROOT(2)
        CFI Block cfiBlock247 Using cfiCommon1
        CFI Function ??__deleaker_CreateURI
        ARM
// 1009 char* __deleaker_CreateURI( const char* __file__, int __line__, wchar_t* fpath, wchar_t* fname, char* URIScheme )
// 1010 {
??__deleaker_CreateURI:
        PUSH     {R4-R6,LR}
        CFI ?RET Frame(CFA, -4)
        CFI R6 Frame(CFA, -8)
        CFI R5 Frame(CFA, -12)
        CFI R4 Frame(CFA, -16)
        CFI CFA R13+16
        MOV      R4,R0
        MOV      R5,R1
        MOV      R0,R2
        LDR      R2,[SP, #+16]
        MOV      R1,R3
// 1011 	char* ret = __original_CreateURI(fpath, fname, URIScheme);
        SWI      +864
        MOVS     R6,R0
// 1012 	if(ret)trace_alloc(trace_memory, (void*)ret, __file__, __line__);
        BEQ      ??__deleaker_CreateURI_1
        MOV      R3,R5
        MOV      R2,R4
        MOV      R1,R6
        MOV      R0,#+0
        BL       ??trace_alloc
// 1013 	return ret;
??__deleaker_CreateURI_1:
        MOV      R0,R6
        POP      {R4-R6,PC}       ;; return
        CFI EndBlock cfiBlock247
// 1014 }

        RSEG CODE:CODE:NOROOT(2)
        CFI Block cfiBlock248 Using cfiCommon0
        CFI NoFunction
        THUMB
??__deleaker_Timer_Kill??rT:
        BX       PC
        Nop      
        CFI EndBlock cfiBlock248
        REQUIRE ??__deleaker_Timer_Kill
// 1015 

        RSEG CODE:CODE:NOROOT(2)
        CFI Block cfiBlock249 Using cfiCommon1
        CFI Function ??__deleaker_Timer_Kill
        ARM
// 1016 void __deleaker_Timer_Kill( const char* __file__, int __line__, u16* timerID )
// 1017 {
??__deleaker_Timer_Kill:
        PUSH     {R4,LR}
        CFI ?RET Frame(CFA, -4)
        CFI R4 Frame(CFA, -8)
        CFI CFA R13+8
// 1018 	trace_free(trace_timer, (void*)*timerID, __file__, __line__);
        MOV      R3,R1
        MOV      R4,R2
        LDRH     R1,[R4, #+0]
        MOV      R2,R0
        MOV      R0,#+3
        BL       ??trace_free
// 1019 	trace_timerkill(timerID);
        MOV      R0,R4
        POP      {R4,LR}          ;; Pop
        CFI R4 SameValue
        CFI ?RET R14
        CFI CFA R13+0
        B        ??trace_timerkill  ;; tailcall
        CFI EndBlock cfiBlock249
// 1020 }

        RSEG CODE:CODE:NOROOT(2)
        CFI Block cfiBlock250 Using cfiCommon0
        CFI NoFunction
        THUMB
??__deleaker_Timer_Set??rT:
        BX       PC
        Nop      
        CFI EndBlock cfiBlock250
        REQUIRE ??__deleaker_Timer_Set
// 1021 

        RSEG CODE:CODE:NOROOT(2)
        CFI Block cfiBlock251 Using cfiCommon1
        CFI Function ??__deleaker_Timer_Set
        ARM
// 1022 u16 __deleaker_Timer_Set( const char* __file__, int __line__, int time, TIMERPROC onTimer, LPARAM lparam )
// 1023 {
??__deleaker_Timer_Set:
        PUSH     {R4-R6,LR}
        CFI ?RET Frame(CFA, -4)
        CFI R6 Frame(CFA, -8)
        CFI R5 Frame(CFA, -12)
        CFI R4 Frame(CFA, -16)
        CFI CFA R13+16
        MOV      R4,R0
        MOV      R5,R1
        MOV      R0,R2
        LDR      R2,[SP, #+16]
        MOV      R1,R3
// 1024 	u16 ret = trace_timerset(time,(void(*)(u16,LPARAM))onTimer,(LPARAM)lparam);
        BL       ??trace_timerset
        MOVS     R6,R0
// 1025 	if(ret)trace_alloc(trace_timer, (void*)ret, __file__, __line__);
        BEQ      ??__deleaker_Timer_Set_1
        MOV      R3,R5
        MOV      R2,R4
        MOV      R1,R6
        MOV      R0,#+3
        BL       ??trace_alloc
// 1026 	return ret;
??__deleaker_Timer_Set_1:
        MOV      R0,R6
        POP      {R4-R6,PC}       ;; return
        CFI EndBlock cfiBlock251
// 1027 }

        RSEG CODE:CODE:NOROOT(2)
        CFI Block cfiBlock252 Using cfiCommon0
        CFI NoFunction
        THUMB
??__deleaker_Timer_ReSet??rT:
        BX       PC
        Nop      
        CFI EndBlock cfiBlock252
        REQUIRE ??__deleaker_Timer_ReSet
// 1028 

        RSEG CODE:CODE:NOROOT(2)
        CFI Block cfiBlock253 Using cfiCommon1
        CFI Function ??__deleaker_Timer_ReSet
        ARM
// 1029 void __deleaker_Timer_ReSet( const char* __file__, int __line__, u16* timer, int time, TIMERPROC onTimer, LPARAM lparam )
// 1030 {
??__deleaker_Timer_ReSet:
        PUSH     {R4-R9,LR}
        CFI ?RET Frame(CFA, -4)
        CFI R9 Frame(CFA, -8)
        CFI R8 Frame(CFA, -12)
        CFI R7 Frame(CFA, -16)
        CFI R6 Frame(CFA, -20)
        CFI R5 Frame(CFA, -24)
        CFI R4 Frame(CFA, -28)
        CFI CFA R13+28
        MOV      R5,R1
        LDR      R8,[SP, #+28]
        LDR      R9,[SP, #+32]
        MOV      R6,R2
// 1031 	trace_free(trace_timer, (void*)*timer, __file__, __line__);
        LDRH     R1,[R6, #+0]
        MOV      R4,R0
        MOV      R7,R3
        MOV      R3,R5
        MOV      R2,R4
        MOV      R0,#+3
        BL       ??trace_free
// 1032 	trace_timerkill(timer);
        MOV      R0,R6
        BL       ??trace_timerkill
// 1033 
// 1034 	u16 ret = trace_timerset(time,(void(*)(u16,LPARAM))onTimer,(LPARAM)lparam);
        MOV      R2,R9
        MOV      R1,R8
        MOV      R0,R7
        BL       ??trace_timerset
        MOVS     R7,R0
// 1035 	if(ret)trace_alloc(trace_timer, (void*)ret, __file__, __line__);
        BEQ      ??__deleaker_Timer_ReSet_1
        MOV      R3,R5
        MOV      R2,R4
        MOV      R1,R7
        MOV      R0,#+3
        BL       ??trace_alloc
// 1036 	*timer=ret;
??__deleaker_Timer_ReSet_1:
        STRH     R7,[R6, #+0]
// 1037 }
        POP      {R4-R9,PC}       ;; return
        CFI EndBlock cfiBlock253

        RSEG CODE:CODE:NOROOT(2)
        CFI Block cfiBlock254 Using cfiCommon0
        CFI NoFunction
        THUMB
??__deleaker_alloc??rT:
        BX       PC
        Nop      
        CFI EndBlock cfiBlock254
        REQUIRE ??__deleaker_alloc
// 1038 

        RSEG CODE:CODE:NOROOT(2)
        CFI Block cfiBlock255 Using cfiCommon1
        CFI Function ??__deleaker_alloc
        ARM
// 1039 union SIGNAL* __deleaker_alloc( const char* __file__, int __line__, OSBUFSIZE size, SIGSELECT signo )
// 1040 {
??__deleaker_alloc:
        PUSH     {R4-R6,LR}
        CFI ?RET Frame(CFA, -4)
        CFI R6 Frame(CFA, -8)
        CFI R5 Frame(CFA, -12)
        CFI R4 Frame(CFA, -16)
        CFI CFA R13+16
        MOV      R4,R0
        MOV      R5,R1
        MOV      R0,R2
        MOV      R1,R3
// 1041 	union SIGNAL* ret = __original_alloc(size, signo);
        SWI      +380
        MOVS     R6,R0
// 1042 	if(ret)trace_alloc(trace_osebuff, ret, __file__, __line__);
        BEQ      ??__deleaker_alloc_1
        MOV      R3,R5
        MOV      R2,R4
        MOV      R1,R6
        MOV      R0,#+12
        BL       ??trace_alloc
// 1043 	return ret;
??__deleaker_alloc_1:
        MOV      R0,R6
        POP      {R4-R6,PC}       ;; return
        CFI EndBlock cfiBlock255
// 1044 }

        RSEG CODE:CODE:NOROOT(2)
        CFI Block cfiBlock256 Using cfiCommon0
        CFI NoFunction
        THUMB
??__deleaker_receive??rT:
        BX       PC
        Nop      
        CFI EndBlock cfiBlock256
        REQUIRE ??__deleaker_receive
// 1045 

        RSEG CODE:CODE:NOROOT(2)
        CFI Block cfiBlock257 Using cfiCommon1
        CFI Function ??__deleaker_receive
        ARM
// 1046 union SIGNAL* __deleaker_receive( const char* __file__, int __line__, const SIGSELECT* sigsel )
// 1047 {
??__deleaker_receive:
        PUSH     {R4-R6,LR}
        CFI ?RET Frame(CFA, -4)
        CFI R6 Frame(CFA, -8)
        CFI R5 Frame(CFA, -12)
        CFI R4 Frame(CFA, -16)
        CFI CFA R13+16
        MOV      R4,R0
        MOV      R5,R1
        MOV      R0,R2
// 1048 	union SIGNAL* ret = __original_receive(sigsel);
        SWI      +381
        MOVS     R6,R0
// 1049 	if(ret)trace_alloc(trace_osebuff, ret, __file__, __line__);
        BEQ      ??__deleaker_receive_1
        MOV      R3,R5
        MOV      R2,R4
        MOV      R1,R6
        MOV      R0,#+12
        BL       ??trace_alloc
// 1050 	return ret;
??__deleaker_receive_1:
        MOV      R0,R6
        POP      {R4-R6,PC}       ;; return
        CFI EndBlock cfiBlock257
// 1051 }

        RSEG CODE:CODE:NOROOT(2)
        CFI Block cfiBlock258 Using cfiCommon0
        CFI NoFunction
        THUMB
??__deleaker_receive_w_tmo??rT:
        BX       PC
        Nop      
        CFI EndBlock cfiBlock258
        REQUIRE ??__deleaker_receive_w_tmo
// 1052 

        RSEG CODE:CODE:NOROOT(2)
        CFI Block cfiBlock259 Using cfiCommon1
        CFI Function ??__deleaker_receive_w_tmo
        ARM
// 1053 union SIGNAL* __deleaker_receive_w_tmo( const char* __file__, int __line__, OSTIME timeout, SIGSELECT* sel )
// 1054 {
??__deleaker_receive_w_tmo:
        PUSH     {R4-R6,LR}
        CFI ?RET Frame(CFA, -4)
        CFI R6 Frame(CFA, -8)
        CFI R5 Frame(CFA, -12)
        CFI R4 Frame(CFA, -16)
        CFI CFA R13+16
        MOV      R4,R0
        MOV      R5,R1
        MOV      R0,R2
        MOV      R1,R3
// 1055 	union SIGNAL* ret = __original_receive_w_tmo(timeout, sel);
        SWI      +393
        MOVS     R6,R0
// 1056 	if(ret)trace_alloc(trace_osebuff, ret, __file__, __line__);
        BEQ      ??__deleaker_receive_w_tmo_1
        MOV      R3,R5
        MOV      R2,R4
        MOV      R1,R6
        MOV      R0,#+12
        BL       ??trace_alloc
// 1057 	return ret;
??__deleaker_receive_w_tmo_1:
        MOV      R0,R6
        POP      {R4-R6,PC}       ;; return
        CFI EndBlock cfiBlock259
// 1058 }

        RSEG CODE:CODE:NOROOT(2)
        CFI Block cfiBlock260 Using cfiCommon0
        CFI NoFunction
        THUMB
