##############################################################################
#                                                                            #
# IAR ARM ANSI C/C++ Compiler V4.42A/W32 EVALUATION    20/May/2011  21:34:11 #
# Copyright 1999-2005 IAR Systems. All rights reserved.                      #
#                                                                            #
#    Cpu mode        =  interwork                                            #
#    Endian          =  little                                               #
#    Stack alignment =  4                                                    #
#    Source file     =  C:\Users\Faby\Desktop\StudyElf\deleaker\mem2.cpp     #
#    Command line    =  C:\Users\Faby\Desktop\StudyElf\deleaker\mem2.cpp     #
#                       -lC C:\Users\Faby\Desktop\StudyElf\GlassUIWidget\Rel #
#                       ease\List\ -lA C:\Users\Faby\Desktop\StudyElf\GlassU #
#                       IWidget\Release\List\ -o C:\Users\Faby\Desktop\Study #
#                       Elf\GlassUIWidget\Release\Obj\ -s9 --no_unroll       #
#                       --no_inline --cpu_mode arm --endian little --cpu     #
#                       ARM926EJ-S --stack_align 4 --interwork -e            #
#                       --enable_multibytes --fpu None --eec++               #
#                       --dlib_config "C:\Users\Faby\EmbebedIAR\Embedded     #
#                       Workbench 4.0 Evaluation\ARM\LIB\dl5tpainl8n.h"      #
#                       --preinclude C:\Users\Faby\Desktop\StudyElf\deleaker #
#                       \mem2.h -I "C:\Users\Faby\EmbebedIAR\Embedded        #
#                       Workbench 4.0 Evaluation\ARM\INC\"                   #
#    List file       =  C:\Users\Faby\Desktop\StudyElf\GlassUIWidget\Release #
#                       \List\mem2.lst                                       #
#    Object file     =  C:\Users\Faby\Desktop\StudyElf\GlassUIWidget\Release #
#                       \Obj\mem2.r79                                        #
#                                                                            #
#                                                                            #
##############################################################################

C:\Users\Faby\Desktop\StudyElf\deleaker\mem2.cpp
      1          #ifdef NDEBUG
      2          
      3          #include "..\include\Lib_Clara.h"
      4          
      5          void* operator new(size_t sz){return malloc(sz);};
      6          void* operator new[](size_t sz){return malloc(sz);};
      7          void operator delete(void * p){mfree(p);};
      8          void operator delete[](void * p){mfree(p);};
      9          
     10          void* operator new(size_t size, void* p){ return p; }
     11          void* operator new[](size_t size, void* p){ return p; }
     12          void operator delete (void*, void*) { }
     13          void operator delete[] (void*, void*) { }
     14          
     15          #else
     16          
     17          #include "mem2.h"
     18          #include "..\include\dir.h"
     19          #include "lib_clara_original.h"
     20          #undef new
     21          #undef delete
     22          
     23          

   \                                 In segment DATA_I, align 4, align-sorted
     24          static char* leaktypes[]={
     25          	"memory",
     26          	"strid",
     27          	"iconid",
     28          	"timer",
     29          	"file",
     30          	"hook",
     31          	"dll",
     32          	"gc",
     33          	"gvi",
     34          	"gui",
     35          	"book",
     36          	"process",
     37          	"ose buffer",
     38          	"metadatadesc",
     39          	"fileitemstruct",
     40          	"w_dir",
     41          
     42          	"unallocated"
     43          };
     44          
     45          static bool started=false;
     46          
     47          static LIST* buffers[trace_typescount];
   \                     buffers:
   \   00000000                      DS8 68
   \   00000044                      REQUIRE `?<Initializer for buffers>`
   \   00000044                      DS8 16
   \   00000054                      REQUIRE `?<Initializer for buffers2>`
   \   00000054                      DS8 68
   \   00000098                      REQUIRE `?<Initializer for leaktypes>`
   \   00000098                      DS8 4
   \   0000009C                      REQUIRE `?<Initializer for iconid_start>`
   \   0000009C                      DS8 4
   \   000000A0                      REQUIRE `?<Initializer for iconid_end>`
   \   000000A0                      DS8 1
   \   000000A1                      REQUIRE `?<Initializer for started>`
   \   000000A1                      DS8 3
   \   000000A4                      DS8 128
   \   00000124                      REQUIRE `?<Initializer for logname>`
     48          
     49          #define LISTDATACOUNT 3
     50          
     51          static int iconid_start=0xE800;
     52          static int iconid_end=0xE8FF;
     53          
     54          
     55          enum
     56          {
     57          	trace_list_timers_id,
     58          	trace_list_timers_proc,
     59          	trace_list_file,
     60          	trace_list_line,
     61          
     62          	trace_list_size
     63          };
     64          static LIST* buffers2[trace_list_size];
     65          
     66          static wchar_t logname[64]=_T("memory.txt");
     67          
     68          

   \                                 In segment CODE, align 4, keep-with-next
     69          void trace_init(wchar_t* arg_logname)
     70          {
   \                     ??trace_init:
   \   00000000   F0402DE9           PUSH     {R4-R7,LR}
     71              if(arg_logname)
   \   00000004   ........           LDR      R4,??DataTable3  ;; buffers
   \   00000008   04D04DE2           SUB      SP,SP,#+4
   \   0000000C   000050E3           CMP      R0,#+0
   \   00000010   0300000A           BEQ      ??trace_init_1
     72          		wstrncpy(logname,arg_logname,MAXELEMS(logname));
   \   00000014   4020A0E3           MOV      R2,#+64
   \   00000018   0010A0E1           MOV      R1,R0
   \   0000001C   A40084E2           ADD      R0,R4,#+164
   \   00000020   530100EF           SWI      +339
     73          
     74          	for(int i=0;i<trace_typescount;i++)
   \                     ??trace_init_1:
   \   00000024   0050A0E3           MOV      R5,#+0
     75          		buffers[i]=__original_List_Create();
   \                     ??trace_init_2:
   \   00000028   690100EF           SWI      +361
   \   0000002C   050184E7           STR      R0,[R4, +R5, LSL #+2]
   \   00000030   015085E2           ADD      R5,R5,#+1
   \   00000034   110055E3           CMP      R5,#+17
   \   00000038   FAFFFFBA           BLT      ??trace_init_2
     76          	started=true;
   \   0000003C   0100A0E3           MOV      R0,#+1
   \   00000040   A000C4E5           STRB     R0,[R4, #+160]
     77          
     78          	for(int i=0;i<trace_list_size;i++)
   \   00000044   0050A0E3           MOV      R5,#+0
     79          		buffers2[i]=__original_List_Create();
   \                     ??trace_init_3:
   \   00000048   690100EF           SWI      +361
   \   0000004C   051184E0           ADD      R1,R4,R5, LSL #+2
   \   00000050   440081E5           STR      R0,[R1, #+68]
   \   00000054   015085E2           ADD      R5,R5,#+1
   \   00000058   040055E3           CMP      R5,#+4
   \   0000005C   F9FFFFBA           BLT      ??trace_init_3
     80          
     81          	int chipid = GetChipID() & CHIPID_MASK;
   \   00000060   4E0200EF           SWI      +590
   \   00000064   FE0C00E2           AND      R0,R0,#0xFE00
     82          
     83          	if( chipid == CHIPID_DB2000 || chipid == CHIPID_DB2010 )
   \   00000068   700C50E3           CMP      R0,#+28672
   \   0000006C   800C5013           CMPNE    R0,#+32768
   \   00000070   F180BD18           POPNE    {R0,R4-R7,PC}
     84          	{
     85          		int max=0;
     86          		int iconid;
     87          		
     88          		if( iconidname2id( _T("RN_SHORTCUT_LIST_CALL_LIST_ICN"), TEXTID_ANY_LEN, &iconid ) )
   \   00000074   94509FE5           LDR      R5,??trace_init_4  ;; `?<Constant L"\\x57\\x56\\x5f\\x59\\x41\\x48\\x4f\\x4f\\`
   \   00000078   0070A0E3           MOV      R7,#+0
   \   0000007C   FF60A0E3           MOV      R6,#+255
   \   00000080   FF6C86E3           ORR      R6,R6,#0xFF00
   \   00000084   0D20A0E1           MOV      R2,SP
   \   00000088   0610A0E1           MOV      R1,R6
   \   0000008C   440085E2           ADD      R0,R5,#+68
   \   00000090   860200EF           SWI      +646
   \   00000094   000050E3           CMP      R0,#+0
   \   00000098   0200000A           BEQ      ??trace_init_5
     89          			if( max < iconid )
   \   0000009C   00009DE5           LDR      R0,[SP, #+0]
   \   000000A0   010050E3           CMP      R0,#+1
     90          				max = iconid;
   \   000000A4   0070A0A1           MOVGE    R7,R0
     91          		if( iconidname2id( _T("ZERO_ROW_SEPARATOR_ICN"), TEXTID_ANY_LEN, &iconid ) )
   \                     ??trace_init_5:
   \   000000A8   0D20A0E1           MOV      R2,SP
   \   000000AC   0610A0E1           MOV      R1,R6
   \   000000B0   840085E2           ADD      R0,R5,#+132
   \   000000B4   860200EF           SWI      +646
   \   000000B8   000050E3           CMP      R0,#+0
   \   000000BC   0200000A           BEQ      ??trace_init_6
     92          			if( max < iconid )
   \   000000C0   00009DE5           LDR      R0,[SP, #+0]
   \   000000C4   000057E1           CMP      R7,R0
     93          				max = iconid;
   \   000000C8   0070A0B1           MOVLT    R7,R0
     94          		if( iconidname2id( _T("WV_YAHOO_STATUSBAR_SYSTEMMSG_ICN"), TEXTID_ANY_LEN, &iconid ) )
   \                     ??trace_init_6:
   \   000000CC   0D20A0E1           MOV      R2,SP
   \   000000D0   0610A0E1           MOV      R1,R6
   \   000000D4   0500A0E1           MOV      R0,R5
   \   000000D8   860200EF           SWI      +646
   \   000000DC   000050E3           CMP      R0,#+0
   \   000000E0   0200000A           BEQ      ??trace_init_7
     95          			if( max < iconid )
   \   000000E4   00009DE5           LDR      R0,[SP, #+0]
   \   000000E8   000057E1           CMP      R7,R0
     96          				max = iconid;
   \   000000EC   0070A0B1           MOVLT    R7,R0
     97          
     98          		if( max )
   \                     ??trace_init_7:
   \   000000F0   000057E3           CMP      R7,#+0
   \   000000F4   F180BD08           POPEQ    {R0,R4-R7,PC}
     99          		{
    100          			iconid_start = ( max + 0xFF ) & ~0xFF;
   \   000000F8   FF0087E2           ADD      R0,R7,#+255
   \   000000FC   FF00C0E3           BIC      R0,R0,#0xFF
   \   00000100   980084E5           STR      R0,[R4, #+152]
    101          			iconid_end = 0xFFFE; //сомнительно
   \   00000104   0100C6E3           BIC      R0,R6,#0x1
   \   00000108   9C0084E5           STR      R0,[R4, #+156]
    102          		}
    103          	}
    104          }
   \   0000010C   F180BDE8           POP      {R0,R4-R7,PC}    ;; return
   \                     ??trace_init_4:
   \   00000110   ........           DC32     `?<Constant L"\\x57\\x56\\x5f\\x59\\x41\\x48\\x4f\\x4f\\`
    105          

   \                                 In segment CODE, align 4, keep-with-next
    106          void trace_done()
    107          {
   \                     ??trace_done:
   \   00000000   F04F2DE9           PUSH     {R4-R11,LR}
    108          	char tmp[256];
    109          
    110          	started=false;
   \   00000004   ........           LDR      R4,??DataTable3  ;; buffers
    111          
    112          	BOOL detected=FALSE;
    113          
    114          	__original_w_chdir(GetDir(DIR_OTHER|MEM_INTERNAL));
    115          	int f=__original_w_fopen(logname,WA_Write+WA_Create+WA_Truncate,0x1FF,0);
    116          
    117          	for(int memtype=0;memtype<trace_typescount;memtype++)
   \   00000008   D4619FE5           LDR      R6,??trace_done_1  ;; `?<Constant "leak type \\"%s\\"\\n">`
   \   0000000C   42DF4DE2           SUB      SP,SP,#+264
   \   00000010   0000A0E3           MOV      R0,#+0
   \   00000014   A000C4E5           STRB     R0,[R4, #+160]
   \   00000018   0010A0E3           MOV      R1,#+0
   \   0000001C   04108DE5           STR      R1,[SP, #+4]
   \   00000020   0900A0E3           MOV      R0,#+9
   \   00000024   050100EF           SWI      +261
   \   00000028   F70200EF           SWI      +759
   \   0000002C   0030A0E3           MOV      R3,#+0
   \   00000030   FF20A0E3           MOV      R2,#+255
   \   00000034   402F82E3           ORR      R2,R2,#0x100
   \   00000038   4A10A0E3           MOV      R1,#+74
   \   0000003C   A40084E2           ADD      R0,R4,#+164
   \   00000040   F80200EF           SWI      +760
   \   00000044   0050A0E1           MOV      R5,R0
   \   00000048   0070A0E3           MOV      R7,#+0
    118          	{
    119          		if(buffers[memtype]->FirstFree)
   \                     ??trace_done_2:
   \   0000004C   078184E0           ADD      R8,R4,R7, LSL #+2
   \   00000050   000098E5           LDR      R0,[R8, #+0]
   \   00000054   B200D0E1           LDRH     R0,[R0, #+2]
   \   00000058   000050E3           CMP      R0,#+0
   \   0000005C   2A00000A           BEQ      ??trace_done_3
    120          		{
    121          			detected=TRUE;
   \   00000060   0110A0E3           MOV      R1,#+1
   \   00000064   04108DE5           STR      R1,[SP, #+4]
    122          
    123          			__original_w_fwrite(f,tmp,__original_sprintf(tmp,"leak type \"%s\"\n",leaktypes[memtype]));
   \   00000068   070184E0           ADD      R0,R4,R7, LSL #+2
   \   0000006C   542090E5           LDR      R2,[R0, #+84]
   \   00000070   0610A0E1           MOV      R1,R6
   \   00000074   08008DE2           ADD      R0,SP,#+8
   \   00000078   140100EF           SWI      +276
   \   0000007C   0020A0E1           MOV      R2,R0
   \   00000080   08108DE2           ADD      R1,SP,#+8
   \   00000084   0500A0E1           MOV      R0,R5
   \   00000088   FA0200EF           SWI      +762
    124          
    125          			for(int j=0;j<buffers[memtype]->FirstFree;j+=LISTDATACOUNT)
   \   0000008C   000098E5           LDR      R0,[R8, #+0]
   \   00000090   0090A0E3           MOV      R9,#+0
   \   00000094   B200D0E1           LDRH     R0,[R0, #+2]
   \   00000098   000050E3           CMP      R0,#+0
   \   0000009C   1600001A           BNE      ??trace_done_4
   \   000000A0   190000EA           B        ??trace_done_3
    126          			{
    127          				__original_w_fwrite(f,tmp,
    128          									__original_sprintf(tmp,"- %s:%d (%x)\n",
    129          											__original_List_Get(buffers[memtype],j+1),//file
    130          											__original_List_Get(buffers[memtype],j+2),//line
    131          											__original_List_Get(buffers[memtype],j)//value
    132          												)
    133          										);
   \                     ??trace_done_5:
   \   000000A4   0910A0E1           MOV      R1,R9
   \   000000A8   AD0100EF           SWI      +429
   \   000000AC   00A0A0E1           MOV      R10,R0
   \   000000B0   000098E5           LDR      R0,[R8, #+0]
   \   000000B4   021089E2           ADD      R1,R9,#+2
   \   000000B8   AD0100EF           SWI      +429
   \   000000BC   00B0A0E1           MOV      R11,R0
   \   000000C0   000098E5           LDR      R0,[R8, #+0]
   \   000000C4   011089E2           ADD      R1,R9,#+1
   \   000000C8   AD0100EF           SWI      +429
   \   000000CC   0020A0E1           MOV      R2,R0
   \   000000D0   00042DE9           PUSH     {R10}
   \   000000D4   0B30A0E1           MOV      R3,R11
   \   000000D8   101086E2           ADD      R1,R6,#+16
   \   000000DC   0C008DE2           ADD      R0,SP,#+12
   \   000000E0   140100EF           SWI      +276
   \   000000E4   0020A0E1           MOV      R2,R0
   \   000000E8   0C108DE2           ADD      R1,SP,#+12
   \   000000EC   0500A0E1           MOV      R0,R5
   \   000000F0   FA0200EF           SWI      +762
    134          			}
   \   000000F4   039089E2           ADD      R9,R9,#+3
   \   000000F8   04D08DE2           ADD      SP,SP,#+4
   \                     ??trace_done_4:
   \   000000FC   000098E5           LDR      R0,[R8, #+0]
   \   00000100   B210D0E1           LDRH     R1,[R0, #+2]
   \   00000104   010059E1           CMP      R9,R1
   \   00000108   E5FFFFBA           BLT      ??trace_done_5
    135          		}
    136          		__original_List_Destroy(buffers[memtype]);
   \                     ??trace_done_3:
   \   0000010C   000098E5           LDR      R0,[R8, #+0]
    137          	}
   \   00000110   017087E2           ADD      R7,R7,#+1
   \   00000114   6A0100EF           SWI      +362
   \   00000118   110057E3           CMP      R7,#+17
   \   0000011C   CAFFFFBA           BLT      ??trace_done_2
    138          
    139          	if(!detected)
   \   00000120   04009DE5           LDR      R0,[SP, #+4]
   \   00000124   000050E3           CMP      R0,#+0
   \   00000128   0600001A           BNE      ??trace_done_6
    140          		__original_w_fwrite(f,tmp, __original_sprintf(tmp,"no leaks detected\n") );
   \   0000012C   201086E2           ADD      R1,R6,#+32
   \   00000130   08008DE2           ADD      R0,SP,#+8
   \   00000134   140100EF           SWI      +276
   \   00000138   0020A0E1           MOV      R2,R0
   \   0000013C   08108DE2           ADD      R1,SP,#+8
   \   00000140   0500A0E1           MOV      R0,R5
   \   00000144   FA0200EF           SWI      +762
    141          
    142          	if(buffers2[trace_list_file]->FirstFree)
   \                     ??trace_done_6:
   \   00000148   4C0094E5           LDR      R0,[R4, #+76]
   \   0000014C   B200D0E1           LDRH     R0,[R0, #+2]
   \   00000150   000050E3           CMP      R0,#+0
   \   00000154   0600000A           BEQ      ??trace_done_7
    143          		__original_w_fwrite(f,tmp, __original_sprintf(tmp,"new/delete counter broken\n") );
   \   00000158   341086E2           ADD      R1,R6,#+52
   \   0000015C   08008DE2           ADD      R0,SP,#+8
   \   00000160   140100EF           SWI      +276
   \   00000164   0020A0E1           MOV      R2,R0
   \   00000168   08108DE2           ADD      R1,SP,#+8
   \   0000016C   0500A0E1           MOV      R0,R5
   \   00000170   FA0200EF           SWI      +762
    144          
    145          	__original_w_fclose(f);
   \                     ??trace_done_7:
   \   00000174   0500A0E1           MOV      R0,R5
   \   00000178   FD0200EF           SWI      +765
   \   0000017C   440094E5           LDR      R0,[R4, #+68]
   \   00000180   B200D0E1           LDRH     R0,[R0, #+2]
   \   00000184   000050E3           CMP      R0,#+0
   \   00000188   0C00000A           BEQ      ??trace_done_8
    146          
    147          	while(buffers2[trace_list_timers_id]->FirstFree)
    148          	{
    149          		u16 timerid=(u16)(int)__original_List_RemoveAt(buffers2[trace_list_timers_id],0);
   \                     ??trace_done_9:
   \   0000018C   440094E5           LDR      R0,[R4, #+68]
   \   00000190   0010A0E3           MOV      R1,#+0
   \   00000194   790100EF           SWI      +377
   \   00000198   B000CDE1           STRH     R0,[SP, #+0]
    150          		__original_List_RemoveAt(buffers2[trace_list_timers_proc],0);
   \   0000019C   480094E5           LDR      R0,[R4, #+72]
   \   000001A0   0010A0E3           MOV      R1,#+0
   \   000001A4   790100EF           SWI      +377
    151          		__original_Timer_Kill(&timerid);//pervent reboots
   \   000001A8   0D00A0E1           MOV      R0,SP
   \   000001AC   2A0100EF           SWI      +298
    152          	}
   \   000001B0   440094E5           LDR      R0,[R4, #+68]
   \   000001B4   B200D0E1           LDRH     R0,[R0, #+2]
   \   000001B8   000050E3           CMP      R0,#+0
   \   000001BC   F2FFFF1A           BNE      ??trace_done_9
    153          
    154          	for(int i=0;i<trace_list_size;i++)
   \                     ??trace_done_8:
   \   000001C0   0050A0E3           MOV      R5,#+0
    155          		__original_List_Destroy(buffers2[i]);
   \                     ??trace_done_10:
   \   000001C4   050184E0           ADD      R0,R4,R5, LSL #+2
   \   000001C8   440090E5           LDR      R0,[R0, #+68]
   \   000001CC   015085E2           ADD      R5,R5,#+1
   \   000001D0   6A0100EF           SWI      +362
   \   000001D4   040055E3           CMP      R5,#+4
   \   000001D8   F9FFFFBA           BLT      ??trace_done_10
    156          }
   \   000001DC   42DF8DE2           ADD      SP,SP,#+264      ;; stack cleaning
   \   000001E0   F08FBDE8           POP      {R4-R11,PC}      ;; return
   \                     ??trace_done_1:
   \   000001E4   ........           DC32     `?<Constant "leak type \\"%s\\"\\n">`
    157          

   \                                 In segment CODE, align 4, keep-with-next
    158          void trace_alloc(int mt, void* ptr, const char* file, int line)
    159          {
   \                     ??trace_alloc:
   \   00000000   F0402DE9           PUSH     {R4-R7,LR}
    160          	__original_List_InsertLast(buffers[mt],ptr);
   \   00000004   ........           LDR      R7,??DataTable3  ;; buffers
   \   00000008   0040A0E1           MOV      R4,R0
   \   0000000C   040197E7           LDR      R0,[R7, +R4, LSL #+2]
   \   00000010   0250A0E1           MOV      R5,R2
   \   00000014   0360A0E1           MOV      R6,R3
   \   00000018   B00100EF           SWI      +432
    161          	__original_List_InsertLast(buffers[mt],(void*)file);
   \   0000001C   040197E7           LDR      R0,[R7, +R4, LSL #+2]
   \   00000020   0510A0E1           MOV      R1,R5
   \   00000024   B00100EF           SWI      +432
    162          	__original_List_InsertLast(buffers[mt],(void*)line);
   \   00000028   040197E7           LDR      R0,[R7, +R4, LSL #+2]
   \   0000002C   0610A0E1           MOV      R1,R6
   \   00000030   B00100EF           SWI      +432
    163          }
   \   00000034   F080BDE8           POP      {R4-R7,PC}       ;; return
    164          

   \                                 In segment CODE, align 4, keep-with-next
    165          void* trace_alloc_ret(int mt, void* ptr, void* badvalue, const char* file, int line)
    166          {
   \                     ??trace_alloc_ret:
   \   00000000   10402DE9           PUSH     {R4,LR}
   \   00000004   0140A0E1           MOV      R4,R1
   \   00000008   0310A0E1           MOV      R1,R3
   \   0000000C   08309DE5           LDR      R3,[SP, #+8]
    167          	if( ptr != badvalue )
   \   00000010   020054E1           CMP      R4,R2
   \   00000014   0200000A           BEQ      ??trace_alloc_ret_1
    168          		trace_alloc( mt, ptr, file, line);
   \   00000018   0120A0E1           MOV      R2,R1
   \   0000001C   0410A0E1           MOV      R1,R4
   \   00000020   ........           BL       ??trace_alloc
    169          	return ptr;
   \                     ??trace_alloc_ret_1:
   \   00000024   0400A0E1           MOV      R0,R4
   \   00000028   1080BDE8           POP      {R4,PC}          ;; return
    170          }
    171          
    172          

   \                                 In segment CODE, align 4, keep-with-next
    173          void trace_free(int mt,void* p, const char* file, int line)
    174          {
   \                     ??trace_free:
   \   00000000   F0432DE9           PUSH     {R4-R9,LR}
    175          	if(started)
   \   00000004   ........           LDR      R7,??DataTable3  ;; buffers
   \   00000008   0140A0E1           MOV      R4,R1
   \   0000000C   A010D7E5           LDRB     R1,[R7, #+160]
   \   00000010   0250A0E1           MOV      R5,R2
   \   00000014   0360A0E1           MOV      R6,R3
   \   00000018   000051E3           CMP      R1,#+0
   \   0000001C   F083BD08           POPEQ    {R4-R9,PC}
    176          	{
    177          		bool found=false;
    178          		for(int i=0;i<buffers[mt]->FirstFree;i+=LISTDATACOUNT)
   \   00000020   0080A0E3           MOV      R8,#+0
   \   00000024   009187E0           ADD      R9,R7,R0, LSL #+2
   \   00000028   000000EA           B        ??trace_free_1
   \                     ??trace_free_2:
   \   0000002C   038088E2           ADD      R8,R8,#+3
   \                     ??trace_free_1:
   \   00000030   000099E5           LDR      R0,[R9, #+0]
   \   00000034   B210D0E1           LDRH     R1,[R0, #+2]
   \   00000038   010058E1           CMP      R8,R1
   \   0000003C   0B0000AA           BGE      ??trace_free_3
    179          		{
    180          			if(__original_List_Get(buffers[mt],i)==p)
   \   00000040   0810A0E1           MOV      R1,R8
   \   00000044   AD0100EF           SWI      +429
   \   00000048   040050E1           CMP      R0,R4
   \   0000004C   F6FFFF1A           BNE      ??trace_free_2
    181          			{
    182          				for(int j=0;j<LISTDATACOUNT;j++)
   \   00000050   0040A0E3           MOV      R4,#+0
    183          					__original_List_RemoveAt(buffers[mt],i);
   \                     ??trace_free_4:
   \   00000054   000099E5           LDR      R0,[R9, #+0]
   \   00000058   0810A0E1           MOV      R1,R8
   \   0000005C   790100EF           SWI      +377
   \   00000060   014084E2           ADD      R4,R4,#+1
   \   00000064   030054E3           CMP      R4,#+3
   \   00000068   F083BDA8           POPGE    {R4-R9,PC}
   \   0000006C   F8FFFFEA           B        ??trace_free_4
    184          				found=true;
    185          				break;
    186          			}
    187          		}
    188          		if(!found)
    189          		{
    190          			__original_List_InsertLast(buffers[trace_unallocated],(void*)p);
   \                     ??trace_free_3:
   \   00000070   400097E5           LDR      R0,[R7, #+64]
   \   00000074   0410A0E1           MOV      R1,R4
   \   00000078   B00100EF           SWI      +432
    191          			__original_List_InsertLast(buffers[trace_unallocated],(void*)file);
   \   0000007C   400097E5           LDR      R0,[R7, #+64]
   \   00000080   0510A0E1           MOV      R1,R5
   \   00000084   B00100EF           SWI      +432
    192          			__original_List_InsertLast(buffers[trace_unallocated],(void*)line);
   \   00000088   400097E5           LDR      R0,[R7, #+64]
   \   0000008C   0610A0E1           MOV      R1,R6
   \   00000090   B00100EF           SWI      +432
    193          		}
    194          	}
    195          }
   \   00000094   F083BDE8           POP      {R4-R9,PC}       ;; return
    196          
    197          

   \                                 In segment CODE, align 4, keep-with-next
    198          static int findtimercb(void* listitem, void* itemtofind)
    199          {
    200          	return ! (listitem==itemtofind);
   \                     ??findtimercb:
   \   00000000   010050E1           CMP      R0,R1
   \   00000004   0100A013           MOVNE    R0,#+1
   \   00000008   1EFF2F11           BXNE     LR
   \   0000000C   0000A0E3           MOV      R0,#+0
   \   00000010   1EFF2FE1           BX       LR               ;; return
    201          }
    202          

   \                                 In segment CODE, align 4, keep-with-next
    203          void trace_timerkill(u16* timerid)
    204          {
    205          	int idx=__original_List_Find(buffers2[trace_list_timers_id],(void*)*timerid,findtimercb);
   \                     ??trace_timerkill:
   \   00000000   ........           LDR      R2,??DataTable6  ;; ??findtimercb
   \   00000004   70402DE9           PUSH     {R4-R6,LR}
   \   00000008   ........           LDR      R5,??DataTable11  ;; buffers
   \   0000000C   0040A0E1           MOV      R4,R0
   \   00000010   440095E5           LDR      R0,[R5, #+68]
   \   00000014   B010D4E1           LDRH     R1,[R4, #+0]
   \   00000018   AC0100EF           SWI      +428
   \   0000001C   0060A0E1           MOV      R6,R0
    206          	if(idx!=LIST_ERROR)
   \   00000020   FF00A0E3           MOV      R0,#+255
   \   00000024   FF0C80E3           ORR      R0,R0,#0xFF00
   \   00000028   000056E1           CMP      R6,R0
   \   0000002C   0500000A           BEQ      ??trace_timerkill_1
    207          	{
    208          		__original_List_RemoveAt(buffers2[trace_list_timers_id],idx);
   \   00000030   440095E5           LDR      R0,[R5, #+68]
   \   00000034   0610A0E1           MOV      R1,R6
   \   00000038   790100EF           SWI      +377
    209          		__original_List_RemoveAt(buffers2[trace_list_timers_proc],idx);		
   \   0000003C   480095E5           LDR      R0,[R5, #+72]
   \   00000040   0610A0E1           MOV      R1,R6
   \   00000044   790100EF           SWI      +377
    210          	}
    211          	__original_Timer_Kill(timerid);
   \                     ??trace_timerkill_1:
   \   00000048   0400A0E1           MOV      R0,R4
   \   0000004C   2A0100EF           SWI      +298
    212          }
   \   00000050   7080BDE8           POP      {R4-R6,PC}       ;; return
    213          

   \                                 In segment CODE, align 4, keep-with-next
    214          static void trace_onTimer(u16 timerID,LPARAM lparam)
    215          {
    216          	int idx=__original_List_Find(buffers2[trace_list_timers_id],(void*)timerID,findtimercb);
   \                     ??trace_onTimer:
   \   00000000   ........           LDR      R2,??DataTable6  ;; ??findtimercb
   \   00000004   31402DE9           PUSH     {R0,R4,R5,LR}
   \   00000008   ........           LDR      R5,??DataTable11  ;; buffers
   \   0000000C   0140A0E1           MOV      R4,R1
   \   00000010   0010A0E1           MOV      R1,R0
   \   00000014   440095E5           LDR      R0,[R5, #+68]
   \   00000018   AC0100EF           SWI      +428
    217          	if(idx!=LIST_ERROR)
   \   0000001C   FF10A0E3           MOV      R1,#+255
   \   00000020   FF1C81E3           ORR      R1,R1,#0xFF00
   \   00000024   010050E1           CMP      R0,R1
   \   00000028   3180BD08           POPEQ    {R0,R4,R5,PC}
    218          	{
    219          		void(*onTimer)(u16,LPARAM)=(void(*)(u16,LPARAM))__original_List_Get(buffers2[trace_list_timers_proc],idx);
   \   0000002C   0010A0E1           MOV      R1,R0
   \   00000030   480095E5           LDR      R0,[R5, #+72]
   \   00000034   AD0100EF           SWI      +429
   \   00000038   0020A0E1           MOV      R2,R0
    220          		onTimer(timerID,lparam);
   \   0000003C   B000DDE1           LDRH     R0,[SP, #+0]
   \   00000040   0410A0E1           MOV      R1,R4
   \   00000044   32FF2FE1           BLX      R2
    221          		trace_timerkill(&timerID);
   \   00000048   0D00A0E1           MOV      R0,SP
   \   0000004C   ........           BL       ??trace_timerkill
    222          	}
    223          }
   \   00000050   3180BDE8           POP      {R0,R4,R5,PC}    ;; return
    224          

   \                                 In segment CODE, align 4, keep-with-next
    225          u16 trace_timerset(int time, void(*onTimer)(u16 timerID,LPARAM lparam), LPARAM lparam)
    226          {
   \                     ??trace_timerset:
   \   00000000   70402DE9           PUSH     {R4-R6,LR}
   \   00000004   0140A0E1           MOV      R4,R1
    227          	u16 ret=__original_Timer_Set(time,trace_onTimer,lparam);
   \   00000008   2C109FE5           LDR      R1,??trace_timerset_1  ;; ??trace_onTimer
   \   0000000C   290100EF           SWI      +297
   \   00000010   0050B0E1           MOVS     R5,R0
    228          	if(ret)
   \   00000014   0600000A           BEQ      ??trace_timerset_2
    229          	{
    230          		__original_List_InsertLast(buffers2[trace_list_timers_id],(void*)ret);
   \   00000018   ........           LDR      R6,??DataTable11  ;; buffers
   \   0000001C   0510A0E1           MOV      R1,R5
   \   00000020   440096E5           LDR      R0,[R6, #+68]
   \   00000024   B00100EF           SWI      +432
    231          		__original_List_InsertLast(buffers2[trace_list_timers_proc],(void*)onTimer);
   \   00000028   480096E5           LDR      R0,[R6, #+72]
   \   0000002C   0410A0E1           MOV      R1,R4
   \   00000030   B00100EF           SWI      +432
    232          	}
    233          	return ret;
   \                     ??trace_timerset_2:
   \   00000034   0500A0E1           MOV      R0,R5
   \   00000038   7080BDE8           POP      {R4-R6,PC}       ;; return
   \                     ??trace_timerset_1:
   \   0000003C   ........           DC32     ??trace_onTimer
    234          }
    235          
    236          

   \                                 In segment CODE, align 4, keep-with-next
    237          bool isallocatedstrid(TEXTID strid)
    238          {
    239          	return (strid!=EMPTY_TEXTID) && ((strid&0xFFFF0000)!=0);
   \                     ??isallocatedstrid:
   \   00000000   9014E0E3           MVN      R1,#-1879048192
   \   00000004   010050E1           CMP      R0,R1
   \   00000008   0400000A           BEQ      ??isallocatedstrid_1
   \   0000000C   2008A0E1           LSR      R0,R0,#+16
   \   00000010   0008B0E1           LSLS     R0,R0,#+16
   \   00000014   1EFF2F01           BXEQ     LR
   \   00000018   0100A0E3           MOV      R0,#+1
   \   0000001C   1EFF2FE1           BX       LR
   \                     ??isallocatedstrid_1:
   \   00000020   0000A0E3           MOV      R0,#+0
   \   00000024   1EFF2FE1           BX       LR               ;; return
    240          }
    241          

   \                                 In segment CODE, align 4, keep-with-next
    242          bool isallocatediconid(IMAGEID iconid)
    243          {
    244          	return iconid >= iconid_start && iconid <= iconid_end;
   \                     ??isallocatediconid:
   \   00000000   ........           LDR      R1,??DataTable11  ;; buffers
   \   00000004   982091E5           LDR      R2,[R1, #+152]
   \   00000008   020050E1           CMP      R0,R2
   \   0000000C   9C1091A5           LDRGE    R1,[R1, #+156]
   \   00000010   000051A1           CMPGE    R1,R0
   \   00000014   0100A0A3           MOVGE    R0,#+1
   \   00000018   1EFF2FA1           BXGE     LR
   \   0000001C   0000A0E3           MOV      R0,#+0
   \   00000020   1EFF2FE1           BX       LR               ;; return
    245          }
    246          
    247          

   \                                 In segment CODE, align 4, keep-with-next
    248          void __deleaker_pushfileline( const char* __file__, int __line__ )
    249          {
   \                     ??__deleaker_pushfileline:
   \   00000000   30402DE9           PUSH     {R4,R5,LR}
    250          	__original_List_InsertLast(buffers2[trace_list_file],(void*)__file__);
   \   00000004   ........           LDR      R5,??DataTable11  ;; buffers
   \   00000008   0140A0E1           MOV      R4,R1
   \   0000000C   0010A0E1           MOV      R1,R0
   \   00000010   4C0095E5           LDR      R0,[R5, #+76]
   \   00000014   B00100EF           SWI      +432
    251          	__original_List_InsertLast(buffers2[trace_list_line],(void*)__line__);
   \   00000018   500095E5           LDR      R0,[R5, #+80]
   \   0000001C   0410A0E1           MOV      R1,R4
   \   00000020   B00100EF           SWI      +432
    252          }
   \   00000024   3080BDE8           POP      {R4,R5,PC}       ;; return
    253          

   \                                 In segment CODE, align 4, keep-with-next
    254          void __deleaker_popfileline( const char*& __file__, int& __line__ )
    255          {
   \                     ??__deleaker_popfileline:
   \   00000000   70402DE9           PUSH     {R4-R6,LR}
    256          	if(0==buffers2[trace_list_file]->FirstFree)
   \   00000004   ........           LDR      R6,??DataTable11  ;; buffers
   \   00000008   0050A0E1           MOV      R5,R0
   \   0000000C   4C0096E5           LDR      R0,[R6, #+76]
   \   00000010   0140A0E1           MOV      R4,R1
   \   00000014   B210D0E1           LDRH     R1,[R0, #+2]
   \   00000018   000051E3           CMP      R1,#+0
   \   0000001C   0400001A           BNE      ??__deleaker_popfileline_1
    257          	{
    258          		__file__="internal error";
   \   00000020   30009FE5           LDR      R0,??__deleaker_popfileline_2  ;; `?<Constant "internal error">`
   \   00000024   000085E5           STR      R0,[R5, #+0]
    259          		__line__=-1;
   \   00000028   0000E0E3           MVN      R0,#+0
   \   0000002C   000084E5           STR      R0,[R4, #+0]
   \   00000030   7080BDE8           POP      {R4-R6,PC}
    260          	}else
    261          	{
    262          		__file__=(char const*)__original_List_RemoveAt(buffers2[trace_list_file],buffers2[trace_list_file]->FirstFree-1);
   \                     ??__deleaker_popfileline_1:
   \   00000034   011041E2           SUB      R1,R1,#+1
   \   00000038   790100EF           SWI      +377
   \   0000003C   000085E5           STR      R0,[R5, #+0]
    263          		__line__=(int)__original_List_RemoveAt(buffers2[trace_list_line],buffers2[trace_list_line]->FirstFree-1);
   \   00000040   500096E5           LDR      R0,[R6, #+80]
   \   00000044   B210D0E1           LDRH     R1,[R0, #+2]
   \   00000048   011041E2           SUB      R1,R1,#+1
   \   0000004C   790100EF           SWI      +377
   \   00000050   000084E5           STR      R0,[R4, #+0]
    264          	}
    265          }
   \   00000054   7080BDE8           POP      {R4-R6,PC}       ;; return
   \                     ??__deleaker_popfileline_2:
   \   00000058   ........           DC32     `?<Constant "internal error">`
    266          

   \                                 In segment CODE, align 4, keep-with-next
    267          void operator delete(void* p)
    268          { 
   \                     `??operator delete`:
   \   00000000   10402DE9           PUSH     {R4,LR}
   \   00000004   08D04DE2           SUB      SP,SP,#+8
    269          	const char* file;
    270          	int line;
    271          	__deleaker_popfileline(file,line);
   \   00000008   04108DE2           ADD      R1,SP,#+4
   \   0000000C   0040A0E1           MOV      R4,R0
   \   00000010   0D00A0E1           MOV      R0,SP
   \   00000014   ........           BL       ??__deleaker_popfileline
    272          	__deleaker_mfree( file, line, p );
   \   00000018   04109DE5           LDR      R1,[SP, #+4]
   \   0000001C   00009DE5           LDR      R0,[SP, #+0]
   \   00000020   0420A0E1           MOV      R2,R4
   \   00000024   ........           BL       ??__deleaker_mfree
    273          }
   \   00000028   1380BDE8           POP      {R0,R1,R4,PC}    ;; return
    274          

   \                                 In segment CODE, align 4, keep-with-next
    275          void operator delete[](void* p)
    276          {
   \                     `??operator delete[]`:
   \   00000000   10402DE9           PUSH     {R4,LR}
   \   00000004   08D04DE2           SUB      SP,SP,#+8
    277          	const char* file;
    278          	int line;
    279          	__deleaker_popfileline(file,line);
   \   00000008   04108DE2           ADD      R1,SP,#+4
   \   0000000C   0040A0E1           MOV      R4,R0
   \   00000010   0D00A0E1           MOV      R0,SP
   \   00000014   ........           BL       ??__deleaker_popfileline
    280          	__deleaker_mfree( file, line, p );
   \   00000018   04109DE5           LDR      R1,[SP, #+4]
   \   0000001C   00009DE5           LDR      R0,[SP, #+0]
   \   00000020   0420A0E1           MOV      R2,R4
   \   00000024   ........           BL       ??__deleaker_mfree
    281          }
   \   00000028   1380BDE8           POP      {R0,R1,R4,PC}    ;; return
    282          

   \                                 In segment CODE, align 4, keep-with-next
    283          void* operator new(size_t sz)
    284          {
   \                     `??operator new`:
   \   00000000   10402DE9           PUSH     {R4,LR}
   \   00000004   08D04DE2           SUB      SP,SP,#+8
    285          	const char* file;
    286          	int line;
    287          	__deleaker_popfileline(file,line);
   \   00000008   04108DE2           ADD      R1,SP,#+4
   \   0000000C   0040A0E1           MOV      R4,R0
   \   00000010   0D00A0E1           MOV      R0,SP
   \   00000014   ........           BL       ??__deleaker_popfileline
    288          	return __deleaker_malloc( file, line, sz);
   \   00000018   04109DE5           LDR      R1,[SP, #+4]
   \   0000001C   00009DE5           LDR      R0,[SP, #+0]
   \   00000020   0420A0E1           MOV      R2,R4
   \   00000024   ........           BL       ??__deleaker_malloc
   \   00000028   1680BDE8           POP      {R1,R2,R4,PC}    ;; return
    289          };
    290          

   \                                 In segment CODE, align 4, keep-with-next
    291          void* operator new[](size_t sz)
    292          {
   \                     `??operator new[]`:
   \   00000000   10402DE9           PUSH     {R4,LR}
   \   00000004   08D04DE2           SUB      SP,SP,#+8
    293          	const char* file;
    294          	int line;
    295          	__deleaker_popfileline(file,line);
   \   00000008   04108DE2           ADD      R1,SP,#+4
   \   0000000C   0040A0E1           MOV      R4,R0
   \   00000010   0D00A0E1           MOV      R0,SP
   \   00000014   ........           BL       ??__deleaker_popfileline
    296          	return __deleaker_malloc( file, line, sz);
   \   00000018   04109DE5           LDR      R1,[SP, #+4]
   \   0000001C   00009DE5           LDR      R0,[SP, #+0]
   \   00000020   0420A0E1           MOV      R2,R4
   \   00000024   ........           BL       ??__deleaker_malloc
   \   00000028   1680BDE8           POP      {R1,R2,R4,PC}    ;; return
    297          };
    298          

   \                                 In segment CODE, align 4, keep-with-next
    299          void operator delete (void*, void*)
    300          {
   \                     `??operator delete_1`:
   \   00000000   00402DE9           PUSH     {LR}
   \   00000004   08D04DE2           SUB      SP,SP,#+8
    301          	const char* file;
    302          	int line;
    303          	__deleaker_popfileline(file,line);
   \   00000008   04108DE2           ADD      R1,SP,#+4
   \   0000000C   0D00A0E1           MOV      R0,SP
   \   00000010   ........           BL       ??__deleaker_popfileline
    304          }
   \   00000014   0380BDE8           POP      {R0,R1,PC}       ;; return
    305          

   \                                 In segment CODE, align 4, keep-with-next
    306          void operator delete[] (void*, void*)
    307          {
   \                     `??operator delete[]_1`:
   \   00000000   00402DE9           PUSH     {LR}
   \   00000004   08D04DE2           SUB      SP,SP,#+8
    308          	const char* file;
    309          	int line;
    310          	__deleaker_popfileline(file,line);
   \   00000008   04108DE2           ADD      R1,SP,#+4
   \   0000000C   0D00A0E1           MOV      R0,SP
   \   00000010   ........           BL       ??__deleaker_popfileline
    311          }
   \   00000014   0380BDE8           POP      {R0,R1,PC}       ;; return
    312          

   \                                 In segment CODE, align 4, keep-with-next
    313          void* operator new(size_t size, void* p)
    314          {
   \                     `??operator new_1`:
   \   00000000   10402DE9           PUSH     {R4,LR}
   \   00000004   08D04DE2           SUB      SP,SP,#+8
    315          	const char* file;
    316          	int line;
    317          	__deleaker_popfileline(file,line);
   \   00000008   0D00A0E1           MOV      R0,SP
   \   0000000C   0140A0E1           MOV      R4,R1
   \   00000010   04108DE2           ADD      R1,SP,#+4
   \   00000014   ........           BL       ??__deleaker_popfileline
    318          	return p;
   \   00000018   0400A0E1           MOV      R0,R4
   \   0000001C   1680BDE8           POP      {R1,R2,R4,PC}    ;; return
    319          }
    320          

   \                                 In segment CODE, align 4, keep-with-next
    321          void* operator new[](size_t size, void* p)
    322          {
   \                     `??operator new[]_1`:
   \   00000000   10402DE9           PUSH     {R4,LR}
   \   00000004   08D04DE2           SUB      SP,SP,#+8
    323          	const char* file;
    324          	int line;
    325          	__deleaker_popfileline(file,line);
   \   00000008   0D00A0E1           MOV      R0,SP
   \   0000000C   0140A0E1           MOV      R4,R1
   \   00000010   04108DE2           ADD      R1,SP,#+4
   \   00000014   ........           BL       ??__deleaker_popfileline
    326          	return p;
   \   00000018   0400A0E1           MOV      R0,R4
   \   0000001C   1680BDE8           POP      {R1,R2,R4,PC}    ;; return
    327          }
    328          
    329          //---------------------------------------------------------------------------
    330          
    331          
    332          
    333          
    334          

   \                                 In segment CODE, align 4, keep-with-next
    335          void* __deleaker_malloc( const char* __file__, int __line__, int size )
    336          {
   \                     ??__deleaker_malloc:
   \   00000000   70402DE9           PUSH     {R4-R6,LR}
   \   00000004   0040A0E1           MOV      R4,R0
   \   00000008   0150A0E1           MOV      R5,R1
   \   0000000C   0200A0E1           MOV      R0,R2
    337          	void* ret = __original_malloc(size);
   \   00000010   030100EF           SWI      +259
   \   00000014   0060B0E1           MOVS     R6,R0
    338          	if(ret)trace_alloc(trace_memory, (void*)ret, __file__, __line__);
   \   00000018   0400000A           BEQ      ??__deleaker_malloc_1
   \   0000001C   0530A0E1           MOV      R3,R5
   \   00000020   0420A0E1           MOV      R2,R4
   \   00000024   0610A0E1           MOV      R1,R6
   \   00000028   0000A0E3           MOV      R0,#+0
   \   0000002C   ........           BL       ??trace_alloc
    339          	return ret;
   \                     ??__deleaker_malloc_1:
   \   00000030   0600A0E1           MOV      R0,R6
   \   00000034   7080BDE8           POP      {R4-R6,PC}       ;; return
    340          }
    341          

   \                                 In segment CODE, align 4, keep-with-next
    342          void mfree_(void* p)
    343          {
    344          	mfree(p);
   \                     ??mfree_:
   \   00000000   0020A0E1           MOV      R2,R0
   \   00000004   04009FE5           LDR      R0,??mfree__1    ;; `?<Constant "C:\\\\Users\\\\Faby\\\\Desktop...">`
   \   00000008   561FA0E3           MOV      R1,#+344
   \   0000000C   ........           B        ??__deleaker_mfree  ;; tailcall
   \                     ??mfree__1:
   \   00000010   ........           DC32     `?<Constant "C:\\\\Users\\\\Faby\\\\Desktop...">`
    345          }
    346          

   \                                 In segment CODE, align 4, keep-with-next
    347          void* __deleaker_mfree_adr( const char* __file__, int __line__ )
    348          {
    349          	return (void*)mfree_;
   \                     ??__deleaker_mfree_adr:
   \   00000000   00009FE5           LDR      R0,??__deleaker_mfree_adr_1  ;; ??mfree_
   \   00000004   1EFF2FE1           BX       LR               ;; return
   \                     ??__deleaker_mfree_adr_1:
   \   00000008   ........           DC32     ??mfree_
    350          }
    351          

   \                                 In segment CODE, align 4, keep-with-next
    352          void __deleaker_mfree( const char* __file__, int __line__, void* p )
    353          {
   \                     ??__deleaker_mfree:
   \   00000000   10402DE9           PUSH     {R4,LR}
    354          	trace_free(trace_memory, p, __file__, __line__);
   \   00000004   0130A0E1           MOV      R3,R1
   \   00000008   0240A0E1           MOV      R4,R2
   \   0000000C   0020A0E1           MOV      R2,R0
   \   00000010   0410A0E1           MOV      R1,R4
   \   00000014   0000A0E3           MOV      R0,#+0
   \   00000018   ........           BL       ??trace_free
    355          	__original_mfree(p);
   \   0000001C   0400A0E1           MOV      R0,R4
   \   00000020   040100EF           SWI      +260
    356          }
   \   00000024   1080BDE8           POP      {R4,PC}          ;; return
    357          

   \                                 In segment CODE, align 4, keep-with-next
    358          int __deleaker_CreateBook( const char* __file__, int __line__, BOOK* pbook, void (*onClose)( BOOK* ), const PAGE_DESC* bp, const char* name, int ParentBookID, APP_DESC* __unknwnargname6 )
    359          {
   \                     ??__deleaker_CreateBook:
   \   00000000   F04F2DE9           PUSH     {R4-R11,LR}
   \   00000004   24809DE5           LDR      R8,[SP, #+36]
   \   00000008   28909DE5           LDR      R9,[SP, #+40]
   \   0000000C   2CA09DE5           LDR      R10,[SP, #+44]
   \   00000010   30B09DE5           LDR      R11,[SP, #+48]
   \   00000014   0040A0E1           MOV      R4,R0
   \   00000018   0150A0E1           MOV      R5,R1
   \   0000001C   0260A0E1           MOV      R6,R2
   \   00000020   0370A0E1           MOV      R7,R3
    360          	trace_free(trace_memory, pbook, __file__, __line__);
   \   00000024   0530A0E1           MOV      R3,R5
   \   00000028   0420A0E1           MOV      R2,R4
   \   0000002C   0610A0E1           MOV      R1,R6
   \   00000030   0000A0E3           MOV      R0,#+0
   \   00000034   ........           BL       ??trace_free
    361          	trace_alloc(trace_book, pbook, __file__, __line__);
   \   00000038   0530A0E1           MOV      R3,R5
   \   0000003C   0420A0E1           MOV      R2,R4
   \   00000040   0610A0E1           MOV      R1,R6
   \   00000044   0A00A0E3           MOV      R0,#+10
   \   00000048   ........           BL       ??trace_alloc
    362          	return __original_CreateBook(pbook, onClose, bp, name, ParentBookID, __unknwnargname6);
   \   0000004C   00082DE9           PUSH     {R11}
   \   00000050   00042DE9           PUSH     {R10}
   \   00000054   0930A0E1           MOV      R3,R9
   \   00000058   0820A0E1           MOV      R2,R8
   \   0000005C   0710A0E1           MOV      R1,R7
   \   00000060   0600A0E1           MOV      R0,R6
   \   00000064   2B0100EF           SWI      +299
   \   00000068   F68FBDE8           POP      {R1,R2,R4-R11,PC}  ;; return
    363          }
    364          

   \                                 In segment CODE, align 4, keep-with-next
    365          void __deleaker_FreeBook( const char* __file__, int __line__, BOOK* book )
    366          {
   \                     ??__deleaker_FreeBook:
   \   00000000   10402DE9           PUSH     {R4,LR}
    367          	trace_free(trace_book, book, __file__, __line__);
   \   00000004   0130A0E1           MOV      R3,R1
   \   00000008   0240A0E1           MOV      R4,R2
   \   0000000C   0020A0E1           MOV      R2,R0
   \   00000010   0410A0E1           MOV      R1,R4
   \   00000014   0A00A0E3           MOV      R0,#+10
   \   00000018   ........           BL       ??trace_free
    368          	__original_FreeBook(book);
   \   0000001C   0400A0E1           MOV      R0,R4
   \   00000020   2F0100EF           SWI      +303
    369          }
   \   00000024   1080BDE8           POP      {R4,PC}          ;; return
    370          

   \                                 In segment CODE, align 4, keep-with-next
    371          void __deleaker_BookObj_KillBook( const char* __file__, int __line__, BOOK* book )
    372          {
   \                     ??__deleaker_BookObj_KillBook:
   \   00000000   10402DE9           PUSH     {R4,LR}
    373          	trace_free(trace_book, book, __file__, __line__);
   \   00000004   0130A0E1           MOV      R3,R1
   \   00000008   0240A0E1           MOV      R4,R2
   \   0000000C   0020A0E1           MOV      R2,R0
   \   00000010   0410A0E1           MOV      R1,R4
   \   00000014   0A00A0E3           MOV      R0,#+10
   \   00000018   ........           BL       ??trace_free
    374          	__original_BookObj_KillBook(book);
   \   0000001C   0400A0E1           MOV      R0,R4
   \   00000020   2C0100EF           SWI      +300
    375          }
   \   00000024   1080BDE8           POP      {R4,PC}          ;; return
    376          

   \                                 In segment CODE, align 4, keep-with-next
    377          LIST* __deleaker_List_Create( const char* __file__, int __line__ )
    378          {
   \                     ??__deleaker_List_Create:
   \   00000000   70402DE9           PUSH     {R4-R6,LR}
   \   00000004   0040A0E1           MOV      R4,R0
   \   00000008   0150A0E1           MOV      R5,R1
    379          	LIST* ret = __original_List_Create();
   \   0000000C   690100EF           SWI      +361
   \   00000010   0060B0E1           MOVS     R6,R0
    380          	if(ret)trace_alloc(trace_memory, (void*)ret, __file__, __line__);
   \   00000014   0400000A           BEQ      ??__deleaker_List_Create_1
   \   00000018   0530A0E1           MOV      R3,R5
   \   0000001C   0420A0E1           MOV      R2,R4
   \   00000020   0610A0E1           MOV      R1,R6
   \   00000024   0000A0E3           MOV      R0,#+0
   \   00000028   ........           BL       ??trace_alloc
    381          	return ret;
   \                     ??__deleaker_List_Create_1:
   \   0000002C   0600A0E1           MOV      R0,R6
   \   00000030   7080BDE8           POP      {R4-R6,PC}       ;; return
    382          }
    383          

   \                                 In segment CODE, align 4, keep-with-next
    384          void __deleaker_List_Destroy( const char* __file__, int __line__, LIST* lst )
    385          {
   \                     ??__deleaker_List_Destroy:
   \   00000000   10402DE9           PUSH     {R4,LR}
    386          	trace_free(trace_memory, lst, __file__, __line__);
   \   00000004   0130A0E1           MOV      R3,R1
   \   00000008   0240A0E1           MOV      R4,R2
   \   0000000C   0020A0E1           MOV      R2,R0
   \   00000010   0410A0E1           MOV      R1,R4
   \   00000014   0000A0E3           MOV      R0,#+0
   \   00000018   ........           BL       ??trace_free
    387          	__original_List_Destroy(lst);
   \   0000001C   0400A0E1           MOV      R0,R4
   \   00000020   6A0100EF           SWI      +362
    388          }
   \   00000024   1080BDE8           POP      {R4,PC}          ;; return
    389          

   \                                 In segment CODE, align 4, keep-with-next
    390          char* __deleaker_manifest_GetParam( const char* __file__, int __line__, const char* buf, const char* param_name, int unk )
    391          {
   \                     ??__deleaker_manifest_GetParam:
   \   00000000   70402DE9           PUSH     {R4-R6,LR}
   \   00000004   0040A0E1           MOV      R4,R0
   \   00000008   0150A0E1           MOV      R5,R1
   \   0000000C   0200A0E1           MOV      R0,R2
   \   00000010   10209DE5           LDR      R2,[SP, #+16]
   \   00000014   0310A0E1           MOV      R1,R3
    392          	char* ret = __original_manifest_GetParam(buf, param_name, unk);
   \   00000018   750100EF           SWI      +373
   \   0000001C   0060B0E1           MOVS     R6,R0
    393          	if(ret)trace_alloc(trace_memory, (void*)ret, __file__, __line__);
   \   00000020   0400000A           BEQ      ??__deleaker_manifest_GetParam_1
   \   00000024   0530A0E1           MOV      R3,R5
   \   00000028   0420A0E1           MOV      R2,R4
   \   0000002C   0610A0E1           MOV      R1,R6
   \   00000030   0000A0E3           MOV      R0,#+0
   \   00000034   ........           BL       ??trace_alloc
    394          	return ret;
   \                     ??__deleaker_manifest_GetParam_1:
   \   00000038   0600A0E1           MOV      R0,R6
   \   0000003C   7080BDE8           POP      {R4-R6,PC}       ;; return
    395          }
    396          

   \                                 In segment CODE, align 4, keep-with-next
    397          DIR_HANDLE* __deleaker_AllocDirHandle( const char* __file__, int __line__, const wchar_t* path )
    398          {
   \                     ??__deleaker_AllocDirHandle:
   \   00000000   70402DE9           PUSH     {R4-R6,LR}
   \   00000004   0040A0E1           MOV      R4,R0
   \   00000008   0150A0E1           MOV      R5,R1
   \   0000000C   0200A0E1           MOV      R0,R2
    399          	DIR_HANDLE* ret = __original_AllocDirHandle(path);
   \   00000010   1D0100EF           SWI      +285
   \   00000014   0060B0E1           MOVS     R6,R0
    400          	if(ret)trace_alloc(trace_memory, (void*)ret, __file__, __line__);
   \   00000018   0400000A           BEQ      ??__deleaker_AllocDirHandle_1
   \   0000001C   0530A0E1           MOV      R3,R5
   \   00000020   0420A0E1           MOV      R2,R4
   \   00000024   0610A0E1           MOV      R1,R6
   \   00000028   0000A0E3           MOV      R0,#+0
   \   0000002C   ........           BL       ??trace_alloc
    401          	return ret;
   \                     ??__deleaker_AllocDirHandle_1:
   \   00000030   0600A0E1           MOV      R0,R6
   \   00000034   7080BDE8           POP      {R4-R6,PC}       ;; return
    402          }
    403          

   \                                 In segment CODE, align 4, keep-with-next
    404          void __deleaker_DestroyDirHandle( const char* __file__, int __line__, DIR_HANDLE* handle )
    405          {
   \                     ??__deleaker_DestroyDirHandle:
   \   00000000   10402DE9           PUSH     {R4,LR}
    406          	trace_free(trace_memory, handle, __file__, __line__);
   \   00000004   0130A0E1           MOV      R3,R1
   \   00000008   0240A0E1           MOV      R4,R2
   \   0000000C   0020A0E1           MOV      R2,R0
   \   00000010   0410A0E1           MOV      R1,R4
   \   00000014   0000A0E3           MOV      R0,#+0
   \   00000018   ........           BL       ??trace_free
    407          	__original_DestroyDirHandle(handle);
   \   0000001C   0400A0E1           MOV      R0,R4
   \   00000020   540200EF           SWI      +596
    408          }
   \   00000024   1080BDE8           POP      {R4,PC}          ;; return
    409          

   \                                 In segment CODE, align 4, keep-with-next
    410          int __deleaker_GUIObject_Create( const char* __file__, int __line__, GUI* __unknwnargname1, void (*GuiDestroy)( GUI* ), void (*DispDescCreate)( DISP_DESC* ), BOOK* __unknwnargname4, void (*DispObjCallBack)( DISP_OBJ*, void* msg, GUI* ), int display, int size_of_gui )
    411          {
   \                     ??__deleaker_GUIObject_Create:
   \   00000000   F84F2DE9           PUSH     {R3-R11,LR}
   \   00000004   28709DE5           LDR      R7,[SP, #+40]
   \   00000008   2C809DE5           LDR      R8,[SP, #+44]
   \   0000000C   30909DE5           LDR      R9,[SP, #+48]
   \   00000010   34A09DE5           LDR      R10,[SP, #+52]
   \   00000014   38B09DE5           LDR      R11,[SP, #+56]
   \   00000018   0040A0E1           MOV      R4,R0
   \   0000001C   0150A0E1           MOV      R5,R1
   \   00000020   0260A0E1           MOV      R6,R2
    412          	trace_free(trace_memory, __unknwnargname1, __file__, __line__);
   \   00000024   0530A0E1           MOV      R3,R5
   \   00000028   0420A0E1           MOV      R2,R4
   \   0000002C   0610A0E1           MOV      R1,R6
   \   00000030   0000A0E3           MOV      R0,#+0
   \   00000034   ........           BL       ??trace_free
    413          	trace_alloc(trace_gui, __unknwnargname1, __file__, __line__);
   \   00000038   0530A0E1           MOV      R3,R5
   \   0000003C   0420A0E1           MOV      R2,R4
   \   00000040   0610A0E1           MOV      R1,R6
   \   00000044   0900A0E3           MOV      R0,#+9
   \   00000048   ........           BL       ??trace_alloc
    414          	return __original_GUIObject_Create(__unknwnargname1, GuiDestroy, DispDescCreate, __unknwnargname4, DispObjCallBack, display, size_of_gui);
   \   0000004C   00082DE9           PUSH     {R11}
   \   00000050   00042DE9           PUSH     {R10}
   \   00000054   00022DE9           PUSH     {R9}
   \   00000058   0C109DE5           LDR      R1,[SP, #+12]
   \   0000005C   0830A0E1           MOV      R3,R8
   \   00000060   0720A0E1           MOV      R2,R7
   \   00000064   0600A0E1           MOV      R0,R6
   \   00000068   F00100EF           SWI      +496
   \   0000006C   10D08DE2           ADD      SP,SP,#+16
   \   00000070   F08FBDE8           POP      {R4-R11,PC}      ;; return
    415          }
    416          

   \                                 In segment CODE, align 4, keep-with-next
    417          GUI* __deleaker_GUIObject_Destroy( const char* __file__, int __line__, GUI* __unknwnargname1 )
    418          {
   \                     ??__deleaker_GUIObject_Destroy:
   \   00000000   10402DE9           PUSH     {R4,LR}
    419          	trace_free(trace_gui, __unknwnargname1, __file__, __line__);
   \   00000004   0130A0E1           MOV      R3,R1
   \   00000008   0240A0E1           MOV      R4,R2
   \   0000000C   0020A0E1           MOV      R2,R0
   \   00000010   0410A0E1           MOV      R1,R4
   \   00000014   0900A0E3           MOV      R0,#+9
   \   00000018   ........           BL       ??trace_free
    420          	return __original_GUIObject_Destroy(__unknwnargname1);
   \   0000001C   0400A0E1           MOV      R0,R4
   \   00000020   CE0100EF           SWI      +462
   \   00000024   1080BDE8           POP      {R4,PC}          ;; return
    421          }
    422          

   \                                 In segment CODE, align 4, keep-with-next
    423          int __deleaker__fopen( const char* __file__, int __line__, const wchar_t* filpath, const wchar_t* filname, unsigned int mode, unsigned int rights, FILELISTITEM* destfname )
    424          {
   \                     ??__deleaker__fopen:
   \   00000000   70402DE9           PUSH     {R4-R6,LR}
   \   00000004   18C09DE5           LDR      R12,[SP, #+24]
   \   00000008   0040A0E1           MOV      R4,R0
   \   0000000C   0150A0E1           MOV      R5,R1
   \   00000010   0200A0E1           MOV      R0,R2
   \   00000014   10209DE5           LDR      R2,[SP, #+16]
   \   00000018   0310A0E1           MOV      R1,R3
   \   0000001C   14309DE5           LDR      R3,[SP, #+20]
    425          	int ret = __original__fopen(filpath, filname, mode, rights, destfname);
   \   00000020   00102DE9           PUSH     {R12}
   \   00000024   160100EF           SWI      +278
   \   00000028   0060A0E1           MOV      R6,R0
    426          	if(ret!=-1)trace_alloc(trace_file, (void*)ret, __file__, __line__);
   \   0000002C   010076E3           CMN      R6,#+1
   \   00000030   04D08DE2           ADD      SP,SP,#+4
   \   00000034   0400000A           BEQ      ??__deleaker__fopen_1
   \   00000038   0530A0E1           MOV      R3,R5
   \   0000003C   0420A0E1           MOV      R2,R4
   \   00000040   0610A0E1           MOV      R1,R6
   \   00000044   0400A0E3           MOV      R0,#+4
   \   00000048   ........           BL       ??trace_alloc
    427          	return ret;
   \                     ??__deleaker__fopen_1:
   \   0000004C   0600A0E1           MOV      R0,R6
   \   00000050   7080BDE8           POP      {R4-R6,PC}       ;; return
    428          }
    429          

   \                                 In segment CODE, align 4, keep-with-next
    430          int __deleaker_fopen( const char* __file__, int __line__, const wchar_t* fname, int mode, int rights )
    431          {
   \                     ??__deleaker_fopen:
   \   00000000   70402DE9           PUSH     {R4-R6,LR}
   \   00000004   0040A0E1           MOV      R4,R0
   \   00000008   0150A0E1           MOV      R5,R1
   \   0000000C   0200A0E1           MOV      R0,R2
   \   00000010   10209DE5           LDR      R2,[SP, #+16]
   \   00000014   0310A0E1           MOV      R1,R3
    432          	int ret = __original_fopen(fname, mode, rights);
   \   00000018   060100EF           SWI      +262
   \   0000001C   0060A0E1           MOV      R6,R0
    433          	if(ret!=-1)trace_alloc(trace_file, (void*)ret, __file__, __line__);
   \   00000020   010076E3           CMN      R6,#+1
   \   00000024   0400000A           BEQ      ??__deleaker_fopen_1
   \   00000028   0530A0E1           MOV      R3,R5
   \   0000002C   0420A0E1           MOV      R2,R4
   \   00000030   0610A0E1           MOV      R1,R6
   \   00000034   0400A0E3           MOV      R0,#+4
   \   00000038   ........           BL       ??trace_alloc
    434          	return ret;
   \                     ??__deleaker_fopen_1:
   \   0000003C   0600A0E1           MOV      R0,R6
   \   00000040   7080BDE8           POP      {R4-R6,PC}       ;; return
    435          }
    436          

   \                                 In segment CODE, align 4, keep-with-next
    437          int __deleaker_fclose( const char* __file__, int __line__, int file )
    438          {
   \                     ??__deleaker_fclose:
   \   00000000   10402DE9           PUSH     {R4,LR}
    439          	trace_free(trace_file, (void*)file, __file__, __line__);
   \   00000004   0130A0E1           MOV      R3,R1
   \   00000008   0240A0E1           MOV      R4,R2
   \   0000000C   0020A0E1           MOV      R2,R0
   \   00000010   0410A0E1           MOV      R1,R4
   \   00000014   0400A0E3           MOV      R0,#+4
   \   00000018   ........           BL       ??trace_free
    440          	return __original_fclose(file);
   \   0000001C   0400A0E1           MOV      R0,R4
   \   00000020   170100EF           SWI      +279
   \   00000024   1080BDE8           POP      {R4,PC}          ;; return
    441          }
    442          

   \                                 In segment CODE, align 4, keep-with-next
    443          int __deleaker_w_fopen( const char* __file__, int __line__, const wchar_t* name, int attr, int rights, int err )
    444          {
   \                     ??__deleaker_w_fopen:
   \   00000000   70402DE9           PUSH     {R4-R6,LR}
   \   00000004   0040A0E1           MOV      R4,R0
   \   00000008   0150A0E1           MOV      R5,R1
   \   0000000C   0200A0E1           MOV      R0,R2
   \   00000010   10209DE5           LDR      R2,[SP, #+16]
   \   00000014   0310A0E1           MOV      R1,R3
   \   00000018   14309DE5           LDR      R3,[SP, #+20]
    445          	//тот же trace_file?
    446          	int ret = __original_w_fopen(name, attr, rights, err);
   \   0000001C   F80200EF           SWI      +760
   \   00000020   0060A0E1           MOV      R6,R0
    447          	if(ret!=-1)trace_alloc(trace_file, (void*)ret, __file__, __line__);
   \   00000024   010076E3           CMN      R6,#+1
   \   00000028   0400000A           BEQ      ??__deleaker_w_fopen_1
   \   0000002C   0530A0E1           MOV      R3,R5
   \   00000030   0420A0E1           MOV      R2,R4
   \   00000034   0610A0E1           MOV      R1,R6
   \   00000038   0400A0E3           MOV      R0,#+4
   \   0000003C   ........           BL       ??trace_alloc
    448          	return ret;
   \                     ??__deleaker_w_fopen_1:
   \   00000040   0600A0E1           MOV      R0,R6
   \   00000044   7080BDE8           POP      {R4-R6,PC}       ;; return
    449          }
    450          

   \                                 In segment CODE, align 4, keep-with-next
    451          int __deleaker_w_fclose( const char* __file__, int __line__, int f )
    452          {
   \                     ??__deleaker_w_fclose:
   \   00000000   10402DE9           PUSH     {R4,LR}
    453          	trace_free(trace_file, (void*)f, __file__, __line__);
   \   00000004   0130A0E1           MOV      R3,R1
   \   00000008   0240A0E1           MOV      R4,R2
   \   0000000C   0020A0E1           MOV      R2,R0
   \   00000010   0410A0E1           MOV      R1,R4
   \   00000014   0400A0E3           MOV      R0,#+4
   \   00000018   ........           BL       ??trace_free
    454          	return __original_w_fclose(f);
   \   0000001C   0400A0E1           MOV      R0,R4
   \   00000020   FD0200EF           SWI      +765
   \   00000024   1080BDE8           POP      {R4,PC}          ;; return
    455          }
    456          

   \                                 In segment CODE, align 4, keep-with-next
    457          GUI_LIST* __deleaker_CreateListMenu( const char* __file__, int __line__, BOOK* __unknwnargname1, int display )
    458          {
   \                     ??__deleaker_CreateListMenu:
   \   00000000   70402DE9           PUSH     {R4-R6,LR}
   \   00000004   0040A0E1           MOV      R4,R0
   \   00000008   0150A0E1           MOV      R5,R1
   \   0000000C   0200A0E1           MOV      R0,R2
   \   00000010   0310A0E1           MOV      R1,R3
    459          	GUI_LIST* ret = __original_CreateListMenu(__unknwnargname1, display);
   \   00000014   C00100EF           SWI      +448
   \   00000018   0060B0E1           MOVS     R6,R0
    460          	if(ret)trace_alloc(trace_gui, (void*)ret, __file__, __line__);
   \   0000001C   0400000A           BEQ      ??__deleaker_CreateListMenu_1
   \   00000020   0530A0E1           MOV      R3,R5
   \   00000024   0420A0E1           MOV      R2,R4
   \   00000028   0610A0E1           MOV      R1,R6
   \   0000002C   0900A0E3           MOV      R0,#+9
   \   00000030   ........           BL       ??trace_alloc
    461          	return ret;
   \                     ??__deleaker_CreateListMenu_1:
   \   00000034   0600A0E1           MOV      R0,R6
   \   00000038   7080BDE8           POP      {R4-R6,PC}       ;; return
    462          }
    463          

   \                                 In segment CODE, align 4, keep-with-next
    464          GUI_NOFMANY* __deleaker_CreateNOfMany( const char* __file__, int __line__, BOOK* book )
    465          {
   \                     ??__deleaker_CreateNOfMany:
   \   00000000   70402DE9           PUSH     {R4-R6,LR}
   \   00000004   0040A0E1           MOV      R4,R0
   \   00000008   0150A0E1           MOV      R5,R1
   \   0000000C   0200A0E1           MOV      R0,R2
    466          	GUI_NOFMANY* ret = __original_CreateNOfMany(book);
   \   00000010   D40100EF           SWI      +468
   \   00000014   0060B0E1           MOVS     R6,R0
    467          	if(ret)trace_alloc(trace_gui, (void*)ret, __file__, __line__);
   \   00000018   0400000A           BEQ      ??__deleaker_CreateNOfMany_1
   \   0000001C   0530A0E1           MOV      R3,R5
   \   00000020   0420A0E1           MOV      R2,R4
   \   00000024   0610A0E1           MOV      R1,R6
   \   00000028   0900A0E3           MOV      R0,#+9
   \   0000002C   ........           BL       ??trace_alloc
    468          	return ret;
   \                     ??__deleaker_CreateNOfMany_1:
   \   00000030   0600A0E1           MOV      R0,R6
   \   00000034   7080BDE8           POP      {R4-R6,PC}       ;; return
    469          }
    470          

   \                                 In segment CODE, align 4, keep-with-next
    471          GUI_ONEOFMANY* __deleaker_CreateOneOfMany( const char* __file__, int __line__, BOOK* book )
    472          {
   \                     ??__deleaker_CreateOneOfMany:
   \   00000000   70402DE9           PUSH     {R4-R6,LR}
   \   00000004   0040A0E1           MOV      R4,R0
   \   00000008   0150A0E1           MOV      R5,R1
   \   0000000C   0200A0E1           MOV      R0,R2
    473          	GUI_ONEOFMANY* ret = __original_CreateOneOfMany(book);
   \   00000010   450100EF           SWI      +325
   \   00000014   0060B0E1           MOVS     R6,R0
    474          	if(ret)trace_alloc(trace_gui, (void*)ret, __file__, __line__);
   \   00000018   0400000A           BEQ      ??__deleaker_CreateOneOfMany_1
   \   0000001C   0530A0E1           MOV      R3,R5
   \   00000020   0420A0E1           MOV      R2,R4
   \   00000024   0610A0E1           MOV      R1,R6
   \   00000028   0900A0E3           MOV      R0,#+9
   \   0000002C   ........           BL       ??trace_alloc
    475          	return ret;
   \                     ??__deleaker_CreateOneOfMany_1:
   \   00000030   0600A0E1           MOV      R0,R6
   \   00000034   7080BDE8           POP      {R4-R6,PC}       ;; return
    476          }
    477          

   \                                 In segment CODE, align 4, keep-with-next
    478          GUI_TABMENUBAR* __deleaker_CreateTabMenuBar( const char* __file__, int __line__, BOOK* book )
    479          {
   \                     ??__deleaker_CreateTabMenuBar:
   \   00000000   70402DE9           PUSH     {R4-R6,LR}
   \   00000004   0040A0E1           MOV      R4,R0
   \   00000008   0150A0E1           MOV      R5,R1
   \   0000000C   0200A0E1           MOV      R0,R2
    480          	GUI_TABMENUBAR* ret = __original_CreateTabMenuBar(book);
   \   00000010   CA0100EF           SWI      +458
   \   00000014   0060B0E1           MOVS     R6,R0
    481          	if(ret)trace_alloc(trace_gui, (void*)ret, __file__, __line__);
   \   00000018   0400000A           BEQ      ??__deleaker_CreateTabMenuBar_1
   \   0000001C   0530A0E1           MOV      R3,R5
   \   00000020   0420A0E1           MOV      R2,R4
   \   00000024   0610A0E1           MOV      R1,R6
   \   00000028   0900A0E3           MOV      R0,#+9
   \   0000002C   ........           BL       ??trace_alloc
    482          	return ret;
   \                     ??__deleaker_CreateTabMenuBar_1:
   \   00000030   0600A0E1           MOV      R0,R6
   \   00000034   7080BDE8           POP      {R4-R6,PC}       ;; return
    483          }
    484          

   \                                 In segment CODE, align 4, keep-with-next
    485          GUI* __deleaker_CreateProgressBar( const char* __file__, int __line__, BOOK* book, int display )
    486          {
   \                     ??__deleaker_CreateProgressBar:
   \   00000000   70402DE9           PUSH     {R4-R6,LR}
   \   00000004   0040A0E1           MOV      R4,R0
   \   00000008   0150A0E1           MOV      R5,R1
   \   0000000C   0200A0E1           MOV      R0,R2
   \   00000010   0310A0E1           MOV      R1,R3
    487          	GUI* ret = __original_CreateProgressBar(book, display);
   \   00000014   0D0300EF           SWI      +781
   \   00000018   0060B0E1           MOVS     R6,R0
    488          	if(ret)trace_alloc(trace_gui, (void*)ret, __file__, __line__);
   \   0000001C   0400000A           BEQ      ??__deleaker_CreateProgressBar_1
   \   00000020   0530A0E1           MOV      R3,R5
   \   00000024   0420A0E1           MOV      R2,R4
   \   00000028   0610A0E1           MOV      R1,R6
   \   0000002C   0900A0E3           MOV      R0,#+9
   \   00000030   ........           BL       ??trace_alloc
    489          	return ret;
   \                     ??__deleaker_CreateProgressBar_1:
   \   00000034   0600A0E1           MOV      R0,R6
   \   00000038   7080BDE8           POP      {R4-R6,PC}       ;; return
    490          }
    491          

   \                                 In segment CODE, align 4, keep-with-next
    492          TEXTID __deleaker_TextID_Create( const char* __file__, int __line__, const void* wstr, TEXT_ENCODING flag, int len )
    493          {
   \                     ??__deleaker_TextID_Create:
   \   00000000   F0432DE9           PUSH     {R4-R9,LR}
   \   00000004   1C809DE5           LDR      R8,[SP, #+28]
   \   00000008   0040A0E1           MOV      R4,R0
   \   0000000C   0150A0E1           MOV      R5,R1
   \   00000010   0260A0E1           MOV      R6,R2
   \   00000014   0370A0E1           MOV      R7,R3
    494          	TEXTID ret = __original_TextID_Create(wstr, flag, len);
   \   00000018   0820A0E1           MOV      R2,R8
   \   0000001C   0710A0E1           MOV      R1,R7
   \   00000020   0600A0E1           MOV      R0,R6
   \   00000024   5D0100EF           SWI      +349
   \   00000028   0090A0E1           MOV      R9,R0
    495          	if(isallocatedstrid(ret))
   \   0000002C   ........           BL       ??isallocatedstrid
   \   00000030   000050E3           CMP      R0,#+0
   \   00000034   1300000A           BEQ      ??__deleaker_TextID_Create_1
    496          	{
    497          		trace_alloc(trace_strid, (void*)ret, __file__, __line__);
   \   00000038   0530A0E1           MOV      R3,R5
   \   0000003C   0420A0E1           MOV      R2,R4
   \   00000040   0910A0E1           MOV      R1,R9
   \   00000044   0100A0E3           MOV      R0,#+1
   \   00000048   ........           BL       ??trace_alloc
    498          		if(flag==ENC_TEXTID)
   \   0000004C   050057E3           CMP      R7,#+5
   \   00000050   0C00001A           BNE      ??__deleaker_TextID_Create_1
    499          		{
    500          			for(int i=0;i<len;i++)
   \   00000054   0070A0E3           MOV      R7,#+0
   \   00000058   010058E3           CMP      R8,#+1
   \   0000005C   070000AA           BGE      ??__deleaker_TextID_Create_2
   \   00000060   0900A0E1           MOV      R0,R9
   \   00000064   F083BDE8           POP      {R4-R9,PC}
    501          				trace_free(trace_strid, (void*)((TEXTID*)wstr)[i], __file__, __line__);
   \                     ??__deleaker_TextID_Create_3:
   \   00000068   071196E7           LDR      R1,[R6, +R7, LSL #+2]
   \   0000006C   0530A0E1           MOV      R3,R5
   \   00000070   0420A0E1           MOV      R2,R4
   \   00000074   0100A0E3           MOV      R0,#+1
   \   00000078   ........           BL       ??trace_free
   \   0000007C   017087E2           ADD      R7,R7,#+1
   \                     ??__deleaker_TextID_Create_2:
   \   00000080   080057E1           CMP      R7,R8
   \   00000084   F7FFFFBA           BLT      ??__deleaker_TextID_Create_3
    502          		}
    503          	}
    504          	return ret;
   \                     ??__deleaker_TextID_Create_1:
   \   00000088   0900A0E1           MOV      R0,R9
   \   0000008C   F083BDE8           POP      {R4-R9,PC}       ;; return
    505          }
    506          

   \                                 In segment CODE, align 4, keep-with-next
    507          TEXTID __deleaker_TextID_Copy( const char* __file__, int __line__, TEXTID __unknwnargname1 )
    508          {
   \                     ??__deleaker_TextID_Copy:
   \   00000000   70402DE9           PUSH     {R4-R6,LR}
   \   00000004   0040A0E1           MOV      R4,R0
   \   00000008   0150A0E1           MOV      R5,R1
   \   0000000C   0200A0E1           MOV      R0,R2
    509          	TEXTID ret = __original_TextID_Copy(__unknwnargname1);
   \   00000010   420200EF           SWI      +578
   \   00000014   0060A0E1           MOV      R6,R0
    510          	if(isallocatedstrid(ret))
   \   00000018   ........           BL       ??isallocatedstrid
   \   0000001C   000050E3           CMP      R0,#+0
   \   00000020   0400000A           BEQ      ??__deleaker_TextID_Copy_1
    511          		trace_alloc(trace_strid, (void*)ret, __file__, __line__);
   \   00000024   0530A0E1           MOV      R3,R5
   \   00000028   0420A0E1           MOV      R2,R4
   \   0000002C   0610A0E1           MOV      R1,R6
   \   00000030   0100A0E3           MOV      R0,#+1
   \   00000034   ........           BL       ??trace_alloc
    512          	return ret;
   \                     ??__deleaker_TextID_Copy_1:
   \   00000038   0600A0E1           MOV      R0,R6
   \   0000003C   7080BDE8           POP      {R4-R6,PC}       ;; return
    513          }
    514          

   \                                 In segment CODE, align 4, keep-with-next
    515          TEXTID __deleaker_TextID_CreateIntegerID( const char* __file__, int __line__, int num )
    516          {
   \                     ??__deleaker_TextID_CreateIntegerID:
   \   00000000   70402DE9           PUSH     {R4-R6,LR}
   \   00000004   0040A0E1           MOV      R4,R0
   \   00000008   0150A0E1           MOV      R5,R1
   \   0000000C   0200A0E1           MOV      R0,R2
    517          	TEXTID ret = __original_TextID_CreateIntegerID(num);
   \   00000010   5C0100EF           SWI      +348
   \   00000014   0060A0E1           MOV      R6,R0
    518          	if(isallocatedstrid(ret))
   \   00000018   ........           BL       ??isallocatedstrid
   \   0000001C   000050E3           CMP      R0,#+0
   \   00000020   0400000A           BEQ      ??__deleaker_TextID_CreateIntegerID_1
    519          		trace_alloc(trace_strid, (void*)ret, __file__, __line__);
   \   00000024   0530A0E1           MOV      R3,R5
   \   00000028   0420A0E1           MOV      R2,R4
   \   0000002C   0610A0E1           MOV      R1,R6
   \   00000030   0100A0E3           MOV      R0,#+1
   \   00000034   ........           BL       ??trace_alloc
    520          	return ret;
   \                     ??__deleaker_TextID_CreateIntegerID_1:
   \   00000038   0600A0E1           MOV      R0,R6
   \   0000003C   7080BDE8           POP      {R4-R6,PC}       ;; return
    521          }
    522          

   \                                 In segment CODE, align 4, keep-with-next
    523          void __deleaker_TextID_Destroy( const char* __file__, int __line__, TEXTID __unknwnargname1 )
    524          {
   \                     ??__deleaker_TextID_Destroy:
   \   00000000   10402DE9           PUSH     {R4,LR}
    525          	trace_free(trace_strid, (void*)__unknwnargname1, __file__, __line__ );
   \   00000004   0130A0E1           MOV      R3,R1
   \   00000008   0240A0E1           MOV      R4,R2
   \   0000000C   0020A0E1           MOV      R2,R0
   \   00000010   0410A0E1           MOV      R1,R4
   \   00000014   0100A0E3           MOV      R0,#+1
   \   00000018   ........           BL       ??trace_free
    526          	return __original_TextID_Destroy(__unknwnargname1);
   \   0000001C   0400A0E1           MOV      R0,R4
   \   00000020   610100EF           SWI      +353
   \   00000024   1080BDE8           POP      {R4,PC}          ;; return
    527          }
    528          

   \                                 In segment CODE, align 4, keep-with-next
    529          void __deleaker_GUIObject_SetTitleText( const char* __file__, int __line__, GUI* __unknwnargname1, TEXTID __unknwnargname2 )
    530          {
   \                     ??__deleaker_GUIObject_SetTitleText:
   \   00000000   F0402DE9           PUSH     {R4-R7,LR}
   \   00000004   0040A0E1           MOV      R4,R0
   \   00000008   0150A0E1           MOV      R5,R1
   \   0000000C   0260A0E1           MOV      R6,R2
   \   00000010   0370A0E1           MOV      R7,R3
    531          	if(isallocatedstrid(__unknwnargname2))trace_free(trace_strid, (void*)__unknwnargname2, __file__, __line__ );
   \   00000014   0700A0E1           MOV      R0,R7
   \   00000018   ........           BL       ??isallocatedstrid
   \   0000001C   000050E3           CMP      R0,#+0
   \   00000020   0400000A           BEQ      ??__deleaker_GUIObject_SetTitleText_1
   \   00000024   0530A0E1           MOV      R3,R5
   \   00000028   0420A0E1           MOV      R2,R4
   \   0000002C   0710A0E1           MOV      R1,R7
   \   00000030   0100A0E3           MOV      R0,#+1
   \   00000034   ........           BL       ??trace_free
    532          	return __original_GUIObject_SetTitleText(__unknwnargname1, __unknwnargname2);
   \                     ??__deleaker_GUIObject_SetTitleText_1:
   \   00000038   0710A0E1           MOV      R1,R7
   \   0000003C   0600A0E1           MOV      R0,R6
   \   00000040   330100EF           SWI      +307
   \   00000044   F080BDE8           POP      {R4-R7,PC}       ;; return
    533          }
    534          

   \                                 In segment CODE, align 4, keep-with-next
    535          void __deleaker_GUIObject_SoftKeys_SetText( const char* __file__, int __line__, GUI* __unknwnargname1, u16 actionID, TEXTID __unknwnargname3 )
    536          {
   \                     ??__deleaker_GUIObject_SoftKeys_SetText:
   \   00000000   F0412DE9           PUSH     {R4-R8,LR}
   \   00000004   18809DE5           LDR      R8,[SP, #+24]
   \   00000008   0040A0E1           MOV      R4,R0
   \   0000000C   0150A0E1           MOV      R5,R1
   \   00000010   0260A0E1           MOV      R6,R2
   \   00000014   0370A0E1           MOV      R7,R3
    537          	if(isallocatedstrid(__unknwnargname3))trace_free(trace_strid, (void*)__unknwnargname3, __file__, __line__ );
   \   00000018   0800A0E1           MOV      R0,R8
   \   0000001C   ........           BL       ??isallocatedstrid
   \   00000020   000050E3           CMP      R0,#+0
   \   00000024   0400000A           BEQ      ??__deleaker_GUIObject_SoftKeys_SetText_1
   \   00000028   0530A0E1           MOV      R3,R5
   \   0000002C   0420A0E1           MOV      R2,R4
   \   00000030   0810A0E1           MOV      R1,R8
   \   00000034   0100A0E3           MOV      R0,#+1
   \   00000038   ........           BL       ??trace_free
    538          	return __original_GUIObject_SoftKeys_SetText(__unknwnargname1, actionID, __unknwnargname3);
   \                     ??__deleaker_GUIObject_SoftKeys_SetText_1:
   \   0000003C   0820A0E1           MOV      R2,R8
   \   00000040   0710A0E1           MOV      R1,R7
   \   00000044   0600A0E1           MOV      R0,R6
   \   00000048   4C0100EF           SWI      +332
   \   0000004C   F081BDE8           POP      {R4-R8,PC}       ;; return
    539          }
    540          

   \                                 In segment CODE, align 4, keep-with-next
    541          char __deleaker_GUIonMessage_SetMenuItemText( const char* __file__, int __line__, GUI_MESSAGE* msg, TEXTID __unknwnargname2 )
    542          {
   \                     ??__deleaker_GUIonMessage_SetMenuItemText:
   \   00000000   F0402DE9           PUSH     {R4-R7,LR}
   \   00000004   0040A0E1           MOV      R4,R0
   \   00000008   0150A0E1           MOV      R5,R1
   \   0000000C   0260A0E1           MOV      R6,R2
   \   00000010   0370A0E1           MOV      R7,R3
    543          	if(isallocatedstrid(__unknwnargname2))trace_free(trace_strid, (void*)__unknwnargname2, __file__, __line__ );
   \   00000014   0700A0E1           MOV      R0,R7
   \   00000018   ........           BL       ??isallocatedstrid
   \   0000001C   000050E3           CMP      R0,#+0
   \   00000020   0400000A           BEQ      ??__deleaker_GUIonMessage_SetMenuItemText_1
   \   00000024   0530A0E1           MOV      R3,R5
   \   00000028   0420A0E1           MOV      R2,R4
   \   0000002C   0710A0E1           MOV      R1,R7
   \   00000030   0100A0E3           MOV      R0,#+1
   \   00000034   ........           BL       ??trace_free
    544          	return __original_GUIonMessage_SetMenuItemText(msg, __unknwnargname2);
   \                     ??__deleaker_GUIonMessage_SetMenuItemText_1:
   \   00000038   0710A0E1           MOV      R1,R7
   \   0000003C   0600A0E1           MOV      R0,R6
   \   00000040   380100EF           SWI      +312
   \   00000044   F080BDE8           POP      {R4-R7,PC}       ;; return
    545          }
    546          

   \                                 In segment CODE, align 4, keep-with-next
    547          char __deleaker_GUIonMessage_SetMenuItemSecondLineText( const char* __file__, int __line__, GUI_MESSAGE* msg, TEXTID __unknwnargname2 )
    548          {
   \                     ??__deleaker_GUIonMessage_SetMenuItemSecondLine_1:
   \   00000000   F0402DE9           PUSH     {R4-R7,LR}
   \   00000004   0040A0E1           MOV      R4,R0
   \   00000008   0150A0E1           MOV      R5,R1
   \   0000000C   0260A0E1           MOV      R6,R2
   \   00000010   0370A0E1           MOV      R7,R3
    549          	if(isallocatedstrid(__unknwnargname2))trace_free(trace_strid, (void*)__unknwnargname2, __file__, __line__ );
   \   00000014   0700A0E1           MOV      R0,R7
   \   00000018   ........           BL       ??isallocatedstrid
   \   0000001C   000050E3           CMP      R0,#+0
   \   00000020   0400000A           BEQ      ??__deleaker_GUIonMessage_SetMenuItemSecondLine_2
   \   00000024   0530A0E1           MOV      R3,R5
   \   00000028   0420A0E1           MOV      R2,R4
   \   0000002C   0710A0E1           MOV      R1,R7
   \   00000030   0100A0E3           MOV      R0,#+1
   \   00000034   ........           BL       ??trace_free
    550          	return __original_GUIonMessage_SetMenuItemSecondLineText(msg, __unknwnargname2);
   \                     ??__deleaker_GUIonMessage_SetMenuItemSecondLine_2:
   \   00000038   0710A0E1           MOV      R1,R7
   \   0000003C   0600A0E1           MOV      R0,R6
   \   00000040   390100EF           SWI      +313
   \   00000044   F080BDE8           POP      {R4-R7,PC}       ;; return
    551          }
    552          

   \                                 In segment CODE, align 4, keep-with-next
    553          char __deleaker_GUIonMessage_SetMenuItemInfoText( const char* __file__, int __line__, GUI_MESSAGE* msg, TEXTID __unknwnargname2 )
    554          {
   \                     ??__deleaker_GUIonMessage_SetMenuItemInfoText:
   \   00000000   F0402DE9           PUSH     {R4-R7,LR}
   \   00000004   0040A0E1           MOV      R4,R0
   \   00000008   0150A0E1           MOV      R5,R1
   \   0000000C   0260A0E1           MOV      R6,R2
   \   00000010   0370A0E1           MOV      R7,R3
    555          	if(isallocatedstrid(__unknwnargname2))trace_free(trace_strid, (void*)__unknwnargname2, __file__, __line__ );
   \   00000014   0700A0E1           MOV      R0,R7
   \   00000018   ........           BL       ??isallocatedstrid
   \   0000001C   000050E3           CMP      R0,#+0
   \   00000020   0400000A           BEQ      ??__deleaker_GUIonMessage_SetMenuItemInfoText_1
   \   00000024   0530A0E1           MOV      R3,R5
   \   00000028   0420A0E1           MOV      R2,R4
   \   0000002C   0710A0E1           MOV      R1,R7
   \   00000030   0100A0E3           MOV      R0,#+1
   \   00000034   ........           BL       ??trace_free
    556          	return __original_GUIonMessage_SetMenuItemInfoText(msg, __unknwnargname2);
   \                     ??__deleaker_GUIonMessage_SetMenuItemInfoText_1:
   \   00000038   0710A0E1           MOV      R1,R7
   \   0000003C   0600A0E1           MOV      R0,R6
   \   00000040   3A0100EF           SWI      +314
   \   00000044   F080BDE8           POP      {R4-R7,PC}       ;; return
    557          }
    558          

   \                                 In segment CODE, align 4, keep-with-next
    559          char __deleaker_GUIonMessage_SetMenuItemUnavailableText( const char* __file__, int __line__, GUI_MESSAGE* msg, TEXTID __unknwnargname2 )
    560          {
   \                     ??__deleaker_GUIonMessage_SetMenuItemUnavailabl_1:
   \   00000000   F0402DE9           PUSH     {R4-R7,LR}
   \   00000004   0040A0E1           MOV      R4,R0
   \   00000008   0150A0E1           MOV      R5,R1
   \   0000000C   0260A0E1           MOV      R6,R2
   \   00000010   0370A0E1           MOV      R7,R3
    561          	if(isallocatedstrid(__unknwnargname2))trace_free(trace_strid, (void*)__unknwnargname2, __file__, __line__ );
   \   00000014   0700A0E1           MOV      R0,R7
   \   00000018   ........           BL       ??isallocatedstrid
   \   0000001C   000050E3           CMP      R0,#+0
   \   00000020   0400000A           BEQ      ??__deleaker_GUIonMessage_SetMenuItemUnavailabl_2
   \   00000024   0530A0E1           MOV      R3,R5
   \   00000028   0420A0E1           MOV      R2,R4
   \   0000002C   0710A0E1           MOV      R1,R7
   \   00000030   0100A0E3           MOV      R0,#+1
   \   00000034   ........           BL       ??trace_free
    562          	return __original_GUIonMessage_SetMenuItemUnavailableText(msg, __unknwnargname2);
   \                     ??__deleaker_GUIonMessage_SetMenuItemUnavailabl_2:
   \   00000038   0710A0E1           MOV      R1,R7
   \   0000003C   0600A0E1           MOV      R0,R6
   \   00000040   3B0100EF           SWI      +315
   \   00000044   F080BDE8           POP      {R4-R7,PC}       ;; return
    563          }
    564          

   \                                 In segment CODE, align 4, keep-with-next
    565          int __deleaker_MessageBox( const char* __file__, int __line__, TEXTID header_text, TEXTID message_text, IMAGEID __unknwnargname3, int style, int time, BOOK* book )
    566          {
   \                     ??__deleaker_MessageBox:
   \   00000000   F04F2DE9           PUSH     {R4-R11,LR}
   \   00000004   B482DDE1           LDRH     R8,[SP, #+36]
   \   00000008   28909DE5           LDR      R9,[SP, #+40]
   \   0000000C   2CA09DE5           LDR      R10,[SP, #+44]
   \   00000010   30B09DE5           LDR      R11,[SP, #+48]
   \   00000014   0040A0E1           MOV      R4,R0
   \   00000018   0150A0E1           MOV      R5,R1
   \   0000001C   0260A0E1           MOV      R6,R2
   \   00000020   0370A0E1           MOV      R7,R3
    567          	if(isallocatedstrid(header_text))trace_free(trace_strid, (void*)header_text, __file__, __line__ );
   \   00000024   0600A0E1           MOV      R0,R6
   \   00000028   ........           BL       ??isallocatedstrid
   \   0000002C   000050E3           CMP      R0,#+0
   \   00000030   0400000A           BEQ      ??__deleaker_MessageBox_1
   \   00000034   0530A0E1           MOV      R3,R5
   \   00000038   0420A0E1           MOV      R2,R4
   \   0000003C   0610A0E1           MOV      R1,R6
   \   00000040   0100A0E3           MOV      R0,#+1
   \   00000044   ........           BL       ??trace_free
    568          	if(isallocatedstrid(message_text))trace_free(trace_strid, (void*)message_text, __file__, __line__ );
   \                     ??__deleaker_MessageBox_1:
   \   00000048   0700A0E1           MOV      R0,R7
   \   0000004C   ........           BL       ??isallocatedstrid
   \   00000050   000050E3           CMP      R0,#+0
   \   00000054   0400000A           BEQ      ??__deleaker_MessageBox_2
   \   00000058   0530A0E1           MOV      R3,R5
   \   0000005C   0420A0E1           MOV      R2,R4
   \   00000060   0710A0E1           MOV      R1,R7
   \   00000064   0100A0E3           MOV      R0,#+1
   \   00000068   ........           BL       ??trace_free
    569          	if(isallocatediconid(__unknwnargname3))trace_free(trace_iconid, (void*)__unknwnargname3, __file__, __line__ );
   \                     ??__deleaker_MessageBox_2:
   \   0000006C   0800A0E1           MOV      R0,R8
   \   00000070   ........           BL       ??isallocatediconid
   \   00000074   000050E3           CMP      R0,#+0
   \   00000078   0400000A           BEQ      ??__deleaker_MessageBox_3
   \   0000007C   0530A0E1           MOV      R3,R5
   \   00000080   0420A0E1           MOV      R2,R4
   \   00000084   0810A0E1           MOV      R1,R8
   \   00000088   0200A0E3           MOV      R0,#+2
   \   0000008C   ........           BL       ??trace_free
    570          	return __original_MessageBox(header_text, message_text, __unknwnargname3, style, time, book);
   \                     ??__deleaker_MessageBox_3:
   \   00000090   00082DE9           PUSH     {R11}
   \   00000094   00042DE9           PUSH     {R10}
   \   00000098   0930A0E1           MOV      R3,R9
   \   0000009C   0820A0E1           MOV      R2,R8
   \   000000A0   0710A0E1           MOV      R1,R7
   \   000000A4   0600A0E1           MOV      R0,R6
   \   000000A8   570200EF           SWI      +599
   \   000000AC   F68FBDE8           POP      {R1,R2,R4-R11,PC}  ;; return
    571          }
    572          

   \                                 In segment CODE, align 4, keep-with-next
    573          void __deleaker_BookObj_SoftKeys_SetText( const char* __file__, int __line__, BOOK* book, int actionID, TEXTID __unknwnargname3 )
    574          {
   \                     ??__deleaker_BookObj_SoftKeys_SetText:
   \   00000000   F0412DE9           PUSH     {R4-R8,LR}
   \   00000004   18809DE5           LDR      R8,[SP, #+24]
   \   00000008   0040A0E1           MOV      R4,R0
   \   0000000C   0150A0E1           MOV      R5,R1
   \   00000010   0260A0E1           MOV      R6,R2
   \   00000014   0370A0E1           MOV      R7,R3
    575          	if(isallocatedstrid(__unknwnargname3))trace_free(trace_strid, (void*)__unknwnargname3, __file__, __line__ );
   \   00000018   0800A0E1           MOV      R0,R8
   \   0000001C   ........           BL       ??isallocatedstrid
   \   00000020   000050E3           CMP      R0,#+0
   \   00000024   0400000A           BEQ      ??__deleaker_BookObj_SoftKeys_SetText_1
   \   00000028   0530A0E1           MOV      R3,R5
   \   0000002C   0420A0E1           MOV      R2,R4
   \   00000030   0810A0E1           MOV      R1,R8
   \   00000034   0100A0E3           MOV      R0,#+1
   \   00000038   ........           BL       ??trace_free
    576          	return __original_BookObj_SoftKeys_SetText(book, actionID, __unknwnargname3);
   \                     ??__deleaker_BookObj_SoftKeys_SetText_1:
   \   0000003C   0820A0E1           MOV      R2,R8
   \   00000040   0710A0E1           MOV      R1,R7
   \   00000044   0600A0E1           MOV      R0,R6
   \   00000048   C30200EF           SWI      +707
   \   0000004C   F081BDE8           POP      {R4-R8,PC}       ;; return
    577          }
    578          

   \                                 In segment CODE, align 4, keep-with-next
    579          void __deleaker_DataBrowserDesc_SetHeaderText( const char* __file__, int __line__, void* DataBrowserDesc, TEXTID __unknwnargname2 )
    580          {
   \                     ??__deleaker_DataBrowserDesc_SetHeaderText:
   \   00000000   F0402DE9           PUSH     {R4-R7,LR}
   \   00000004   0040A0E1           MOV      R4,R0
   \   00000008   0150A0E1           MOV      R5,R1
   \   0000000C   0260A0E1           MOV      R6,R2
   \   00000010   0370A0E1           MOV      R7,R3
    581          	if(isallocatedstrid(__unknwnargname2))trace_free(trace_strid, (void*)__unknwnargname2, __file__, __line__ );
   \   00000014   0700A0E1           MOV      R0,R7
   \   00000018   ........           BL       ??isallocatedstrid
   \   0000001C   000050E3           CMP      R0,#+0
   \   00000020   0400000A           BEQ      ??__deleaker_DataBrowserDesc_SetHeaderText_1
   \   00000024   0530A0E1           MOV      R3,R5
   \   00000028   0420A0E1           MOV      R2,R4
   \   0000002C   0710A0E1           MOV      R1,R7
   \   00000030   0100A0E3           MOV      R0,#+1
   \   00000034   ........           BL       ??trace_free
    582          	return __original_DataBrowserDesc_SetHeaderText(DataBrowserDesc, __unknwnargname2);
   \                     ??__deleaker_DataBrowserDesc_SetHeaderText_1:
   \   00000038   0710A0E1           MOV      R1,R7
   \   0000003C   0600A0E1           MOV      R0,R6
   \   00000040   210100EF           SWI      +289
   \   00000044   F080BDE8           POP      {R4-R7,PC}       ;; return
    583          }
    584          

   \                                 In segment CODE, align 4, keep-with-next
    585          void __deleaker_DataBrowserDesc_SetOKSoftKeyText( const char* __file__, int __line__, void* DataBrowserDesc, TEXTID __unknwnargname2 )
    586          {
   \                     ??__deleaker_DataBrowserDesc_SetOKSoftKeyText:
   \   00000000   F0402DE9           PUSH     {R4-R7,LR}
   \   00000004   0040A0E1           MOV      R4,R0
   \   00000008   0150A0E1           MOV      R5,R1
   \   0000000C   0260A0E1           MOV      R6,R2
   \   00000010   0370A0E1           MOV      R7,R3
    587          	if(isallocatedstrid(__unknwnargname2))trace_free(trace_strid, (void*)__unknwnargname2, __file__, __line__ );
   \   00000014   0700A0E1           MOV      R0,R7
   \   00000018   ........           BL       ??isallocatedstrid
   \   0000001C   000050E3           CMP      R0,#+0
   \   00000020   0400000A           BEQ      ??__deleaker_DataBrowserDesc_SetOKSoftKeyText_1
   \   00000024   0530A0E1           MOV      R3,R5
   \   00000028   0420A0E1           MOV      R2,R4
   \   0000002C   0710A0E1           MOV      R1,R7
   \   00000030   0100A0E3           MOV      R0,#+1
   \   00000034   ........           BL       ??trace_free
    588          	return __original_DataBrowserDesc_SetOKSoftKeyText(DataBrowserDesc, __unknwnargname2);
   \                     ??__deleaker_DataBrowserDesc_SetOKSoftKeyText_1:
   \   00000038   0710A0E1           MOV      R1,R7
   \   0000003C   0600A0E1           MOV      R0,R6
   \   00000040   230100EF           SWI      +291
   \   00000044   F080BDE8           POP      {R4-R7,PC}       ;; return
    589          }
    590          

   \                                 In segment CODE, align 4, keep-with-next
    591          void __deleaker_DispObject_SetTitleText( const char* __file__, int __line__, DISP_OBJ* __unknwnargname1, TEXTID __unknwnargname2 )
    592          {
   \                     ??__deleaker_DispObject_SetTitleText:
   \   00000000   F0402DE9           PUSH     {R4-R7,LR}
   \   00000004   0040A0E1           MOV      R4,R0
   \   00000008   0150A0E1           MOV      R5,R1
   \   0000000C   0260A0E1           MOV      R6,R2
   \   00000010   0370A0E1           MOV      R7,R3
    593          	if(isallocatedstrid(__unknwnargname2))trace_free(trace_strid, (void*)__unknwnargname2, __file__, __line__ );
   \   00000014   0700A0E1           MOV      R0,R7
   \   00000018   ........           BL       ??isallocatedstrid
   \   0000001C   000050E3           CMP      R0,#+0
   \   00000020   0400000A           BEQ      ??__deleaker_DispObject_SetTitleText_1
   \   00000024   0530A0E1           MOV      R3,R5
   \   00000028   0420A0E1           MOV      R2,R4
   \   0000002C   0710A0E1           MOV      R1,R7
   \   00000030   0100A0E3           MOV      R0,#+1
   \   00000034   ........           BL       ??trace_free
    594          	return __original_DispObject_SetTitleText(__unknwnargname1, __unknwnargname2);
   \                     ??__deleaker_DispObject_SetTitleText_1:
   \   00000038   0710A0E1           MOV      R1,R7
   \   0000003C   0600A0E1           MOV      R0,R6
   \   00000040   3D0100EF           SWI      +317
   \   00000044   F080BDE8           POP      {R4-R7,PC}       ;; return
    595          }
    596          

   \                                 In segment CODE, align 4, keep-with-next
    597          void __deleaker_GUIObject_SoftKeys_AddErrorStr( const char* __file__, int __line__, GUI* __unknwnargname1, u16 actionID, TEXTID __unknwnargname3 )
    598          {
   \                     ??__deleaker_GUIObject_SoftKeys_AddErrorStr:
   \   00000000   F0412DE9           PUSH     {R4-R8,LR}
   \   00000004   18809DE5           LDR      R8,[SP, #+24]
   \   00000008   0040A0E1           MOV      R4,R0
   \   0000000C   0150A0E1           MOV      R5,R1
   \   00000010   0260A0E1           MOV      R6,R2
   \   00000014   0370A0E1           MOV      R7,R3
    599          	if(isallocatedstrid(__unknwnargname3))trace_free(trace_strid, (void*)__unknwnargname3, __file__, __line__ );
   \   00000018   0800A0E1           MOV      R0,R8
   \   0000001C   ........           BL       ??isallocatedstrid
   \   00000020   000050E3           CMP      R0,#+0
   \   00000024   0400000A           BEQ      ??__deleaker_GUIObject_SoftKeys_AddErrorStr_1
   \   00000028   0530A0E1           MOV      R3,R5
   \   0000002C   0420A0E1           MOV      R2,R4
   \   00000030   0810A0E1           MOV      R1,R8
   \   00000034   0100A0E3           MOV      R0,#+1
   \   00000038   ........           BL       ??trace_free
    600          	return __original_GUIObject_SoftKeys_AddErrorStr(__unknwnargname1, actionID, __unknwnargname3);
   \                     ??__deleaker_GUIObject_SoftKeys_AddErrorStr_1:
   \   0000003C   0820A0E1           MOV      R2,R8
   \   00000040   0710A0E1           MOV      R1,R7
   \   00000044   0600A0E1           MOV      R0,R6
   \   00000048   4E0100EF           SWI      +334
   \   0000004C   F081BDE8           POP      {R4-R8,PC}       ;; return
    601          }
    602          

   \                                 In segment CODE, align 4, keep-with-next
    603          void __deleaker_ProgressBar_SetText( const char* __file__, int __line__, GUI* __unknwnargname1, TEXTID text )
    604          {
   \                     ??__deleaker_ProgressBar_SetText:
   \   00000000   F0402DE9           PUSH     {R4-R7,LR}
   \   00000004   0040A0E1           MOV      R4,R0
   \   00000008   0150A0E1           MOV      R5,R1
   \   0000000C   0260A0E1           MOV      R6,R2
   \   00000010   0370A0E1           MOV      R7,R3
    605          	if(isallocatedstrid(text))trace_free(trace_strid, (void*)text, __file__, __line__ );
   \   00000014   0700A0E1           MOV      R0,R7
   \   00000018   ........           BL       ??isallocatedstrid
   \   0000001C   000050E3           CMP      R0,#+0
   \   00000020   0400000A           BEQ      ??__deleaker_ProgressBar_SetText_1
   \   00000024   0530A0E1           MOV      R3,R5
   \   00000028   0420A0E1           MOV      R2,R4
   \   0000002C   0710A0E1           MOV      R1,R7
   \   00000030   0100A0E3           MOV      R0,#+1
   \   00000034   ........           BL       ??trace_free
    606          	return __original_ProgressBar_SetText(__unknwnargname1, text);
   \                     ??__deleaker_ProgressBar_SetText_1:
   \   00000038   0710A0E1           MOV      R1,R7
   \   0000003C   0600A0E1           MOV      R0,R6
   \   00000040   0E0300EF           SWI      +782
   \   00000044   F080BDE8           POP      {R4-R7,PC}       ;; return
    607          }
    608          

   \                                 In segment CODE, align 4, keep-with-next
    609          void __deleaker_StatusIndication_Item8_SetText( const char* __file__, int __line__, TEXTID __unknwnargname1 )
    610          {
   \                     ??__deleaker_StatusIndication_Item8_SetText:
   \   00000000   70402DE9           PUSH     {R4-R6,LR}
   \   00000004   0040A0E1           MOV      R4,R0
   \   00000008   0150A0E1           MOV      R5,R1
   \   0000000C   0260A0E1           MOV      R6,R2
    611          	if(isallocatedstrid(__unknwnargname1))trace_free(trace_strid, (void*)__unknwnargname1, __file__, __line__ );
   \   00000010   0600A0E1           MOV      R0,R6
   \   00000014   ........           BL       ??isallocatedstrid
   \   00000018   000050E3           CMP      R0,#+0
   \   0000001C   0400000A           BEQ      ??__deleaker_StatusIndication_Item8_SetText_1
   \   00000020   0530A0E1           MOV      R3,R5
   \   00000024   0420A0E1           MOV      R2,R4
   \   00000028   0610A0E1           MOV      R1,R6
   \   0000002C   0100A0E3           MOV      R0,#+1
   \   00000030   ........           BL       ??trace_free
    612          	return __original_StatusIndication_Item8_SetText(__unknwnargname1);
   \                     ??__deleaker_StatusIndication_Item8_SetText_1:
   \   00000034   0600A0E1           MOV      R0,R6
   \   00000038   4A0100EF           SWI      +330
   \   0000003C   7080BDE8           POP      {R4-R6,PC}       ;; return
    613          }
    614          

   \                                 In segment CODE, align 4, keep-with-next
    615          void __deleaker_StatusIndication_SetItemText( const char* __file__, int __line__, GUI* __unknwnargname1, int item, TEXTID __unknwnargname3 )
    616          {
   \                     ??__deleaker_StatusIndication_SetItemText:
   \   00000000   F0412DE9           PUSH     {R4-R8,LR}
   \   00000004   18809DE5           LDR      R8,[SP, #+24]
   \   00000008   0040A0E1           MOV      R4,R0
   \   0000000C   0150A0E1           MOV      R5,R1
   \   00000010   0260A0E1           MOV      R6,R2
   \   00000014   0370A0E1           MOV      R7,R3
    617          	if(isallocatedstrid(__unknwnargname3))trace_free(trace_strid, (void*)__unknwnargname3, __file__, __line__ );
   \   00000018   0800A0E1           MOV      R0,R8
   \   0000001C   ........           BL       ??isallocatedstrid
   \   00000020   000050E3           CMP      R0,#+0
   \   00000024   0400000A           BEQ      ??__deleaker_StatusIndication_SetItemText_1
   \   00000028   0530A0E1           MOV      R3,R5
   \   0000002C   0420A0E1           MOV      R2,R4
   \   00000030   0810A0E1           MOV      R1,R8
   \   00000034   0100A0E3           MOV      R0,#+1
   \   00000038   ........           BL       ??trace_free
    618          	return __original_StatusIndication_SetItemText(__unknwnargname1, item, __unknwnargname3);
   \                     ??__deleaker_StatusIndication_SetItemText_1:
   \   0000003C   0820A0E1           MOV      R2,R8
   \   00000040   0710A0E1           MOV      R1,R7
   \   00000044   0600A0E1           MOV      R0,R6
   \   00000048   420100EF           SWI      +322
   \   0000004C   F081BDE8           POP      {R4-R8,PC}       ;; return
    619          }
    620          

   \                                 In segment CODE, align 4, keep-with-next
    621          void __deleaker_StatusIndication_ShowNotes( const char* __file__, int __line__, TEXTID __unknwnargname1 )
    622          {
   \                     ??__deleaker_StatusIndication_ShowNotes:
   \   00000000   70402DE9           PUSH     {R4-R6,LR}
   \   00000004   0040A0E1           MOV      R4,R0
   \   00000008   0150A0E1           MOV      R5,R1
   \   0000000C   0260A0E1           MOV      R6,R2
    623          	if(isallocatedstrid(__unknwnargname1))trace_free(trace_strid, (void*)__unknwnargname1, __file__, __line__ );
   \   00000010   0600A0E1           MOV      R0,R6
   \   00000014   ........           BL       ??isallocatedstrid
   \   00000018   000050E3           CMP      R0,#+0
   \   0000001C   0400000A           BEQ      ??__deleaker_StatusIndication_ShowNotes_1
   \   00000020   0530A0E1           MOV      R3,R5
   \   00000024   0420A0E1           MOV      R2,R4
   \   00000028   0610A0E1           MOV      R1,R6
   \   0000002C   0100A0E3           MOV      R0,#+1
   \   00000030   ........           BL       ??trace_free
    624          	return __original_StatusIndication_ShowNotes(__unknwnargname1);
   \                     ??__deleaker_StatusIndication_ShowNotes_1:
   \   00000034   0600A0E1           MOV      R0,R6
   \   00000038   430100EF           SWI      +323
   \   0000003C   7080BDE8           POP      {R4-R6,PC}       ;; return
    625          }
    626          

   \                                 In segment CODE, align 4, keep-with-next
    627          void __deleaker_StringInput_DispObject_SetText( const char* __file__, int __line__, DISP_OBJ* __unknwnargname1, TEXTID __unknwnargname2 )
    628          {
   \                     ??__deleaker_StringInput_DispObject_SetText:
   \   00000000   F0402DE9           PUSH     {R4-R7,LR}
   \   00000004   0040A0E1           MOV      R4,R0
   \   00000008   0150A0E1           MOV      R5,R1
   \   0000000C   0260A0E1           MOV      R6,R2
   \   00000010   0370A0E1           MOV      R7,R3
    629          	if(isallocatedstrid(__unknwnargname2))trace_free(trace_strid, (void*)__unknwnargname2, __file__, __line__ );
   \   00000014   0700A0E1           MOV      R0,R7
   \   00000018   ........           BL       ??isallocatedstrid
   \   0000001C   000050E3           CMP      R0,#+0
   \   00000020   0400000A           BEQ      ??__deleaker_StringInput_DispObject_SetText_1
   \   00000024   0530A0E1           MOV      R3,R5
   \   00000028   0420A0E1           MOV      R2,R4
   \   0000002C   0710A0E1           MOV      R1,R7
   \   00000030   0100A0E3           MOV      R0,#+1
   \   00000034   ........           BL       ??trace_free
    630          	return __original_StringInput_DispObject_SetText(__unknwnargname1, __unknwnargname2);
   \                     ??__deleaker_StringInput_DispObject_SetText_1:
   \   00000038   0710A0E1           MOV      R1,R7
   \   0000003C   0600A0E1           MOV      R0,R6
   \   00000040   120300EF           SWI      +786
   \   00000044   F080BDE8           POP      {R4-R7,PC}       ;; return
    631          }
    632          

   \                                 In segment CODE, align 4, keep-with-next
    633          void __deleaker_GUIObject_SoftKeys_SetInfoText( const char* __file__, int __line__, GUI* __unknwnargname1, u16 actionID, TEXTID __unknwnargname3 )
    634          {
   \                     ??__deleaker_GUIObject_SoftKeys_SetInfoText:
   \   00000000   F0412DE9           PUSH     {R4-R8,LR}
   \   00000004   18809DE5           LDR      R8,[SP, #+24]
   \   00000008   0040A0E1           MOV      R4,R0
   \   0000000C   0150A0E1           MOV      R5,R1
   \   00000010   0260A0E1           MOV      R6,R2
   \   00000014   0370A0E1           MOV      R7,R3
    635          	if(isallocatedstrid(__unknwnargname3))trace_free(trace_strid, (void*)__unknwnargname3, __file__, __line__ );
   \   00000018   0800A0E1           MOV      R0,R8
   \   0000001C   ........           BL       ??isallocatedstrid
   \   00000020   000050E3           CMP      R0,#+0
   \   00000024   0400000A           BEQ      ??__deleaker_GUIObject_SoftKeys_SetInfoText_1
   \   00000028   0530A0E1           MOV      R3,R5
   \   0000002C   0420A0E1           MOV      R2,R4
   \   00000030   0810A0E1           MOV      R1,R8
   \   00000034   0100A0E3           MOV      R0,#+1
   \   00000038   ........           BL       ??trace_free
    636          	return __original_GUIObject_SoftKeys_SetInfoText(__unknwnargname1, actionID, __unknwnargname3);
   \                     ??__deleaker_GUIObject_SoftKeys_SetInfoText_1:
   \   0000003C   0820A0E1           MOV      R2,R8
   \   00000040   0710A0E1           MOV      R1,R7
   \   00000044   0600A0E1           MOV      R0,R6
   \   00000048   C30100EF           SWI      +451
   \   0000004C   F081BDE8           POP      {R4-R8,PC}       ;; return
    637          }
    638          

   \                                 In segment CODE, align 4, keep-with-next
    639          void __deleaker_ListMenu_SetItemSecondLineText( const char* __file__, int __line__, GUI_LIST* __unknwnargname1, int elem_num, TEXTID __unknwnargname3 )
    640          {
   \                     ??__deleaker_ListMenu_SetItemSecondLineText:
   \   00000000   F0412DE9           PUSH     {R4-R8,LR}
   \   00000004   18809DE5           LDR      R8,[SP, #+24]
   \   00000008   0040A0E1           MOV      R4,R0
   \   0000000C   0150A0E1           MOV      R5,R1
   \   00000010   0260A0E1           MOV      R6,R2
   \   00000014   0370A0E1           MOV      R7,R3
    641          	if(isallocatedstrid(__unknwnargname3))trace_free(trace_strid, (void*)__unknwnargname3, __file__, __line__ );
   \   00000018   0800A0E1           MOV      R0,R8
   \   0000001C   ........           BL       ??isallocatedstrid
   \   00000020   000050E3           CMP      R0,#+0
   \   00000024   0400000A           BEQ      ??__deleaker_ListMenu_SetItemSecondLineText_1
   \   00000028   0530A0E1           MOV      R3,R5
   \   0000002C   0420A0E1           MOV      R2,R4
   \   00000030   0810A0E1           MOV      R1,R8
   \   00000034   0100A0E3           MOV      R0,#+1
   \   00000038   ........           BL       ??trace_free
    642          	return __original_ListMenu_SetItemSecondLineText(__unknwnargname1, elem_num, __unknwnargname3);
   \                     ??__deleaker_ListMenu_SetItemSecondLineText_1:
   \   0000003C   0820A0E1           MOV      R2,R8
   \   00000040   0710A0E1           MOV      R1,R7
   \   00000044   0600A0E1           MOV      R0,R6
   \   00000048   A60200EF           SWI      +678
   \   0000004C   F081BDE8           POP      {R4-R8,PC}       ;; return
    643          }
    644          

   \                                 In segment CODE, align 4, keep-with-next
    645          void __deleaker_GUIonMessage_SubItem_SetText( const char* __file__, int __line__, GUI_MESSAGE* msg, TEXTID __unknwnargname2 )
    646          {
   \                     ??__deleaker_GUIonMessage_SubItem_SetText:
   \   00000000   F0402DE9           PUSH     {R4-R7,LR}
   \   00000004   0040A0E1           MOV      R4,R0
   \   00000008   0150A0E1           MOV      R5,R1
   \   0000000C   0260A0E1           MOV      R6,R2
   \   00000010   0370A0E1           MOV      R7,R3
    647          	if(isallocatedstrid(__unknwnargname2))trace_free(trace_strid, (void*)__unknwnargname2, __file__, __line__ );
   \   00000014   0700A0E1           MOV      R0,R7
   \   00000018   ........           BL       ??isallocatedstrid
   \   0000001C   000050E3           CMP      R0,#+0
   \   00000020   0400000A           BEQ      ??__deleaker_GUIonMessage_SubItem_SetText_1
   \   00000024   0530A0E1           MOV      R3,R5
   \   00000028   0420A0E1           MOV      R2,R4
   \   0000002C   0710A0E1           MOV      R1,R7
   \   00000030   0100A0E3           MOV      R0,#+1
   \   00000034   ........           BL       ??trace_free
    648          	return __original_GUIonMessage_SubItem_SetText(msg, __unknwnargname2);
   \                     ??__deleaker_GUIonMessage_SubItem_SetText_1:
   \   00000038   0710A0E1           MOV      R1,R7
   \   0000003C   0600A0E1           MOV      R0,R6
   \   00000040   450200EF           SWI      +581
   \   00000044   F080BDE8           POP      {R4-R7,PC}       ;; return
    649          }
    650          

   \                                 In segment CODE, align 4, keep-with-next
    651          void __deleaker_Feedback_SetTextExtended( const char* __file__, int __line__, GUI_FEEDBACK* __unknwnargname1, TEXTID text, int where )
    652          {
   \                     ??__deleaker_Feedback_SetTextExtended:
   \   00000000   F0412DE9           PUSH     {R4-R8,LR}
   \   00000004   0040A0E1           MOV      R4,R0
   \   00000008   0150A0E1           MOV      R5,R1
   \   0000000C   18809DE5           LDR      R8,[SP, #+24]
   \   00000010   0260A0E1           MOV      R6,R2
   \   00000014   0370A0E1           MOV      R7,R3
    653          	if(isallocatedstrid(text))trace_free(trace_strid, (void*)text, __file__, __line__ );
   \   00000018   0700A0E1           MOV      R0,R7
   \   0000001C   ........           BL       ??isallocatedstrid
   \   00000020   000050E3           CMP      R0,#+0
   \   00000024   0400000A           BEQ      ??__deleaker_Feedback_SetTextExtended_1
   \   00000028   0530A0E1           MOV      R3,R5
   \   0000002C   0420A0E1           MOV      R2,R4
   \   00000030   0710A0E1           MOV      R1,R7
   \   00000034   0100A0E3           MOV      R0,#+1
   \   00000038   ........           BL       ??trace_free
    654          	return __original_Feedback_SetTextExtended(__unknwnargname1, text, where);
   \                     ??__deleaker_Feedback_SetTextExtended_1:
   \   0000003C   0820A0E1           MOV      R2,R8
   \   00000040   0710A0E1           MOV      R1,R7
   \   00000044   0600A0E1           MOV      R0,R6
   \   00000048   C90200EF           SWI      +713
   \   0000004C   F081BDE8           POP      {R4-R8,PC}       ;; return
    655          }
    656          

   \                                 In segment CODE, align 4, keep-with-next
    657          void __deleaker_GUIObject_SoftKeys_SetTexts( const char* __file__, int __line__, GUI* __unknwnargname1, u16 actionID, TEXTID short_text, TEXTID full_text )
    658          {
   \                     ??__deleaker_GUIObject_SoftKeys_SetTexts:
   \   00000000   F0432DE9           PUSH     {R4-R9,LR}
   \   00000004   1C809DE5           LDR      R8,[SP, #+28]
   \   00000008   0040A0E1           MOV      R4,R0
   \   0000000C   20909DE5           LDR      R9,[SP, #+32]
   \   00000010   0150A0E1           MOV      R5,R1
   \   00000014   0260A0E1           MOV      R6,R2
   \   00000018   0370A0E1           MOV      R7,R3
    659          	if(isallocatedstrid(short_text))trace_free(trace_strid, (void*)short_text, __file__, __line__ );
   \   0000001C   0800A0E1           MOV      R0,R8
   \   00000020   ........           BL       ??isallocatedstrid
   \   00000024   000050E3           CMP      R0,#+0
   \   00000028   0400000A           BEQ      ??__deleaker_GUIObject_SoftKeys_SetTexts_1
   \   0000002C   0530A0E1           MOV      R3,R5
   \   00000030   0420A0E1           MOV      R2,R4
   \   00000034   0810A0E1           MOV      R1,R8
   \   00000038   0100A0E3           MOV      R0,#+1
   \   0000003C   ........           BL       ??trace_free
    660          	if(isallocatedstrid(full_text))trace_free(trace_strid, (void*)full_text, __file__, __line__ );
   \                     ??__deleaker_GUIObject_SoftKeys_SetTexts_1:
   \   00000040   0900A0E1           MOV      R0,R9
   \   00000044   ........           BL       ??isallocatedstrid
   \   00000048   000050E3           CMP      R0,#+0
   \   0000004C   0400000A           BEQ      ??__deleaker_GUIObject_SoftKeys_SetTexts_2
   \   00000050   0530A0E1           MOV      R3,R5
   \   00000054   0420A0E1           MOV      R2,R4
   \   00000058   0910A0E1           MOV      R1,R9
   \   0000005C   0100A0E3           MOV      R0,#+1
   \   00000060   ........           BL       ??trace_free
    661          	return __original_GUIObject_SoftKeys_SetTexts(__unknwnargname1, actionID, short_text, full_text);
   \                     ??__deleaker_GUIObject_SoftKeys_SetTexts_2:
   \   00000064   0930A0E1           MOV      R3,R9
   \   00000068   0820A0E1           MOV      R2,R8
   \   0000006C   0710A0E1           MOV      R1,R7
   \   00000070   0600A0E1           MOV      R0,R6
   \   00000074   C70100EF           SWI      +455
   \   00000078   F083BDE8           POP      {R4-R9,PC}       ;; return
    662          }
    663          

   \                                 In segment CODE, align 4, keep-with-next
    664          TEXTID __deleaker_PNUM2Name( const char* __file__, int __line__, void* pnum, int isIconNeeded, int only_full_number_flag )
    665          {
   \                     ??__deleaker_PNUM2Name:
   \   00000000   70402DE9           PUSH     {R4-R6,LR}
   \   00000004   0040A0E1           MOV      R4,R0
   \   00000008   0150A0E1           MOV      R5,R1
   \   0000000C   0200A0E1           MOV      R0,R2
   \   00000010   10209DE5           LDR      R2,[SP, #+16]
   \   00000014   0310A0E1           MOV      R1,R3
    666          	TEXTID ret = __original_PNUM2Name(pnum, isIconNeeded, only_full_number_flag);
   \   00000018   ED0200EF           SWI      +749
   \   0000001C   0060A0E1           MOV      R6,R0
    667          	if(isallocatedstrid(ret))
   \   00000020   ........           BL       ??isallocatedstrid
   \   00000024   000050E3           CMP      R0,#+0
   \   00000028   0400000A           BEQ      ??__deleaker_PNUM2Name_1
    668          		trace_alloc(trace_strid, (void*)ret, __file__, __line__);
   \   0000002C   0530A0E1           MOV      R3,R5
   \   00000030   0420A0E1           MOV      R2,R4
   \   00000034   0610A0E1           MOV      R1,R6
   \   00000038   0100A0E3           MOV      R0,#+1
   \   0000003C   ........           BL       ??trace_alloc
    669          	return ret;
   \                     ??__deleaker_PNUM2Name_1:
   \   00000040   0600A0E1           MOV      R0,R6
   \   00000044   7080BDE8           POP      {R4-R6,PC}       ;; return
    670          }
    671          

   \                                 In segment CODE, align 4, keep-with-next
    672          int __deleaker_Date2ID( const char* __file__, int __line__, DATE* __unknwnargname1, int TimeFormat, int __unknwnargname3 )
    673          {
   \                     ??__deleaker_Date2ID:
   \   00000000   70402DE9           PUSH     {R4-R6,LR}
   \   00000004   0040A0E1           MOV      R4,R0
   \   00000008   0150A0E1           MOV      R5,R1
   \   0000000C   0200A0E1           MOV      R0,R2
   \   00000010   10209DE5           LDR      R2,[SP, #+16]
   \   00000014   0310A0E1           MOV      R1,R3
    674          	int ret = __original_Date2ID(__unknwnargname1, TimeFormat, __unknwnargname3);
   \   00000018   BE0100EF           SWI      +446
   \   0000001C   0060A0E1           MOV      R6,R0
    675          	if(isallocatedstrid(ret))
   \   00000020   ........           BL       ??isallocatedstrid
   \   00000024   000050E3           CMP      R0,#+0
   \   00000028   0400000A           BEQ      ??__deleaker_Date2ID_1
    676          		trace_alloc(trace_strid, (void*)ret, __file__, __line__);
   \   0000002C   0530A0E1           MOV      R3,R5
   \   00000030   0420A0E1           MOV      R2,R4
   \   00000034   0610A0E1           MOV      R1,R6
   \   00000038   0100A0E3           MOV      R0,#+1
   \   0000003C   ........           BL       ??trace_alloc
    677          	return ret;
   \                     ??__deleaker_Date2ID_1:
   \   00000040   0600A0E1           MOV      R0,R6
   \   00000044   7080BDE8           POP      {R4-R6,PC}       ;; return
    678          }
    679          

   \                                 In segment CODE, align 4, keep-with-next
    680          int __deleaker_Time2ID( const char* __file__, int __line__, TIME* __unknwnargname1, char TimeFormat, int isSec )
    681          {
   \                     ??__deleaker_Time2ID:
   \   00000000   70402DE9           PUSH     {R4-R6,LR}
   \   00000004   0040A0E1           MOV      R4,R0
   \   00000008   0150A0E1           MOV      R5,R1
   \   0000000C   0200A0E1           MOV      R0,R2
   \   00000010   10209DE5           LDR      R2,[SP, #+16]
   \   00000014   0310A0E1           MOV      R1,R3
    682          	int ret = __original_Time2ID(__unknwnargname1, TimeFormat, isSec);
   \   00000018   BF0100EF           SWI      +447
   \   0000001C   0060A0E1           MOV      R6,R0
    683          	if(isallocatedstrid(ret))
   \   00000020   ........           BL       ??isallocatedstrid
   \   00000024   000050E3           CMP      R0,#+0
   \   00000028   0400000A           BEQ      ??__deleaker_Time2ID_1
    684          		trace_alloc(trace_strid, (void*)ret, __file__, __line__);
   \   0000002C   0530A0E1           MOV      R3,R5
   \   00000030   0420A0E1           MOV      R2,R4
   \   00000034   0610A0E1           MOV      R1,R6
   \   00000038   0100A0E3           MOV      R0,#+1
   \   0000003C   ........           BL       ??trace_alloc
    685          	return ret;
   \                     ??__deleaker_Time2ID_1:
   \   00000040   0600A0E1           MOV      R0,R6
   \   00000044   7080BDE8           POP      {R4-R6,PC}       ;; return
    686          }
    687          

   \                                 In segment CODE, align 4, keep-with-next
    688          TEXTID __deleaker_KeyCode2Name( const char* __file__, int __line__, int key_code )
    689          {
   \                     ??__deleaker_KeyCode2Name:
   \   00000000   70402DE9           PUSH     {R4-R6,LR}
   \   00000004   0040A0E1           MOV      R4,R0
   \   00000008   0150A0E1           MOV      R5,R1
   \   0000000C   0200A0E1           MOV      R0,R2
    690          	TEXTID ret = __original_KeyCode2Name(key_code);
   \   00000010   CB0200EF           SWI      +715
   \   00000014   0060A0E1           MOV      R6,R0
    691          	if(isallocatedstrid(ret))trace_alloc(trace_strid, (void*)ret, __file__, __line__);
   \   00000018   ........           BL       ??isallocatedstrid
   \   0000001C   000050E3           CMP      R0,#+0
   \   00000020   0400000A           BEQ      ??__deleaker_KeyCode2Name_1
   \   00000024   0530A0E1           MOV      R3,R5
   \   00000028   0420A0E1           MOV      R2,R4
   \   0000002C   0610A0E1           MOV      R1,R6
   \   00000030   0100A0E3           MOV      R0,#+1
   \   00000034   ........           BL       ??trace_alloc
    692          	return ret;
   \                     ??__deleaker_KeyCode2Name_1:
   \   00000038   0600A0E1           MOV      R0,R6
   \   0000003C   7080BDE8           POP      {R4-R6,PC}       ;; return
    693          }
    694          

   \                                 In segment CODE, align 4, keep-with-next
    695          void __deleaker_NOfMany_SetTexts( const char* __file__, int __line__, GUI_NOFMANY* __unknwnargname1, TEXTID* strids, int items_count )
    696          {
   \                     ??__deleaker_NOfMany_SetTexts:
   \   00000000   F0432DE9           PUSH     {R4-R9,LR}
   \   00000004   1C809DE5           LDR      R8,[SP, #+28]
   \   00000008   0040A0E1           MOV      R4,R0
   \   0000000C   0150A0E1           MOV      R5,R1
   \   00000010   0260A0E1           MOV      R6,R2
   \   00000014   0370A0E1           MOV      R7,R3
    697          	for(int i=0;i<items_count;i++)
   \   00000018   0090A0E3           MOV      R9,#+0
   \   0000001C   010058E3           CMP      R8,#+1
   \   00000020   0C0000AA           BGE      ??__deleaker_NOfMany_SetTexts_1
    698          		if(isallocatedstrid(strids[i]))trace_free(trace_strid, (void*)strids[i], __file__, __line__ );
    699          	__original_NOfMany_SetTexts(__unknwnargname1, strids, items_count);
   \                     ??__deleaker_NOfMany_SetTexts_2:
   \   00000024   0820A0E1           MOV      R2,R8
   \   00000028   0710A0E1           MOV      R1,R7
   \   0000002C   0600A0E1           MOV      R0,R6
   \   00000030   D50100EF           SWI      +469
    700          }
   \   00000034   F083BDE8           POP      {R4-R9,PC}       ;; return
   \                     ??__deleaker_NOfMany_SetTexts_3:
   \   00000038   000050E3           CMP      R0,#+0
   \   0000003C   0400000A           BEQ      ??__deleaker_NOfMany_SetTexts_4
   \   00000040   091197E7           LDR      R1,[R7, +R9, LSL #+2]
   \   00000044   0530A0E1           MOV      R3,R5
   \   00000048   0420A0E1           MOV      R2,R4
   \   0000004C   0100A0E3           MOV      R0,#+1
   \   00000050   ........           BL       ??trace_free
   \                     ??__deleaker_NOfMany_SetTexts_4:
   \   00000054   019089E2           ADD      R9,R9,#+1
   \                     ??__deleaker_NOfMany_SetTexts_1:
   \   00000058   080059E1           CMP      R9,R8
   \   0000005C   F0FFFFAA           BGE      ??__deleaker_NOfMany_SetTexts_2
   \   00000060   090197E7           LDR      R0,[R7, +R9, LSL #+2]
   \   00000064   ........           BL       ??isallocatedstrid
   \   00000068   000050E3           CMP      R0,#+0
   \   0000006C   F1FFFF0A           BEQ      ??__deleaker_NOfMany_SetTexts_3
   \   00000070   0100A0E3           MOV      R0,#+1
   \   00000074   EFFFFFEA           B        ??__deleaker_NOfMany_SetTexts_3
    701          

   \                                 In segment CODE, align 4, keep-with-next
    702          void __deleaker_OneOfMany_SetTexts( const char* __file__, int __line__, GUI_ONEOFMANY* __unknwnargname1, TEXTID* strids, int Count )
    703          {
   \                     ??__deleaker_OneOfMany_SetTexts:
   \   00000000   F0432DE9           PUSH     {R4-R9,LR}
   \   00000004   1C809DE5           LDR      R8,[SP, #+28]
   \   00000008   0040A0E1           MOV      R4,R0
   \   0000000C   0150A0E1           MOV      R5,R1
   \   00000010   0260A0E1           MOV      R6,R2
   \   00000014   0370A0E1           MOV      R7,R3
    704          	for(int i=0;i<Count;i++)
   \   00000018   0090A0E3           MOV      R9,#+0
   \   0000001C   010058E3           CMP      R8,#+1
   \   00000020   0C0000AA           BGE      ??__deleaker_OneOfMany_SetTexts_1
    705          		if(isallocatedstrid(strids[i]))trace_free(trace_strid, (void*)strids[i], __file__, __line__ );
    706          	__original_OneOfMany_SetTexts(__unknwnargname1, strids, Count);
   \                     ??__deleaker_OneOfMany_SetTexts_2:
   \   00000024   0820A0E1           MOV      R2,R8
   \   00000028   0710A0E1           MOV      R1,R7
   \   0000002C   0600A0E1           MOV      R0,R6
   \   00000030   480100EF           SWI      +328
    707          }
   \   00000034   F083BDE8           POP      {R4-R9,PC}       ;; return
   \                     ??__deleaker_OneOfMany_SetTexts_3:
   \   00000038   000050E3           CMP      R0,#+0
   \   0000003C   0400000A           BEQ      ??__deleaker_OneOfMany_SetTexts_4
   \   00000040   091197E7           LDR      R1,[R7, +R9, LSL #+2]
   \   00000044   0530A0E1           MOV      R3,R5
   \   00000048   0420A0E1           MOV      R2,R4
   \   0000004C   0100A0E3           MOV      R0,#+1
   \   00000050   ........           BL       ??trace_free
   \                     ??__deleaker_OneOfMany_SetTexts_4:
   \   00000054   019089E2           ADD      R9,R9,#+1
   \                     ??__deleaker_OneOfMany_SetTexts_1:
   \   00000058   080059E1           CMP      R9,R8
   \   0000005C   F0FFFFAA           BGE      ??__deleaker_OneOfMany_SetTexts_2
   \   00000060   090197E7           LDR      R0,[R7, +R9, LSL #+2]
   \   00000064   ........           BL       ??isallocatedstrid
   \   00000068   000050E3           CMP      R0,#+0
   \   0000006C   F1FFFF0A           BEQ      ??__deleaker_OneOfMany_SetTexts_3
   \   00000070   0100A0E3           MOV      R0,#+1
   \   00000074   EFFFFFEA           B        ??__deleaker_OneOfMany_SetTexts_3
    708          

   \                                 In segment CODE, align 4, keep-with-next
    709          void __deleaker_Feedback_SetText( const char* __file__, int __line__, GUI_FEEDBACK* __unknwnargname1, TEXTID __unknwnargname2 )
    710          {
   \                     ??__deleaker_Feedback_SetText:
   \   00000000   F0402DE9           PUSH     {R4-R7,LR}
   \   00000004   0040A0E1           MOV      R4,R0
   \   00000008   0150A0E1           MOV      R5,R1
   \   0000000C   0260A0E1           MOV      R6,R2
   \   00000010   0370A0E1           MOV      R7,R3
    711          	if(isallocatedstrid(__unknwnargname2))trace_free(trace_strid, (void*)__unknwnargname2, __file__, __line__ );
   \   00000014   0700A0E1           MOV      R0,R7
   \   00000018   ........           BL       ??isallocatedstrid
   \   0000001C   000050E3           CMP      R0,#+0
   \   00000020   0400000A           BEQ      ??__deleaker_Feedback_SetText_1
   \   00000024   0530A0E1           MOV      R3,R5
   \   00000028   0420A0E1           MOV      R2,R4
   \   0000002C   0710A0E1           MOV      R1,R7
   \   00000030   0100A0E3           MOV      R0,#+1
   \   00000034   ........           BL       ??trace_free
    712          	return __original_Feedback_SetText(__unknwnargname1, __unknwnargname2);
   \                     ??__deleaker_Feedback_SetText_1:
   \   00000038   0710A0E1           MOV      R1,R7
   \   0000003C   0600A0E1           MOV      R0,R6
   \   00000040   E30100EF           SWI      +483
   \   00000044   F080BDE8           POP      {R4-R7,PC}       ;; return
    713          }
    714          

   \                                 In segment CODE, align 4, keep-with-next
    715          int __deleaker_Gif2ID( const char* __file__, int __line__, u16 IMAGEHANDLE, const wchar_t* path, const wchar_t* fname, IMAGEID* __unknwnargname4 )
    716          {//проверить код ошибки
   \                     ??__deleaker_Gif2ID:
   \   00000000   F0402DE9           PUSH     {R4-R7,LR}
   \   00000004   18609DE5           LDR      R6,[SP, #+24]
   \   00000008   0040A0E1           MOV      R4,R0
   \   0000000C   0150A0E1           MOV      R5,R1
   \   00000010   0200A0E1           MOV      R0,R2
   \   00000014   14209DE5           LDR      R2,[SP, #+20]
   \   00000018   0310A0E1           MOV      R1,R3
    717          	int ret = __original_Gif2ID(IMAGEHANDLE, path, fname, __unknwnargname4);
   \   0000001C   0630A0E1           MOV      R3,R6
   \   00000020   6C0100EF           SWI      +364
   \   00000024   0070B0E1           MOVS     R7,R0
    718          	if(ret)trace_alloc(trace_iconid, (void*)*__unknwnargname4, __file__, __line__);
   \   00000028   0400000A           BEQ      ??__deleaker_Gif2ID_1
   \   0000002C   B010D6E1           LDRH     R1,[R6, #+0]
   \   00000030   0530A0E1           MOV      R3,R5
   \   00000034   0420A0E1           MOV      R2,R4
   \   00000038   0200A0E3           MOV      R0,#+2
   \   0000003C   ........           BL       ??trace_alloc
    719          	return ret;
   \                     ??__deleaker_Gif2ID_1:
   \   00000040   0700A0E1           MOV      R0,R7
   \   00000044   F080BDE8           POP      {R4-R7,PC}       ;; return
    720          }
    721          

   \                                 In segment CODE, align 4, keep-with-next
    722          void __deleaker_GUIObject_SetTitleIcon( const char* __file__, int __line__, GUI* __unknwnargname1, IMAGEID __unknwnargname2 )
    723          {
   \                     ??__deleaker_GUIObject_SetTitleIcon:
   \   00000000   F0402DE9           PUSH     {R4-R7,LR}
   \   00000004   0040A0E1           MOV      R4,R0
   \   00000008   0150A0E1           MOV      R5,R1
   \   0000000C   0260A0E1           MOV      R6,R2
   \   00000010   0370A0E1           MOV      R7,R3
    724          	if(isallocatediconid(__unknwnargname2))trace_free(trace_iconid, (void*)__unknwnargname2, __file__, __line__ );
   \   00000014   0700A0E1           MOV      R0,R7
   \   00000018   ........           BL       ??isallocatediconid
   \   0000001C   000050E3           CMP      R0,#+0
   \   00000020   0400000A           BEQ      ??__deleaker_GUIObject_SetTitleIcon_1
   \   00000024   0530A0E1           MOV      R3,R5
   \   00000028   0420A0E1           MOV      R2,R4
   \   0000002C   0710A0E1           MOV      R1,R7
   \   00000030   0200A0E3           MOV      R0,#+2
   \   00000034   ........           BL       ??trace_free
    725          	__original_GUIObject_SetTitleIcon(__unknwnargname1, __unknwnargname2);
   \                     ??__deleaker_GUIObject_SetTitleIcon_1:
   \   00000038   0710A0E1           MOV      R1,R7
   \   0000003C   0600A0E1           MOV      R0,R6
   \   00000040   140300EF           SWI      +788
    726          }
   \   00000044   F080BDE8           POP      {R4-R7,PC}       ;; return
    727          

   \                                 In segment CODE, align 4, keep-with-next
    728          void __deleaker_GUIInput_SetIcon( const char* __file__, int __line__, GUI* __unknwnargname1, IMAGEID __unknwnargname2 )
    729          {
   \                     ??__deleaker_GUIInput_SetIcon:
   \   00000000   F0402DE9           PUSH     {R4-R7,LR}
   \   00000004   0040A0E1           MOV      R4,R0
   \   00000008   0150A0E1           MOV      R5,R1
   \   0000000C   0260A0E1           MOV      R6,R2
   \   00000010   0370A0E1           MOV      R7,R3
    730          	if(isallocatediconid(__unknwnargname2))trace_free(trace_iconid, (void*)__unknwnargname2, __file__, __line__ );
   \   00000014   0700A0E1           MOV      R0,R7
   \   00000018   ........           BL       ??isallocatediconid
   \   0000001C   000050E3           CMP      R0,#+0
   \   00000020   0400000A           BEQ      ??__deleaker_GUIInput_SetIcon_1
   \   00000024   0530A0E1           MOV      R3,R5
   \   00000028   0420A0E1           MOV      R2,R4
   \   0000002C   0710A0E1           MOV      R1,R7
   \   00000030   0200A0E3           MOV      R0,#+2
   \   00000034   ........           BL       ??trace_free
    731          	__original_GUIInput_SetIcon(__unknwnargname1, __unknwnargname2);
   \                     ??__deleaker_GUIInput_SetIcon_1:
   \   00000038   0710A0E1           MOV      R1,R7
   \   0000003C   0600A0E1           MOV      R0,R6
   \   00000040   CF0100EF           SWI      +463
    732          }
   \   00000044   F080BDE8           POP      {R4-R7,PC}       ;; return
    733          

   \                                 In segment CODE, align 4, keep-with-next
    734          void __deleaker_ProgressBar_SetIcon( const char* __file__, int __line__, GUI* __unknwnargname1, IMAGEID __unknwnargname2 )
    735          {
   \                     ??__deleaker_ProgressBar_SetIcon:
   \   00000000   F0402DE9           PUSH     {R4-R7,LR}
   \   00000004   0040A0E1           MOV      R4,R0
   \   00000008   0150A0E1           MOV      R5,R1
   \   0000000C   0260A0E1           MOV      R6,R2
   \   00000010   0370A0E1           MOV      R7,R3
    736          	if(isallocatediconid(__unknwnargname2))trace_free(trace_iconid, (void*)__unknwnargname2, __file__, __line__ );
   \   00000014   0700A0E1           MOV      R0,R7
   \   00000018   ........           BL       ??isallocatediconid
   \   0000001C   000050E3           CMP      R0,#+0
   \   00000020   0400000A           BEQ      ??__deleaker_ProgressBar_SetIcon_1
   \   00000024   0530A0E1           MOV      R3,R5
   \   00000028   0420A0E1           MOV      R2,R4
   \   0000002C   0710A0E1           MOV      R1,R7
   \   00000030   0200A0E3           MOV      R0,#+2
   \   00000034   ........           BL       ??trace_free
    737          	__original_ProgressBar_SetIcon(__unknwnargname1, __unknwnargname2);
   \                     ??__deleaker_ProgressBar_SetIcon_1:
   \   00000038   0710A0E1           MOV      R1,R7
   \   0000003C   0600A0E1           MOV      R0,R6
   \   00000040   0F0300EF           SWI      +783
    738          }
   \   00000044   F080BDE8           POP      {R4-R7,PC}       ;; return
    739          

   \                                 In segment CODE, align 4, keep-with-next
    740          void __deleaker_GUIonMessage_SetMenuItemIcon( const char* __file__, int __line__, GUI_MESSAGE* msg, int align, IMAGEID __unknwnargname3 )
    741          {
   \                     ??__deleaker_GUIonMessage_SetMenuItemIcon:
   \   00000000   F0412DE9           PUSH     {R4-R8,LR}
   \   00000004   B881DDE1           LDRH     R8,[SP, #+24]
   \   00000008   0040A0E1           MOV      R4,R0
   \   0000000C   0150A0E1           MOV      R5,R1
   \   00000010   0260A0E1           MOV      R6,R2
   \   00000014   0370A0E1           MOV      R7,R3
    742          	if(isallocatediconid(__unknwnargname3))trace_free(trace_iconid, (void*)__unknwnargname3, __file__, __line__ );
   \   00000018   0800A0E1           MOV      R0,R8
   \   0000001C   ........           BL       ??isallocatediconid
   \   00000020   000050E3           CMP      R0,#+0
   \   00000024   0400000A           BEQ      ??__deleaker_GUIonMessage_SetMenuItemIcon_1
   \   00000028   0530A0E1           MOV      R3,R5
   \   0000002C   0420A0E1           MOV      R2,R4
   \   00000030   0810A0E1           MOV      R1,R8
   \   00000034   0200A0E3           MOV      R0,#+2
   \   00000038   ........           BL       ??trace_free
    743          	__original_GUIonMessage_SetMenuItemIcon(msg, align, __unknwnargname3);
   \                     ??__deleaker_GUIonMessage_SetMenuItemIcon_1:
   \   0000003C   0820A0E1           MOV      R2,R8
   \   00000040   0710A0E1           MOV      R1,R7
   \   00000044   0600A0E1           MOV      R0,R6
   \   00000048   3C0100EF           SWI      +316
    744          }
   \   0000004C   F081BDE8           POP      {R4-R8,PC}       ;; return
    745          

   \                                 In segment CODE, align 4, keep-with-next
    746          void __deleaker_TabMenuBar_SetTabIcon( const char* __file__, int __line__, GUI_TABMENUBAR* __unknwnargname1, int tab, IMAGEID __unknwnargname3, int for_state )
    747          {
   \                     ??__deleaker_TabMenuBar_SetTabIcon:
   \   00000000   F0432DE9           PUSH     {R4-R9,LR}
   \   00000004   BC81DDE1           LDRH     R8,[SP, #+28]
   \   00000008   0040A0E1           MOV      R4,R0
   \   0000000C   20909DE5           LDR      R9,[SP, #+32]
   \   00000010   0150A0E1           MOV      R5,R1
   \   00000014   0260A0E1           MOV      R6,R2
   \   00000018   0370A0E1           MOV      R7,R3
    748          	if(isallocatediconid(__unknwnargname3))trace_free(trace_iconid, (void*)__unknwnargname3, __file__, __line__ );
   \   0000001C   0800A0E1           MOV      R0,R8
   \   00000020   ........           BL       ??isallocatediconid
   \   00000024   000050E3           CMP      R0,#+0
   \   00000028   0400000A           BEQ      ??__deleaker_TabMenuBar_SetTabIcon_1
   \   0000002C   0530A0E1           MOV      R3,R5
   \   00000030   0420A0E1           MOV      R2,R4
   \   00000034   0810A0E1           MOV      R1,R8
   \   00000038   0200A0E3           MOV      R0,#+2
   \   0000003C   ........           BL       ??trace_free
    749          	__original_TabMenuBar_SetTabIcon(__unknwnargname1, tab, __unknwnargname3, for_state);
   \                     ??__deleaker_TabMenuBar_SetTabIcon_1:
   \   00000040   0930A0E1           MOV      R3,R9
   \   00000044   0820A0E1           MOV      R2,R8
   \   00000048   0710A0E1           MOV      R1,R7
   \   0000004C   0600A0E1           MOV      R0,R6
   \   00000050   CD0100EF           SWI      +461
    750          }
   \   00000054   F083BDE8           POP      {R4-R9,PC}       ;; return
    751          

   \                                 In segment CODE, align 4, keep-with-next
    752          void __deleaker_VCALL_SetNameIcon( const char* __file__, int __line__, void* vc, IMAGEID __unknwnargname2 )
    753          {
   \                     ??__deleaker_VCALL_SetNameIcon:
   \   00000000   F0402DE9           PUSH     {R4-R7,LR}
   \   00000004   0040A0E1           MOV      R4,R0
   \   00000008   0150A0E1           MOV      R5,R1
   \   0000000C   0260A0E1           MOV      R6,R2
   \   00000010   0370A0E1           MOV      R7,R3
    754          	if(isallocatediconid(__unknwnargname2))trace_free(trace_iconid, (void*)__unknwnargname2, __file__, __line__ );
   \   00000014   0700A0E1           MOV      R0,R7
   \   00000018   ........           BL       ??isallocatediconid
   \   0000001C   000050E3           CMP      R0,#+0
   \   00000020   0400000A           BEQ      ??__deleaker_VCALL_SetNameIcon_1
   \   00000024   0530A0E1           MOV      R3,R5
   \   00000028   0420A0E1           MOV      R2,R4
   \   0000002C   0710A0E1           MOV      R1,R7
   \   00000030   0200A0E3           MOV      R0,#+2
   \   00000034   ........           BL       ??trace_free
    755          	__original_VCALL_SetNameIcon(vc, __unknwnargname2);
   \                     ??__deleaker_VCALL_SetNameIcon_1:
   \   00000038   0710A0E1           MOV      R1,R7
   \   0000003C   0600A0E1           MOV      R0,R6
   \   00000040   040200EF           SWI      +516
    756          }
   \   00000044   F080BDE8           POP      {R4-R7,PC}       ;; return
    757          

   \                                 In segment CODE, align 4, keep-with-next
    758          int __deleaker_ModifyKeyHook( const char* __file__, int __line__, KEYHOOKPROC proc, int mode, LPARAM lparam )
    759          {
   \                     ??__deleaker_ModifyKeyHook:
   \   00000000   F0412DE9           PUSH     {R4-R8,LR}
   \   00000004   0040A0E1           MOV      R4,R0
   \   00000008   0150A0E1           MOV      R5,R1
   \   0000000C   0260A0E1           MOV      R6,R2
   \   00000010   18209DE5           LDR      R2,[SP, #+24]
   \   00000014   0370A0E1           MOV      R7,R3
    760          	int ret = __original_ModifyKeyHook(proc, mode, lparam);
   \   00000018   0710A0E1           MOV      R1,R7
   \   0000001C   0600A0E1           MOV      R0,R6
   \   00000020   070100EF           SWI      +263
   \   00000024   0080A0E1           MOV      R8,R0
    761          	if(mode==KEY_HOOK_REMOVE)trace_free(trace_hook, (void*)proc, __file__, __line__ );
   \   00000028   000057E3           CMP      R7,#+0
   \   0000002C   0600001A           BNE      ??__deleaker_ModifyKeyHook_1
   \   00000030   0530A0E1           MOV      R3,R5
   \   00000034   0420A0E1           MOV      R2,R4
   \   00000038   0610A0E1           MOV      R1,R6
   \   0000003C   0500A0E3           MOV      R0,#+5
   \   00000040   ........           BL       ??trace_free
   \   00000044   0800A0E1           MOV      R0,R8
   \   00000048   F081BDE8           POP      {R4-R8,PC}
    762          	if(mode==KEY_HOOK_ADD)trace_alloc(trace_hook, (void*)proc, __file__, __line__);
   \                     ??__deleaker_ModifyKeyHook_1:
   \   0000004C   010057E3           CMP      R7,#+1
   \   00000050   0400001A           BNE      ??__deleaker_ModifyKeyHook_2
   \   00000054   0530A0E1           MOV      R3,R5
   \   00000058   0420A0E1           MOV      R2,R4
   \   0000005C   0610A0E1           MOV      R1,R6
   \   00000060   0500A0E3           MOV      R0,#+5
   \   00000064   ........           BL       ??trace_alloc
    763          	return ret;
   \                     ??__deleaker_ModifyKeyHook_2:
   \   00000068   0800A0E1           MOV      R0,R8
   \   0000006C   F081BDE8           POP      {R4-R8,PC}       ;; return
    764          }
    765          

   \                                 In segment CODE, align 4, keep-with-next
    766          int __deleaker_ModifyUIPageHook( const char* __file__, int __line__, int event, PAGEHOOKPROC proc, LPARAM ClientData, int mode )
    767          {
   \                     ??__deleaker_ModifyUIPageHook:
   \   00000000   F0412DE9           PUSH     {R4-R8,LR}
   \   00000004   1C709DE5           LDR      R7,[SP, #+28]
   \   00000008   0040A0E1           MOV      R4,R0
   \   0000000C   0150A0E1           MOV      R5,R1
   \   00000010   0200A0E1           MOV      R0,R2
   \   00000014   18209DE5           LDR      R2,[SP, #+24]
   \   00000018   0360A0E1           MOV      R6,R3
    768          	int ret = __original_ModifyUIPageHook(event, proc, ClientData, mode);
   \   0000001C   0730A0E1           MOV      R3,R7
   \   00000020   0610A0E1           MOV      R1,R6
   \   00000024   100100EF           SWI      +272
   \   00000028   0080A0E1           MOV      R8,R0
    769          	if(mode==PAGE_HOOK_REMOVE)trace_free(trace_hook, (void*)proc, __file__, __line__ );
   \   0000002C   000057E3           CMP      R7,#+0
   \   00000030   0600001A           BNE      ??__deleaker_ModifyUIPageHook_1
   \   00000034   0530A0E1           MOV      R3,R5
   \   00000038   0420A0E1           MOV      R2,R4
   \   0000003C   0610A0E1           MOV      R1,R6
   \   00000040   0500A0E3           MOV      R0,#+5
   \   00000044   ........           BL       ??trace_free
   \   00000048   0800A0E1           MOV      R0,R8
   \   0000004C   F081BDE8           POP      {R4-R8,PC}
    770          	if(mode==PAGE_HOOK_ADD_BEFORE || mode==PAGE_HOOK_ADD_AFTER)trace_alloc(trace_hook, (void*)proc, __file__, __line__);
   \                     ??__deleaker_ModifyUIPageHook_1:
   \   00000050   010057E3           CMP      R7,#+1
   \   00000054   02005713           CMPNE    R7,#+2
   \   00000058   0400001A           BNE      ??__deleaker_ModifyUIPageHook_2
   \   0000005C   0530A0E1           MOV      R3,R5
   \   00000060   0420A0E1           MOV      R2,R4
   \   00000064   0610A0E1           MOV      R1,R6
   \   00000068   0500A0E3           MOV      R0,#+5
   \   0000006C   ........           BL       ??trace_alloc
    771          	return ret;
   \                     ??__deleaker_ModifyUIPageHook_2:
   \   00000070   0800A0E1           MOV      R0,R8
   \   00000074   F081BDE8           POP      {R4-R8,PC}       ;; return
    772          }
    773          

   \                                 In segment CODE, align 4, keep-with-next
    774          int __deleaker_ImageID_Get( const char* __file__, int __line__, const wchar_t* fpath, const wchar_t* fname, IMAGEID* __unknwnargname3 )
    775          {
   \                     ??__deleaker_ImageID_Get:
   \   00000000   F0402DE9           PUSH     {R4-R7,LR}
   \   00000004   14609DE5           LDR      R6,[SP, #+20]
   \   00000008   0040A0E1           MOV      R4,R0
   \   0000000C   0150A0E1           MOV      R5,R1
   \   00000010   0200A0E1           MOV      R0,R2
   \   00000014   0310A0E1           MOV      R1,R3
    776          	int ret = __original_ImageID_Get(fpath, fname, __unknwnargname3);
   \   00000018   0620A0E1           MOV      R2,R6
   \   0000001C   CC0200EF           SWI      +716
   \   00000020   0070B0E1           MOVS     R7,R0
    777          	if(ret>=0 && isallocatediconid(*__unknwnargname3))
   \   00000024   0900004A           BMI      ??__deleaker_ImageID_Get_1
   \   00000028   B060D6E1           LDRH     R6,[R6, #+0]
   \   0000002C   0600A0E1           MOV      R0,R6
   \   00000030   ........           BL       ??isallocatediconid
   \   00000034   000050E3           CMP      R0,#+0
   \   00000038   0400000A           BEQ      ??__deleaker_ImageID_Get_1
    778          		trace_alloc(trace_iconid, (void*)(*__unknwnargname3), __file__, __line__);
   \   0000003C   0530A0E1           MOV      R3,R5
   \   00000040   0420A0E1           MOV      R2,R4
   \   00000044   0610A0E1           MOV      R1,R6
   \   00000048   0200A0E3           MOV      R0,#+2
   \   0000004C   ........           BL       ??trace_alloc
    779          	return ret;
   \                     ??__deleaker_ImageID_Get_1:
   \   00000050   0700A0E1           MOV      R0,R7
   \   00000054   F080BDE8           POP      {R4-R7,PC}       ;; return
    780          }
    781          

   \                                 In segment CODE, align 4, keep-with-next
    782          int __deleaker_ImageID_GetIndirect( const char* __file__, int __line__, void* buf_image, int size, int __NULL, wchar_t* image_type, IMAGEID* __unknwnargname5 )
    783          {//проверить возвращаемое значение
   \                     ??__deleaker_ImageID_GetIndirect:
   \   00000000   F0412DE9           PUSH     {R4-R8,LR}
   \   00000004   20709DE5           LDR      R7,[SP, #+32]
   \   00000008   0040A0E1           MOV      R4,R0
   \   0000000C   0150A0E1           MOV      R5,R1
   \   00000010   0260A0E1           MOV      R6,R2
   \   00000014   18209DE5           LDR      R2,[SP, #+24]
   \   00000018   0310A0E1           MOV      R1,R3
   \   0000001C   1C309DE5           LDR      R3,[SP, #+28]
    784          	int ret = __original_ImageID_GetIndirect(buf_image, size, __NULL, image_type, __unknwnargname5);
   \   00000020   0700A0E1           MOV      R0,R7
   \   00000024   01002DE9           PUSH     {R0}
   \   00000028   0600A0E1           MOV      R0,R6
   \   0000002C   020300EF           SWI      +770
   \   00000030   0080A0E1           MOV      R8,R0
    785          	trace_free(trace_memory, buf_image, __file__, __line__);
   \   00000034   0530A0E1           MOV      R3,R5
   \   00000038   0420A0E1           MOV      R2,R4
   \   0000003C   0610A0E1           MOV      R1,R6
   \   00000040   0000A0E3           MOV      R0,#+0
   \   00000044   ........           BL       ??trace_free
    786          	trace_alloc(trace_iconid, (void*)(*__unknwnargname5), __file__, __line__);
   \   00000048   B010D7E1           LDRH     R1,[R7, #+0]
   \   0000004C   0530A0E1           MOV      R3,R5
   \   00000050   0420A0E1           MOV      R2,R4
   \   00000054   0200A0E3           MOV      R0,#+2
   \   00000058   ........           BL       ??trace_alloc
    787          	return ret;
   \   0000005C   0800A0E1           MOV      R0,R8
   \   00000060   F281BDE8           POP      {R1,R4-R8,PC}    ;; return
    788          }
    789          

   \                                 In segment CODE, align 4, keep-with-next
    790          void __deleaker_ImageID_Free( const char* __file__, int __line__, IMAGEID __unknwnargname1 )
    791          {
   \                     ??__deleaker_ImageID_Free:
   \   00000000   70402DE9           PUSH     {R4-R6,LR}
   \   00000004   0040A0E1           MOV      R4,R0
   \   00000008   0150A0E1           MOV      R5,R1
   \   0000000C   0260A0E1           MOV      R6,R2
    792          	if(isallocatediconid(__unknwnargname1))trace_free(trace_iconid, (void*)__unknwnargname1, __file__, __line__);
   \   00000010   0600A0E1           MOV      R0,R6
   \   00000014   ........           BL       ??isallocatediconid
   \   00000018   000050E3           CMP      R0,#+0
   \   0000001C   0400000A           BEQ      ??__deleaker_ImageID_Free_1
   \   00000020   0530A0E1           MOV      R3,R5
   \   00000024   0420A0E1           MOV      R2,R4
   \   00000028   0610A0E1           MOV      R1,R6
   \   0000002C   0200A0E3           MOV      R0,#+2
   \   00000030   ........           BL       ??trace_free
    793          	__original_ImageID_Free(__unknwnargname1);
   \                     ??__deleaker_ImageID_Free_1:
   \   00000034   0600A0E1           MOV      R0,R6
   \   00000038   CD0200EF           SWI      +717
    794          }
   \   0000003C   7080BDE8           POP      {R4-R6,PC}       ;; return
    795          

   \                                 In segment CODE, align 4, keep-with-next
    796          GC* __deleaker_GC_CreateMemoryGC( const char* __file__, int __line__, int xsize, int ysize, int bpp, int unk, void* somefn, int unk2 )
    797          {
   \                     ??__deleaker_GC_CreateMemoryGC:
   \   00000000   70402DE9           PUSH     {R4-R6,LR}
   \   00000004   18C09DE5           LDR      R12,[SP, #+24]
   \   00000008   0040A0E1           MOV      R4,R0
   \   0000000C   0150A0E1           MOV      R5,R1
   \   00000010   1CE09DE5           LDR      LR,[SP, #+28]
   \   00000014   0200A0E1           MOV      R0,R2
   \   00000018   10209DE5           LDR      R2,[SP, #+16]
   \   0000001C   0310A0E1           MOV      R1,R3
   \   00000020   14309DE5           LDR      R3,[SP, #+20]
    798          	GC* ret = __original_GC_CreateMemoryGC(xsize, ysize, bpp, unk, somefn, unk2);
   \   00000024   00402DE9           PUSH     {LR}
   \   00000028   00102DE9           PUSH     {R12}
   \   0000002C   950300EF           SWI      +917
   \   00000030   0060B0E1           MOVS     R6,R0
    799          	if(ret)trace_alloc(trace_gc, (void*)ret, __file__, __line__);
   \   00000034   08D08DE2           ADD      SP,SP,#+8
   \   00000038   0400000A           BEQ      ??__deleaker_GC_CreateMemoryGC_1
   \   0000003C   0530A0E1           MOV      R3,R5
   \   00000040   0420A0E1           MOV      R2,R4
   \   00000044   0610A0E1           MOV      R1,R6
   \   00000048   0700A0E3           MOV      R0,#+7
   \   0000004C   ........           BL       ??trace_alloc
    800          	return ret;
   \                     ??__deleaker_GC_CreateMemoryGC_1:
   \   00000050   0600A0E1           MOV      R0,R6
   \   00000054   7080BDE8           POP      {R4-R6,PC}       ;; return
    801          }
    802          

   \                                 In segment CODE, align 4, keep-with-next
    803          void __deleaker_GC_FreeGC( const char* __file__, int __line__, GC* gc )
    804          {
   \                     ??__deleaker_GC_FreeGC:
   \   00000000   10402DE9           PUSH     {R4,LR}
    805          	trace_free(trace_gc, gc, __file__, __line__);
   \   00000004   0130A0E1           MOV      R3,R1
   \   00000008   0240A0E1           MOV      R4,R2
   \   0000000C   0020A0E1           MOV      R2,R0
   \   00000010   0410A0E1           MOV      R1,R4
   \   00000014   0700A0E3           MOV      R0,#+7
   \   00000018   ........           BL       ??trace_free
    806          	__original_GC_FreeGC(gc);
   \   0000001C   0400A0E1           MOV      R0,R4
   \   00000020   960300EF           SWI      +918
    807          }
   \   00000024   1080BDE8           POP      {R4,PC}          ;; return
    808          

   \                                 In segment CODE, align 4, keep-with-next
    809          GVI_PEN __deleaker_GVI_CreateDashedPen( const char* __file__, int __line__, char thikness, int color, int bitmask, int step, int offset )
    810          {
   \                     ??__deleaker_GVI_CreateDashedPen:
   \   00000000   70402DE9           PUSH     {R4-R6,LR}
   \   00000004   18C09DE5           LDR      R12,[SP, #+24]
   \   00000008   0040A0E1           MOV      R4,R0
   \   0000000C   0150A0E1           MOV      R5,R1
   \   00000010   0200A0E1           MOV      R0,R2
   \   00000014   10209DE5           LDR      R2,[SP, #+16]
   \   00000018   0310A0E1           MOV      R1,R3
   \   0000001C   14309DE5           LDR      R3,[SP, #+20]
    811          	GVI_PEN ret = __original_GVI_CreateDashedPen(thikness, color, bitmask, step, offset);
   \   00000020   00102DE9           PUSH     {R12}
   \   00000024   810300EF           SWI      +897
   \   00000028   0060B0E1           MOVS     R6,R0
    812          	if(ret)trace_alloc(trace_gvi, (void*)ret, __file__, __line__);
   \   0000002C   04D08DE2           ADD      SP,SP,#+4
   \   00000030   0400000A           BEQ      ??__deleaker_GVI_CreateDashedPen_1
   \   00000034   0530A0E1           MOV      R3,R5
   \   00000038   0420A0E1           MOV      R2,R4
   \   0000003C   0610A0E1           MOV      R1,R6
   \   00000040   0800A0E3           MOV      R0,#+8
   \   00000044   ........           BL       ??trace_alloc
    813          	return ret;
   \                     ??__deleaker_GVI_CreateDashedPen_1:
   \   00000048   0600A0E1           MOV      R0,R6
   \   0000004C   7080BDE8           POP      {R4-R6,PC}       ;; return
    814          }
    815          

   \                                 In segment CODE, align 4, keep-with-next
    816          GVI_PEN __deleaker_GVI_CreatePen( const char* __file__, int __line__, char thikness, int color )
    817          {
   \                     ??__deleaker_GVI_CreatePen:
   \   00000000   70402DE9           PUSH     {R4-R6,LR}
   \   00000004   0040A0E1           MOV      R4,R0
   \   00000008   0150A0E1           MOV      R5,R1
   \   0000000C   0200A0E1           MOV      R0,R2
   \   00000010   0310A0E1           MOV      R1,R3
    818          	GVI_PEN ret = __original_GVI_CreatePen(thikness, color);
   \   00000014   800300EF           SWI      +896
   \   00000018   0060B0E1           MOVS     R6,R0
    819          	if(ret)trace_alloc(trace_gvi, (void*)ret, __file__, __line__);
   \   0000001C   0400000A           BEQ      ??__deleaker_GVI_CreatePen_1
   \   00000020   0530A0E1           MOV      R3,R5
   \   00000024   0420A0E1           MOV      R2,R4
   \   00000028   0610A0E1           MOV      R1,R6
   \   0000002C   0800A0E3           MOV      R0,#+8
   \   00000030   ........           BL       ??trace_alloc
    820          	return ret;
   \                     ??__deleaker_GVI_CreatePen_1:
   \   00000034   0600A0E1           MOV      R0,R6
   \   00000038   7080BDE8           POP      {R4-R6,PC}       ;; return
    821          }
    822          

   \                                 In segment CODE, align 4, keep-with-next
    823          GVI_BRUSH __deleaker_GVI_CreateSolidBrush( const char* __file__, int __line__, int color )
    824          {
   \                     ??__deleaker_GVI_CreateSolidBrush:
   \   00000000   70402DE9           PUSH     {R4-R6,LR}
   \   00000004   0040A0E1           MOV      R4,R0
   \   00000008   0150A0E1           MOV      R5,R1
   \   0000000C   0200A0E1           MOV      R0,R2
    825          	GVI_BRUSH ret = __original_GVI_CreateSolidBrush(color);
   \   00000010   820300EF           SWI      +898
   \   00000014   0060B0E1           MOVS     R6,R0
    826          	if(ret)trace_alloc(trace_gvi, (void*)ret, __file__, __line__);
   \   00000018   0400000A           BEQ      ??__deleaker_GVI_CreateSolidBrush_1
   \   0000001C   0530A0E1           MOV      R3,R5
   \   00000020   0420A0E1           MOV      R2,R4
   \   00000024   0610A0E1           MOV      R1,R6
   \   00000028   0800A0E3           MOV      R0,#+8
   \   0000002C   ........           BL       ??trace_alloc
    827          	return ret;
   \                     ??__deleaker_GVI_CreateSolidBrush_1:
   \   00000030   0600A0E1           MOV      R0,R6
   \   00000034   7080BDE8           POP      {R4-R6,PC}       ;; return
    828          }
    829          

   \                                 In segment CODE, align 4, keep-with-next
    830          GVI_BMP __deleaker_GVI_CreateBitmap( const char* __file__, int __line__, int xsize, int ysize, int bpp )
    831          {
   \                     ??__deleaker_GVI_CreateBitmap:
   \   00000000   70402DE9           PUSH     {R4-R6,LR}
   \   00000004   0040A0E1           MOV      R4,R0
   \   00000008   0150A0E1           MOV      R5,R1
   \   0000000C   0200A0E1           MOV      R0,R2
   \   00000010   10209DE5           LDR      R2,[SP, #+16]
   \   00000014   0310A0E1           MOV      R1,R3
    832          	GVI_BMP ret = __original_GVI_CreateBitmap(xsize, ysize, bpp);
   \   00000018   9B0300EF           SWI      +923
   \   0000001C   0060B0E1           MOVS     R6,R0
    833          	if(ret)trace_alloc(trace_gvi, (void*)ret, __file__, __line__);
   \   00000020   0400000A           BEQ      ??__deleaker_GVI_CreateBitmap_1
   \   00000024   0530A0E1           MOV      R3,R5
   \   00000028   0420A0E1           MOV      R2,R4
   \   0000002C   0610A0E1           MOV      R1,R6
   \   00000030   0800A0E3           MOV      R0,#+8
   \   00000034   ........           BL       ??trace_alloc
    834          	return ret;
   \                     ??__deleaker_GVI_CreateBitmap_1:
   \   00000038   0600A0E1           MOV      R0,R6
   \   0000003C   7080BDE8           POP      {R4-R6,PC}       ;; return
    835          }
    836          

   \                                 In segment CODE, align 4, keep-with-next
    837          GVI_GC __deleaker_GVI_CreateMemoryGC( const char* __file__, int __line__, GVI_BMP bitmap )
    838          {
   \                     ??__deleaker_GVI_CreateMemoryGC:
   \   00000000   70402DE9           PUSH     {R4-R6,LR}
   \   00000004   0040A0E1           MOV      R4,R0
   \   00000008   0150A0E1           MOV      R5,R1
   \   0000000C   0200A0E1           MOV      R0,R2
    839          	GVI_GC ret = __original_GVI_CreateMemoryGC(bitmap);
   \   00000010   9C0300EF           SWI      +924
   \   00000014   0060B0E1           MOVS     R6,R0
    840          	if(ret)trace_alloc(trace_gvi, (void*)ret, __file__, __line__);
   \   00000018   0400000A           BEQ      ??__deleaker_GVI_CreateMemoryGC_1
   \   0000001C   0530A0E1           MOV      R3,R5
   \   00000020   0420A0E1           MOV      R2,R4
   \   00000024   0610A0E1           MOV      R1,R6
   \   00000028   0800A0E3           MOV      R0,#+8
   \   0000002C   ........           BL       ??trace_alloc
    841          	return ret;
   \                     ??__deleaker_GVI_CreateMemoryGC_1:
   \   00000030   0600A0E1           MOV      R0,R6
   \   00000034   7080BDE8           POP      {R4-R6,PC}       ;; return
    842          }
    843          

   \                                 In segment CODE, align 4, keep-with-next
    844          BOOL __deleaker_GVI_Delete_GVI_Object( const char* __file__, int __line__, GVI_OBJ* __unknwnargname1 )
    845          {
   \                     ??__deleaker_GVI_Delete_GVI_Object:
   \   00000000   10402DE9           PUSH     {R4,LR}
    846          	trace_free(trace_gvi, *__unknwnargname1, __file__, __line__);
   \   00000004   0130A0E1           MOV      R3,R1
   \   00000008   0240A0E1           MOV      R4,R2
   \   0000000C   001094E5           LDR      R1,[R4, #+0]
   \   00000010   0020A0E1           MOV      R2,R0
   \   00000014   0800A0E3           MOV      R0,#+8
   \   00000018   ........           BL       ??trace_free
    847          	return __original_GVI_Delete_GVI_Object(__unknwnargname1);
   \   0000001C   0400A0E1           MOV      R0,R4
   \   00000020   830300EF           SWI      +899
   \   00000024   1080BDE8           POP      {R4,PC}          ;; return
    848          }
    849          

   \                                 In segment CODE, align 4, keep-with-next
    850          void __deleaker_GVI_DeleteMemoryGC( const char* __file__, int __line__, GVI_GC gc )
    851          {
   \                     ??__deleaker_GVI_DeleteMemoryGC:
   \   00000000   10402DE9           PUSH     {R4,LR}
    852          	trace_free(trace_gvi, gc, __file__, __line__);
   \   00000004   0130A0E1           MOV      R3,R1
   \   00000008   0240A0E1           MOV      R4,R2
   \   0000000C   0020A0E1           MOV      R2,R0
   \   00000010   0410A0E1           MOV      R1,R4
   \   00000014   0800A0E3           MOV      R0,#+8
   \   00000018   ........           BL       ??trace_free
    853          	return __original_GVI_DeleteMemoryGC(gc);
   \   0000001C   0400A0E1           MOV      R0,R4
   \   00000020   9D0300EF           SWI      +925
   \   00000024   1080BDE8           POP      {R4,PC}          ;; return
    854          }
    855          

   \                                 In segment CODE, align 4, keep-with-next
    856          GUI_FEEDBACK* __deleaker_TextFeedbackWindow( const char* __file__, int __line__, BOOK* book, int zero )
    857          {
   \                     ??__deleaker_TextFeedbackWindow:
   \   00000000   70402DE9           PUSH     {R4-R6,LR}
   \   00000004   0040A0E1           MOV      R4,R0
   \   00000008   0150A0E1           MOV      R5,R1
   \   0000000C   0200A0E1           MOV      R0,R2
   \   00000010   0310A0E1           MOV      R1,R3
    858          	GUI_FEEDBACK* ret = __original_TextFeedbackWindow(book, zero);
   \   00000014   C50200EF           SWI      +709
   \   00000018   0060B0E1           MOVS     R6,R0
    859          	if(ret)trace_alloc(trace_gui, (void*)ret, __file__, __line__);
   \   0000001C   0400000A           BEQ      ??__deleaker_TextFeedbackWindow_1
   \   00000020   0530A0E1           MOV      R3,R5
   \   00000024   0420A0E1           MOV      R2,R4
   \   00000028   0610A0E1           MOV      R1,R6
   \   0000002C   0900A0E3           MOV      R0,#+9
   \   00000030   ........           BL       ??trace_alloc
    860          	return ret;
   \                     ??__deleaker_TextFeedbackWindow_1:
   \   00000034   0600A0E1           MOV      R0,R6
   \   00000038   7080BDE8           POP      {R4-R6,PC}       ;; return
    861          }
    862          

   \                                 In segment CODE, align 4, keep-with-next
    863          void* __deleaker_DataBrowserDesc_Create( const char* __file__, int __line__ )
    864          {
   \                     ??__deleaker_DataBrowserDesc_Create:
   \   00000000   70402DE9           PUSH     {R4-R6,LR}
   \   00000004   0040A0E1           MOV      R4,R0
   \   00000008   0150A0E1           MOV      R5,R1
    865          	void* ret = __original_DataBrowserDesc_Create();
   \   0000000C   1F0100EF           SWI      +287
   \   00000010   0060B0E1           MOVS     R6,R0
    866          	if(ret)trace_alloc(trace_memory, (void*)ret, __file__, __line__);
   \   00000014   0400000A           BEQ      ??__deleaker_DataBrowserDesc_Create_1
   \   00000018   0530A0E1           MOV      R3,R5
   \   0000001C   0420A0E1           MOV      R2,R4
   \   00000020   0610A0E1           MOV      R1,R6
   \   00000024   0000A0E3           MOV      R0,#+0
   \   00000028   ........           BL       ??trace_alloc
    867          	return ret;
   \                     ??__deleaker_DataBrowserDesc_Create_1:
   \   0000002C   0600A0E1           MOV      R0,R6
   \   00000030   7080BDE8           POP      {R4-R6,PC}       ;; return
    868          }
    869          

   \                                 In segment CODE, align 4, keep-with-next
    870          void __deleaker_DataBrowserDesc_Destroy( const char* __file__, int __line__, void* DataBrowserDesc )
    871          {
   \                     ??__deleaker_DataBrowserDesc_Destroy:
   \   00000000   10402DE9           PUSH     {R4,LR}
    872          	trace_free(trace_memory, DataBrowserDesc, __file__, __line__);
   \   00000004   0130A0E1           MOV      R3,R1
   \   00000008   0240A0E1           MOV      R4,R2
   \   0000000C   0020A0E1           MOV      R2,R0
   \   00000010   0410A0E1           MOV      R1,R4
   \   00000014   0000A0E3           MOV      R0,#+0
   \   00000018   ........           BL       ??trace_free
    873          	return __original_DataBrowserDesc_Destroy(DataBrowserDesc);
   \   0000001C   0400A0E1           MOV      R0,R4
   \   00000020   250100EF           SWI      +293
   \   00000024   1080BDE8           POP      {R4,PC}          ;; return
    874          }
    875          

   \                                 In segment CODE, align 4, keep-with-next
    876          GUI_FEEDBACK* __deleaker_CreateMonitorFeedback( const char* __file__, int __line__, TEXTID __unknwnargname1, BOOK* __unknwnargname2, void (*onbusy)(BOOK*), void (*onedit)(BOOK*), void (*ondelete)(BOOK*) )
    877          {
   \                     ??__deleaker_CreateMonitorFeedback:
   \   00000000   70402DE9           PUSH     {R4-R6,LR}
   \   00000004   18C09DE5           LDR      R12,[SP, #+24]
   \   00000008   0040A0E1           MOV      R4,R0
   \   0000000C   0150A0E1           MOV      R5,R1
   \   00000010   0200A0E1           MOV      R0,R2
   \   00000014   10209DE5           LDR      R2,[SP, #+16]
   \   00000018   0310A0E1           MOV      R1,R3
   \   0000001C   14309DE5           LDR      R3,[SP, #+20]
    878          	GUI_FEEDBACK* ret = __original_CreateMonitorFeedback(__unknwnargname1, __unknwnargname2, onbusy, onedit, ondelete);
   \   00000020   00102DE9           PUSH     {R12}
   \   00000024   E20100EF           SWI      +482
   \   00000028   0060B0E1           MOVS     R6,R0
    879          	if(ret)trace_alloc(trace_gui, (void*)ret, __file__, __line__);
   \   0000002C   04D08DE2           ADD      SP,SP,#+4
   \   00000030   0400000A           BEQ      ??__deleaker_CreateMonitorFeedback_1
   \   00000034   0530A0E1           MOV      R3,R5
   \   00000038   0420A0E1           MOV      R2,R4
   \   0000003C   0610A0E1           MOV      R1,R6
   \   00000040   0900A0E3           MOV      R0,#+9
   \   00000044   ........           BL       ??trace_alloc
    880          	return ret;
   \                     ??__deleaker_CreateMonitorFeedback_1:
   \   00000048   0600A0E1           MOV      R0,R6
   \   0000004C   7080BDE8           POP      {R4-R6,PC}       ;; return
    881          }
    882          

   \                                 In segment CODE, align 4, keep-with-next
    883          void* __deleaker_LoadDLL( const char* __file__, int __line__, wchar_t* DllName )
    884          {
   \                     ??__deleaker_LoadDLL:
   \   00000000   70402DE9           PUSH     {R4-R6,LR}
   \   00000004   0040A0E1           MOV      R4,R0
   \   00000008   0150A0E1           MOV      R5,R1
   \   0000000C   0200A0E1           MOV      R0,R2
    885          	void* ret = __original_LoadDLL(DllName);
   \   00000010   0E0100EF           SWI      +270
   \   00000014   0060B0E1           MOVS     R6,R0
    886          	if(ret)trace_alloc(trace_dll, (void*)ret, __file__, __line__);
   \   00000018   0400000A           BEQ      ??__deleaker_LoadDLL_1
   \   0000001C   0530A0E1           MOV      R3,R5
   \   00000020   0420A0E1           MOV      R2,R4
   \   00000024   0610A0E1           MOV      R1,R6
   \   00000028   0600A0E3           MOV      R0,#+6
   \   0000002C   ........           BL       ??trace_alloc
    887          	return ret;
   \                     ??__deleaker_LoadDLL_1:
   \   00000030   0600A0E1           MOV      R0,R6
   \   00000034   7080BDE8           POP      {R4-R6,PC}       ;; return
    888          }
    889          

   \                                 In segment CODE, align 4, keep-with-next
    890          int __deleaker_UnLoadDLL( const char* __file__, int __line__, void* DllData )
    891          {
   \                     ??__deleaker_UnLoadDLL:
   \   00000000   10402DE9           PUSH     {R4,LR}
    892          	trace_free(trace_dll, DllData, __file__, __line__);
   \   00000004   0130A0E1           MOV      R3,R1
   \   00000008   0240A0E1           MOV      R4,R2
   \   0000000C   0020A0E1           MOV      R2,R0
   \   00000010   0410A0E1           MOV      R1,R4
   \   00000014   0600A0E3           MOV      R0,#+6
   \   00000018   ........           BL       ??trace_free
    893          	return __original_UnLoadDLL(DllData);
   \   0000001C   0400A0E1           MOV      R0,R4
   \   00000020   0F0100EF           SWI      +271
   \   00000024   1080BDE8           POP      {R4,PC}          ;; return
    894          }
    895          

   \                                 In segment CODE, align 4, keep-with-next
    896          void __deleaker_GUIObject_SetSecondRowTitleText( const char* __file__, int __line__, GUI* __unknwnargname1, TEXTID __unknwnargname2 )
    897          {
   \                     ??__deleaker_GUIObject_SetSecondRowTitleText:
   \   00000000   F0402DE9           PUSH     {R4-R7,LR}
   \   00000004   0040A0E1           MOV      R4,R0
   \   00000008   0150A0E1           MOV      R5,R1
   \   0000000C   0260A0E1           MOV      R6,R2
   \   00000010   0370A0E1           MOV      R7,R3
    898          	if(isallocatedstrid(__unknwnargname2))trace_free(trace_strid, (void*)__unknwnargname2, __file__, __line__ );
   \   00000014   0700A0E1           MOV      R0,R7
   \   00000018   ........           BL       ??isallocatedstrid
   \   0000001C   000050E3           CMP      R0,#+0
   \   00000020   0400000A           BEQ      ??__deleaker_GUIObject_SetSecondRowTitleText_1
   \   00000024   0530A0E1           MOV      R3,R5
   \   00000028   0420A0E1           MOV      R2,R4
   \   0000002C   0710A0E1           MOV      R1,R7
   \   00000030   0100A0E3           MOV      R0,#+1
   \   00000034   ........           BL       ??trace_free
    899          	return __original_GUIObject_SetSecondRowTitleText(__unknwnargname1, __unknwnargname2);
   \                     ??__deleaker_GUIObject_SetSecondRowTitleText_1:
   \   00000038   0710A0E1           MOV      R1,R7
   \   0000003C   0600A0E1           MOV      R0,R6
   \   00000040   C90300EF           SWI      +969
   \   00000044   F080BDE8           POP      {R4-R7,PC}       ;; return
    900          }
    901          

   \                                 In segment CODE, align 4, keep-with-next
    902          void __deleaker_ListMenu_SetNoItemText( const char* __file__, int __line__, GUI_LIST* __unknwnargname1, TEXTID str )
    903          {
   \                     ??__deleaker_ListMenu_SetNoItemText:
   \   00000000   F0402DE9           PUSH     {R4-R7,LR}
   \   00000004   0040A0E1           MOV      R4,R0
   \   00000008   0150A0E1           MOV      R5,R1
   \   0000000C   0260A0E1           MOV      R6,R2
   \   00000010   0370A0E1           MOV      R7,R3
    904          	if(isallocatedstrid(str))trace_free(trace_strid, (void*)str, __file__, __line__ );
   \   00000014   0700A0E1           MOV      R0,R7
   \   00000018   ........           BL       ??isallocatedstrid
   \   0000001C   000050E3           CMP      R0,#+0
   \   00000020   0400000A           BEQ      ??__deleaker_ListMenu_SetNoItemText_1
   \   00000024   0530A0E1           MOV      R3,R5
   \   00000028   0420A0E1           MOV      R2,R4
   \   0000002C   0710A0E1           MOV      R1,R7
   \   00000030   0100A0E3           MOV      R0,#+1
   \   00000034   ........           BL       ??trace_free
    905          	return __original_ListMenu_SetNoItemText(__unknwnargname1, str);
   \                     ??__deleaker_ListMenu_SetNoItemText_1:
   \   00000038   0710A0E1           MOV      R1,R7
   \   0000003C   0600A0E1           MOV      R0,R6
   \   00000040   880200EF           SWI      +648
   \   00000044   F080BDE8           POP      {R4-R7,PC}       ;; return
    906          }
    907          

   \                                 In segment CODE, align 4, keep-with-next
    908          void __deleaker_TabMenuBar_SetTabTitle( const char* __file__, int __line__, GUI_TABMENUBAR* __unknwnargname1, int tab_num, TEXTID __unknwnargname3 )
    909          {
   \                     ??__deleaker_TabMenuBar_SetTabTitle:
   \   00000000   F0412DE9           PUSH     {R4-R8,LR}
   \   00000004   18809DE5           LDR      R8,[SP, #+24]
   \   00000008   0040A0E1           MOV      R4,R0
   \   0000000C   0150A0E1           MOV      R5,R1
   \   00000010   0260A0E1           MOV      R6,R2
   \   00000014   0370A0E1           MOV      R7,R3
    910          	if(isallocatedstrid(__unknwnargname3))trace_free(trace_strid, (void*)__unknwnargname3, __file__, __line__ );
   \   00000018   0800A0E1           MOV      R0,R8
   \   0000001C   ........           BL       ??isallocatedstrid
   \   00000020   000050E3           CMP      R0,#+0
   \   00000024   0400000A           BEQ      ??__deleaker_TabMenuBar_SetTabTitle_1
   \   00000028   0530A0E1           MOV      R3,R5
   \   0000002C   0420A0E1           MOV      R2,R4
   \   00000030   0810A0E1           MOV      R1,R8
   \   00000034   0100A0E3           MOV      R0,#+1
   \   00000038   ........           BL       ??trace_free
    911          	return __original_TabMenuBar_SetTabTitle(__unknwnargname1, tab_num, __unknwnargname3);
   \                     ??__deleaker_TabMenuBar_SetTabTitle_1:
   \   0000003C   0820A0E1           MOV      R2,R8
   \   00000040   0710A0E1           MOV      R1,R7
   \   00000044   0600A0E1           MOV      R0,R6
   \   00000048   AB0300EF           SWI      +939
   \   0000004C   F081BDE8           POP      {R4-R8,PC}       ;; return
    912          }
    913          

   \                                 In segment CODE, align 4, keep-with-next
    914          void __deleaker_DispObject_SetBackgroundImage( const char* __file__, int __line__, DISP_OBJ* __unknwnargname1, IMAGEID __unknwnargname2 )
    915          {
   \                     ??__deleaker_DispObject_SetBackgroundImage:
   \   00000000   F0402DE9           PUSH     {R4-R7,LR}
   \   00000004   0040A0E1           MOV      R4,R0
   \   00000008   0150A0E1           MOV      R5,R1
   \   0000000C   0260A0E1           MOV      R6,R2
   \   00000010   0370A0E1           MOV      R7,R3
    916          	if(isallocatediconid(__unknwnargname2))trace_free(trace_iconid, (void*)__unknwnargname2, __file__, __line__ );
   \   00000014   0700A0E1           MOV      R0,R7
   \   00000018   ........           BL       ??isallocatediconid
   \   0000001C   000050E3           CMP      R0,#+0
   \   00000020   0400000A           BEQ      ??__deleaker_DispObject_SetBackgroundImage_1
   \   00000024   0530A0E1           MOV      R3,R5
   \   00000028   0420A0E1           MOV      R2,R4
   \   0000002C   0710A0E1           MOV      R1,R7
   \   00000030   0200A0E3           MOV      R0,#+2
   \   00000034   ........           BL       ??trace_free
    917          	__original_DispObject_SetBackgroundImage(__unknwnargname1, __unknwnargname2);
   \                     ??__deleaker_DispObject_SetBackgroundImage_1:
   \   00000038   0710A0E1           MOV      R1,R7
   \   0000003C   0600A0E1           MOV      R0,R6
   \   00000040   A90300EF           SWI      +937
    918          }
   \   00000044   F080BDE8           POP      {R4-R7,PC}       ;; return
    919          

   \                                 In segment CODE, align 4, keep-with-next
    920          void __deleaker_DispObject_SetCursorImage( const char* __file__, int __line__, DISP_OBJ* __unknwnargname1, IMAGEID __unknwnargname2 )
    921          {
   \                     ??__deleaker_DispObject_SetCursorImage:
   \   00000000   F0402DE9           PUSH     {R4-R7,LR}
   \   00000004   0040A0E1           MOV      R4,R0
   \   00000008   0150A0E1           MOV      R5,R1
   \   0000000C   0260A0E1           MOV      R6,R2
   \   00000010   0370A0E1           MOV      R7,R3
    922          	if(isallocatediconid(__unknwnargname2))trace_free(trace_iconid, (void*)__unknwnargname2, __file__, __line__ );
   \   00000014   0700A0E1           MOV      R0,R7
   \   00000018   ........           BL       ??isallocatediconid
   \   0000001C   000050E3           CMP      R0,#+0
   \   00000020   0400000A           BEQ      ??__deleaker_DispObject_SetCursorImage_1
   \   00000024   0530A0E1           MOV      R3,R5
   \   00000028   0420A0E1           MOV      R2,R4
   \   0000002C   0710A0E1           MOV      R1,R7
   \   00000030   0200A0E3           MOV      R0,#+2
   \   00000034   ........           BL       ??trace_free
    923          	__original_DispObject_SetCursorImage(__unknwnargname1, __unknwnargname2);
   \                     ??__deleaker_DispObject_SetCursorImage_1:
   \   00000038   0710A0E1           MOV      R1,R7
   \   0000003C   0600A0E1           MOV      R0,R6
   \   00000040   A80300EF           SWI      +936
    924          }
   \   00000044   F080BDE8           POP      {R4-R7,PC}       ;; return
    925          

   \                                 In segment CODE, align 4, keep-with-next
    926          void __deleaker_DispObject_SetTitleBackgroundImage( const char* __file__, int __line__, DISP_OBJ* __unknwnargname1, IMAGEID __unknwnargname2 )
    927          {
   \                     ??__deleaker_DispObject_SetTitleBackgroundImage_1:
   \   00000000   F0402DE9           PUSH     {R4-R7,LR}
   \   00000004   0040A0E1           MOV      R4,R0
   \   00000008   0150A0E1           MOV      R5,R1
   \   0000000C   0260A0E1           MOV      R6,R2
   \   00000010   0370A0E1           MOV      R7,R3
    928          	if(isallocatediconid(__unknwnargname2))trace_free(trace_iconid, (void*)__unknwnargname2, __file__, __line__ );
   \   00000014   0700A0E1           MOV      R0,R7
   \   00000018   ........           BL       ??isallocatediconid
   \   0000001C   000050E3           CMP      R0,#+0
   \   00000020   0400000A           BEQ      ??__deleaker_DispObject_SetTitleBackgroundImage_2
   \   00000024   0530A0E1           MOV      R3,R5
   \   00000028   0420A0E1           MOV      R2,R4
   \   0000002C   0710A0E1           MOV      R1,R7
   \   00000030   0200A0E3           MOV      R0,#+2
   \   00000034   ........           BL       ??trace_free
    929          	__original_DispObject_SetTitleBackgroundImage(__unknwnargname1, __unknwnargname2);
   \                     ??__deleaker_DispObject_SetTitleBackgroundImage_2:
   \   00000038   0710A0E1           MOV      R1,R7
   \   0000003C   0600A0E1           MOV      R0,R6
   \   00000040   AA0300EF           SWI      +938
    930          }
   \   00000044   F080BDE8           POP      {R4-R7,PC}       ;; return
    931          

   \                                 In segment CODE, align 4, keep-with-next
    932          void __deleaker_GUIObject_SetBackgroundImage( const char* __file__, int __line__, GUI* __unknwnargname1, IMAGEID __unknwnargname2 )
    933          {
   \                     ??__deleaker_GUIObject_SetBackgroundImage:
   \   00000000   F0402DE9           PUSH     {R4-R7,LR}
   \   00000004   0040A0E1           MOV      R4,R0
   \   00000008   0150A0E1           MOV      R5,R1
   \   0000000C   0260A0E1           MOV      R6,R2
   \   00000010   0370A0E1           MOV      R7,R3
    934          	if(isallocatediconid(__unknwnargname2))trace_free(trace_iconid, (void*)__unknwnargname2, __file__, __line__ );
   \   00000014   0700A0E1           MOV      R0,R7
   \   00000018   ........           BL       ??isallocatediconid
   \   0000001C   000050E3           CMP      R0,#+0
   \   00000020   0400000A           BEQ      ??__deleaker_GUIObject_SetBackgroundImage_1
   \   00000024   0530A0E1           MOV      R3,R5
   \   00000028   0420A0E1           MOV      R2,R4
   \   0000002C   0710A0E1           MOV      R1,R7
   \   00000030   0200A0E3           MOV      R0,#+2
   \   00000034   ........           BL       ??trace_free
    935          	__original_GUIObject_SetBackgroundImage(__unknwnargname1, __unknwnargname2);
   \                     ??__deleaker_GUIObject_SetBackgroundImage_1:
   \   00000038   0710A0E1           MOV      R1,R7
   \   0000003C   0600A0E1           MOV      R0,R6
   \   00000040   160300EF           SWI      +790
    936          }
   \   00000044   F080BDE8           POP      {R4-R7,PC}       ;; return
    937          

   \                                 In segment CODE, align 4, keep-with-next
    938          void __deleaker_GUIObject_SetCursorImage( const char* __file__, int __line__, GUI* __unknwnargname1, IMAGEID __unknwnargname2 )
    939          {
   \                     ??__deleaker_GUIObject_SetCursorImage:
   \   00000000   F0402DE9           PUSH     {R4-R7,LR}
   \   00000004   0040A0E1           MOV      R4,R0
   \   00000008   0150A0E1           MOV      R5,R1
   \   0000000C   0260A0E1           MOV      R6,R2
   \   00000010   0370A0E1           MOV      R7,R3
    940          	if(isallocatediconid(__unknwnargname2))trace_free(trace_iconid, (void*)__unknwnargname2, __file__, __line__ );
   \   00000014   0700A0E1           MOV      R0,R7
   \   00000018   ........           BL       ??isallocatediconid
   \   0000001C   000050E3           CMP      R0,#+0
   \   00000020   0400000A           BEQ      ??__deleaker_GUIObject_SetCursorImage_1
   \   00000024   0530A0E1           MOV      R3,R5
   \   00000028   0420A0E1           MOV      R2,R4
   \   0000002C   0710A0E1           MOV      R1,R7
   \   00000030   0200A0E3           MOV      R0,#+2
   \   00000034   ........           BL       ??trace_free
    941          	__original_GUIObject_SetCursorImage(__unknwnargname1, __unknwnargname2);
   \                     ??__deleaker_GUIObject_SetCursorImage_1:
   \   00000038   0710A0E1           MOV      R1,R7
   \   0000003C   0600A0E1           MOV      R0,R6
   \   00000040   150300EF           SWI      +789
    942          }
   \   00000044   F080BDE8           POP      {R4-R7,PC}       ;; return
    943          

   \                                 In segment CODE, align 4, keep-with-next
    944          void __deleaker_GUIObject_SetTitleBackgroundImage( const char* __file__, int __line__, GUI* __unknwnargname1, IMAGEID __unknwnargname2 )
    945          {
   \                     ??__deleaker_GUIObject_SetTitleBackgroundImage:
   \   00000000   F0402DE9           PUSH     {R4-R7,LR}
   \   00000004   0040A0E1           MOV      R4,R0
   \   00000008   0150A0E1           MOV      R5,R1
   \   0000000C   0260A0E1           MOV      R6,R2
   \   00000010   0370A0E1           MOV      R7,R3
    946          	if(isallocatediconid(__unknwnargname2))trace_free(trace_iconid, (void*)__unknwnargname2, __file__, __line__ );
   \   00000014   0700A0E1           MOV      R0,R7
   \   00000018   ........           BL       ??isallocatediconid
   \   0000001C   000050E3           CMP      R0,#+0
   \   00000020   0400000A           BEQ      ??__deleaker_GUIObject_SetTitleBackgroundImage_1
   \   00000024   0530A0E1           MOV      R3,R5
   \   00000028   0420A0E1           MOV      R2,R4
   \   0000002C   0710A0E1           MOV      R1,R7
   \   00000030   0200A0E3           MOV      R0,#+2
   \   00000034   ........           BL       ??trace_free
    947          	__original_GUIObject_SetTitleBackgroundImage(__unknwnargname1, __unknwnargname2);
   \                     ??__deleaker_GUIObject_SetTitleBackgroundImage_1:
   \   00000038   0710A0E1           MOV      R1,R7
   \   0000003C   0600A0E1           MOV      R0,R6
   \   00000040   130300EF           SWI      +787
    948          }
   \   00000044   F080BDE8           POP      {R4-R7,PC}       ;; return
    949          

   \                                 In segment CODE, align 4, keep-with-next
    950          TEXTID __deleaker_Shortcut_Get_MenuItemName( const char* __file__, int __line__, void* __unknwnargname1 )
    951          {
   \                     ??__deleaker_Shortcut_Get_MenuItemName:
   \   00000000   70402DE9           PUSH     {R4-R6,LR}
   \   00000004   0040A0E1           MOV      R4,R0
   \   00000008   0150A0E1           MOV      R5,R1
   \   0000000C   0200A0E1           MOV      R0,R2
    952          	TEXTID ret = __original_Shortcut_Get_MenuItemName(__unknwnargname1);
   \   00000010   E10200EF           SWI      +737
   \   00000014   0060A0E1           MOV      R6,R0
    953          	trace_alloc(trace_strid, (void*)ret, __file__, __line__);
   \   00000018   0530A0E1           MOV      R3,R5
   \   0000001C   0420A0E1           MOV      R2,R4
   \   00000020   0610A0E1           MOV      R1,R6
   \   00000024   0100A0E3           MOV      R0,#+1
   \   00000028   ........           BL       ??trace_alloc
    954          	return ret;
   \   0000002C   0600A0E1           MOV      R0,R6
   \   00000030   7080BDE8           POP      {R4-R6,PC}       ;; return
    955          }
    956          

   \                                 In segment CODE, align 4, keep-with-next
    957          void __deleaker_YesNoQuestion_SetIcon( const char* __file__, int __line__, GUI* __unknwnargname1, IMAGEID __unknwnargname2 )
    958          {
   \                     ??__deleaker_YesNoQuestion_SetIcon:
   \   00000000   F0402DE9           PUSH     {R4-R7,LR}
   \   00000004   0040A0E1           MOV      R4,R0
   \   00000008   0150A0E1           MOV      R5,R1
   \   0000000C   0260A0E1           MOV      R6,R2
   \   00000010   0370A0E1           MOV      R7,R3
    959          	if(isallocatediconid(__unknwnargname2))trace_free(trace_iconid, (void*)__unknwnargname2, __file__, __line__ );
   \   00000014   0700A0E1           MOV      R0,R7
   \   00000018   ........           BL       ??isallocatediconid
   \   0000001C   000050E3           CMP      R0,#+0
   \   00000020   0400000A           BEQ      ??__deleaker_YesNoQuestion_SetIcon_1
   \   00000024   0530A0E1           MOV      R3,R5
   \   00000028   0420A0E1           MOV      R2,R4
   \   0000002C   0710A0E1           MOV      R1,R7
   \   00000030   0200A0E3           MOV      R0,#+2
   \   00000034   ........           BL       ??trace_free
    960          	__original_YesNoQuestion_SetIcon(__unknwnargname1, __unknwnargname2);
   \                     ??__deleaker_YesNoQuestion_SetIcon_1:
   \   00000038   0710A0E1           MOV      R1,R7
   \   0000003C   0600A0E1           MOV      R0,R6
   \   00000040   BF0300EF           SWI      +959
    961          }
   \   00000044   F080BDE8           POP      {R4-R7,PC}       ;; return
    962          

   \                                 In segment CODE, align 4, keep-with-next
    963          int __deleaker_ListMenu_SetItemIcon( const char* __file__, int __line__, GUI_LIST* __unknwnargname1, int Item, wchar_t unk_FFFF, int mode, IMAGEID __unknwnargname5 )
    964          {
   \                     ??__deleaker_ListMenu_SetItemIcon:
   \   00000000   F0472DE9           PUSH     {R4-R10,LR}
   \   00000004   B082DDE1           LDRH     R8,[SP, #+32]
   \   00000008   24909DE5           LDR      R9,[SP, #+36]
   \   0000000C   B8A2DDE1           LDRH     R10,[SP, #+40]
   \   00000010   0040A0E1           MOV      R4,R0
   \   00000014   0150A0E1           MOV      R5,R1
   \   00000018   0260A0E1           MOV      R6,R2
   \   0000001C   0370A0E1           MOV      R7,R3
    965          	//!!!unknown arg unk_FFFF
    966          	if(isallocatediconid(__unknwnargname5))trace_free(trace_iconid, (void*)__unknwnargname5, __file__, __line__ );
   \   00000020   0A00A0E1           MOV      R0,R10
   \   00000024   ........           BL       ??isallocatediconid
   \   00000028   000050E3           CMP      R0,#+0
   \   0000002C   0400000A           BEQ      ??__deleaker_ListMenu_SetItemIcon_1
   \   00000030   0530A0E1           MOV      R3,R5
   \   00000034   0420A0E1           MOV      R2,R4
   \   00000038   0A10A0E1           MOV      R1,R10
   \   0000003C   0200A0E3           MOV      R0,#+2
   \   00000040   ........           BL       ??trace_free
    967          	return __original_ListMenu_SetItemIcon(__unknwnargname1, Item, unk_FFFF, mode, __unknwnargname5);
   \                     ??__deleaker_ListMenu_SetItemIcon_1:
   \   00000044   00042DE9           PUSH     {R10}
   \   00000048   0930A0E1           MOV      R3,R9
   \   0000004C   0820A0E1           MOV      R2,R8
   \   00000050   0710A0E1           MOV      R1,R7
   \   00000054   0600A0E1           MOV      R0,R6
   \   00000058   A00300EF           SWI      +928
   \   0000005C   F287BDE8           POP      {R1,R4-R10,PC}   ;; return
    968          }
    969          

   \                                 In segment CODE, align 4, keep-with-next
    970          IMAGEID __deleaker_Shortcut_Get_MenuItemIconID( const char* __file__, int __line__, void* __unknwnargname1 )
    971          {
   \                     ??__deleaker_Shortcut_Get_MenuItemIconID:
   \   00000000   70402DE9           PUSH     {R4-R6,LR}
   \   00000004   0040A0E1           MOV      R4,R0
   \   00000008   0150A0E1           MOV      R5,R1
   \   0000000C   0200A0E1           MOV      R0,R2
    972          	IMAGEID ret = __original_Shortcut_Get_MenuItemIconID(__unknwnargname1);
   \   00000010   E20200EF           SWI      +738
   \   00000014   0060A0E1           MOV      R6,R0
    973          	if(isallocatediconid(ret))trace_alloc(trace_iconid, (void*)ret, __file__, __line__);
   \   00000018   ........           BL       ??isallocatediconid
   \   0000001C   000050E3           CMP      R0,#+0
   \   00000020   0400000A           BEQ      ??__deleaker_Shortcut_Get_MenuItemIconID_1
   \   00000024   0530A0E1           MOV      R3,R5
   \   00000028   0420A0E1           MOV      R2,R4
   \   0000002C   0610A0E1           MOV      R1,R6
   \   00000030   0200A0E3           MOV      R0,#+2
   \   00000034   ........           BL       ??trace_alloc
    974          	return ret;
   \                     ??__deleaker_Shortcut_Get_MenuItemIconID_1:
   \   00000038   0600A0E1           MOV      R0,R6
   \   0000003C   7080BDE8           POP      {R4-R6,PC}       ;; return
    975          }
    976          

   \                                 In segment CODE, align 4, keep-with-next
    977          PROCESS __deleaker_create_process( const char* __file__, int __line__, PROCESS_TYPE proc_type, char* name, OSENTRYPOINT* entrypoint, OSADDRESS stack_size, OSPRIORITY priority, OSTIME timeslice, PROCESS pid_block, void* redir_table, OSVECTOR vector, OSUSER user )
    978          {
   \                     ??__deleaker_create_process:
   \   00000000   F0432DE9           PUSH     {R4-R9,LR}
   \   00000004   24C0DDE5           LDRB     R12,[SP, #+36]
   \   00000008   2C609DE5           LDR      R6,[SP, #+44]
   \   0000000C   30709DE5           LDR      R7,[SP, #+48]
   \   00000010   28E09DE5           LDR      LR,[SP, #+40]
   \   00000014   B483DDE1           LDRH     R8,[SP, #+52]
   \   00000018   38909DE5           LDR      R9,[SP, #+56]
   \   0000001C   0040A0E1           MOV      R4,R0
   \   00000020   0150A0E1           MOV      R5,R1
   \   00000024   0200A0E1           MOV      R0,R2
   \   00000028   1C209DE5           LDR      R2,[SP, #+28]
   \   0000002C   0310A0E1           MOV      R1,R3
   \   00000030   20309DE5           LDR      R3,[SP, #+32]
    979          	PROCESS ret = __original_create_process(proc_type, name, entrypoint, stack_size, priority, timeslice, pid_block, redir_table, vector, user);
   \   00000034   00022DE9           PUSH     {R9}
   \   00000038   00012DE9           PUSH     {R8}
   \   0000003C   80002DE9           PUSH     {R7}
   \   00000040   40002DE9           PUSH     {R6}
   \   00000044   00402DE9           PUSH     {LR}
   \   00000048   00102DE9           PUSH     {R12}
   \   0000004C   810100EF           SWI      +385
   \   00000050   0060A0E1           MOV      R6,R0
    980          	trace_alloc(trace_process, (void*)ret, __file__, __line__);
   \   00000054   0530A0E1           MOV      R3,R5
   \   00000058   0420A0E1           MOV      R2,R4
   \   0000005C   0610A0E1           MOV      R1,R6
   \   00000060   0B00A0E3           MOV      R0,#+11
   \   00000064   ........           BL       ??trace_alloc
    981          	return ret;
   \   00000068   0600A0E1           MOV      R0,R6
   \   0000006C   18D08DE2           ADD      SP,SP,#+24
   \   00000070   F083BDE8           POP      {R4-R9,PC}       ;; return
    982          }
    983          

   \                                 In segment CODE, align 4, keep-with-next
    984          void __deleaker_kill_proc( const char* __file__, int __line__, PROCESS pid )
    985          {
   \                     ??__deleaker_kill_proc:
   \   00000000   10402DE9           PUSH     {R4,LR}
    986          	trace_free(trace_process, (void*)pid, __file__, __line__);
   \   00000004   0130A0E1           MOV      R3,R1
   \   00000008   0240A0E1           MOV      R4,R2
   \   0000000C   0020A0E1           MOV      R2,R0
   \   00000010   0410A0E1           MOV      R1,R4
   \   00000014   0B00A0E3           MOV      R0,#+11
   \   00000018   ........           BL       ??trace_free
    987          	return __original_kill_proc(pid);
   \   0000001C   0400A0E1           MOV      R0,R4
   \   00000020   870100EF           SWI      +391
   \   00000024   1080BDE8           POP      {R4,PC}          ;; return
    988          }
    989          

   \                                 In segment CODE, align 4, keep-with-next
    990          void __deleaker_MediaPlayer_SoftKeys_AddHelpStr( const char* __file__, int __line__, GUI* player_gui, int item, TEXTID __unknwnargname3 )
    991          {
   \                     ??__deleaker_MediaPlayer_SoftKeys_AddHelpStr:
   \   00000000   F0412DE9           PUSH     {R4-R8,LR}
   \   00000004   18809DE5           LDR      R8,[SP, #+24]
   \   00000008   0040A0E1           MOV      R4,R0
   \   0000000C   0150A0E1           MOV      R5,R1
   \   00000010   0260A0E1           MOV      R6,R2
   \   00000014   0370A0E1           MOV      R7,R3
    992          	if(isallocatedstrid(__unknwnargname3))trace_free(trace_strid, (void*)__unknwnargname3, __file__, __line__ );
   \   00000018   0800A0E1           MOV      R0,R8
   \   0000001C   ........           BL       ??isallocatedstrid
   \   00000020   000050E3           CMP      R0,#+0
   \   00000024   0400000A           BEQ      ??__deleaker_MediaPlayer_SoftKeys_AddHelpStr_1
   \   00000028   0530A0E1           MOV      R3,R5
   \   0000002C   0420A0E1           MOV      R2,R4
   \   00000030   0810A0E1           MOV      R1,R8
   \   00000034   0100A0E3           MOV      R0,#+1
   \   00000038   ........           BL       ??trace_free
    993          	__original_MediaPlayer_SoftKeys_AddHelpStr(player_gui, item, __unknwnargname3);
   \                     ??__deleaker_MediaPlayer_SoftKeys_AddHelpStr_1:
   \   0000003C   0820A0E1           MOV      R2,R8
   \   00000040   0710A0E1           MOV      R1,R7
   \   00000044   0600A0E1           MOV      R0,R6
   \   00000048   6C0300EF           SWI      +876
    994          }
   \   0000004C   F081BDE8           POP      {R4-R8,PC}       ;; return
    995          

   \                                 In segment CODE, align 4, keep-with-next
    996          void __deleaker_MediaPlayer_SoftKeys_SetText( const char* __file__, int __line__, GUI* player_gui, int actionID, TEXTID __unknwnargname3 )
    997          {
   \                     ??__deleaker_MediaPlayer_SoftKeys_SetText:
   \   00000000   F0412DE9           PUSH     {R4-R8,LR}
   \   00000004   18809DE5           LDR      R8,[SP, #+24]
   \   00000008   0040A0E1           MOV      R4,R0
   \   0000000C   0150A0E1           MOV      R5,R1
   \   00000010   0260A0E1           MOV      R6,R2
   \   00000014   0370A0E1           MOV      R7,R3
    998          	if(isallocatedstrid(__unknwnargname3))trace_free(trace_strid, (void*)__unknwnargname3, __file__, __line__ );
   \   00000018   0800A0E1           MOV      R0,R8
   \   0000001C   ........           BL       ??isallocatedstrid
   \   00000020   000050E3           CMP      R0,#+0
   \   00000024   0400000A           BEQ      ??__deleaker_MediaPlayer_SoftKeys_SetText_1
   \   00000028   0530A0E1           MOV      R3,R5
   \   0000002C   0420A0E1           MOV      R2,R4
   \   00000030   0810A0E1           MOV      R1,R8
   \   00000034   0100A0E3           MOV      R0,#+1
   \   00000038   ........           BL       ??trace_free
    999          	__original_MediaPlayer_SoftKeys_SetText(player_gui, actionID, __unknwnargname3);
   \                     ??__deleaker_MediaPlayer_SoftKeys_SetText_1:
   \   0000003C   0820A0E1           MOV      R2,R8
   \   00000040   0710A0E1           MOV      R1,R7
   \   00000044   0600A0E1           MOV      R0,R6
   \   00000048   690300EF           SWI      +873
   1000          }
   \   0000004C   F081BDE8           POP      {R4-R8,PC}       ;; return
   1001          

   \                                 In segment CODE, align 4, keep-with-next
   1002          wchar_t* __deleaker_MenuBook_Desktop_GetSelectedItemID( const char* __file__, int __line__, BOOK* MenuBook_Desktop )
   1003          {
   \                     ??__deleaker_MenuBook_Desktop_GetSelectedItemID_1:
   \   00000000   70402DE9           PUSH     {R4-R6,LR}
   \   00000004   0040A0E1           MOV      R4,R0
   \   00000008   0150A0E1           MOV      R5,R1
   \   0000000C   0200A0E1           MOV      R0,R2
   1004          	wchar_t* ret = __original_MenuBook_Desktop_GetSelectedItemID(MenuBook_Desktop);
   \   00000010   C10200EF           SWI      +705
   \   00000014   0060B0E1           MOVS     R6,R0
   1005          	if(ret)trace_alloc(trace_memory, (void*)ret, __file__, __line__);
   \   00000018   0400000A           BEQ      ??__deleaker_MenuBook_Desktop_GetSelectedItemID_2
   \   0000001C   0530A0E1           MOV      R3,R5
   \   00000020   0420A0E1           MOV      R2,R4
   \   00000024   0610A0E1           MOV      R1,R6
   \   00000028   0000A0E3           MOV      R0,#+0
   \   0000002C   ........           BL       ??trace_alloc
   1006          	return ret;
   \                     ??__deleaker_MenuBook_Desktop_GetSelectedItemID_2:
   \   00000030   0600A0E1           MOV      R0,R6
   \   00000034   7080BDE8           POP      {R4-R6,PC}       ;; return
   1007          }
   1008          

   \                                 In segment CODE, align 4, keep-with-next
   1009          char* __deleaker_CreateURI( const char* __file__, int __line__, wchar_t* fpath, wchar_t* fname, char* URIScheme )
   1010          {
   \                     ??__deleaker_CreateURI:
   \   00000000   70402DE9           PUSH     {R4-R6,LR}
   \   00000004   0040A0E1           MOV      R4,R0
   \   00000008   0150A0E1           MOV      R5,R1
   \   0000000C   0200A0E1           MOV      R0,R2
   \   00000010   10209DE5           LDR      R2,[SP, #+16]
   \   00000014   0310A0E1           MOV      R1,R3
   1011          	char* ret = __original_CreateURI(fpath, fname, URIScheme);
   \   00000018   600300EF           SWI      +864
   \   0000001C   0060B0E1           MOVS     R6,R0
   1012          	if(ret)trace_alloc(trace_memory, (void*)ret, __file__, __line__);
   \   00000020   0400000A           BEQ      ??__deleaker_CreateURI_1
   \   00000024   0530A0E1           MOV      R3,R5
   \   00000028   0420A0E1           MOV      R2,R4
   \   0000002C   0610A0E1           MOV      R1,R6
   \   00000030   0000A0E3           MOV      R0,#+0
   \   00000034   ........           BL       ??trace_alloc
   1013          	return ret;
   \                     ??__deleaker_CreateURI_1:
   \   00000038   0600A0E1           MOV      R0,R6
   \   0000003C   7080BDE8           POP      {R4-R6,PC}       ;; return
   1014          }
   1015          

   \                                 In segment CODE, align 4, keep-with-next
   1016          void __deleaker_Timer_Kill( const char* __file__, int __line__, u16* timerID )
   1017          {
   \                     ??__deleaker_Timer_Kill:
   \   00000000   10402DE9           PUSH     {R4,LR}
   1018          	trace_free(trace_timer, (void*)*timerID, __file__, __line__);
   \   00000004   0130A0E1           MOV      R3,R1
   \   00000008   0240A0E1           MOV      R4,R2
   \   0000000C   B010D4E1           LDRH     R1,[R4, #+0]
   \   00000010   0020A0E1           MOV      R2,R0
   \   00000014   0300A0E3           MOV      R0,#+3
   \   00000018   ........           BL       ??trace_free
   1019          	trace_timerkill(timerID);
   \   0000001C   0400A0E1           MOV      R0,R4
   \   00000020   1040BDE8           POP      {R4,LR}          ;; Pop
   \   00000024   ........           B        ??trace_timerkill  ;; tailcall
   1020          }
   1021          

   \                                 In segment CODE, align 4, keep-with-next
   1022          u16 __deleaker_Timer_Set( const char* __file__, int __line__, int time, TIMERPROC onTimer, LPARAM lparam )
   1023          {
   \                     ??__deleaker_Timer_Set:
   \   00000000   70402DE9           PUSH     {R4-R6,LR}
   \   00000004   0040A0E1           MOV      R4,R0
   \   00000008   0150A0E1           MOV      R5,R1
   \   0000000C   0200A0E1           MOV      R0,R2
   \   00000010   10209DE5           LDR      R2,[SP, #+16]
   \   00000014   0310A0E1           MOV      R1,R3
   1024          	u16 ret = trace_timerset(time,(void(*)(u16,LPARAM))onTimer,(LPARAM)lparam);
   \   00000018   ........           BL       ??trace_timerset
   \   0000001C   0060B0E1           MOVS     R6,R0
   1025          	if(ret)trace_alloc(trace_timer, (void*)ret, __file__, __line__);
   \   00000020   0400000A           BEQ      ??__deleaker_Timer_Set_1
   \   00000024   0530A0E1           MOV      R3,R5
   \   00000028   0420A0E1           MOV      R2,R4
   \   0000002C   0610A0E1           MOV      R1,R6
   \   00000030   0300A0E3           MOV      R0,#+3
   \   00000034   ........           BL       ??trace_alloc
   1026          	return ret;
   \                     ??__deleaker_Timer_Set_1:
   \   00000038   0600A0E1           MOV      R0,R6
   \   0000003C   7080BDE8           POP      {R4-R6,PC}       ;; return
   1027          }
   1028          

   \                                 In segment CODE, align 4, keep-with-next
   1029          void __deleaker_Timer_ReSet( const char* __file__, int __line__, u16* timer, int time, TIMERPROC onTimer, LPARAM lparam )
   1030          {
   \                     ??__deleaker_Timer_ReSet:
   \   00000000   F0432DE9           PUSH     {R4-R9,LR}
   \   00000004   0150A0E1           MOV      R5,R1
   \   00000008   1C809DE5           LDR      R8,[SP, #+28]
   \   0000000C   20909DE5           LDR      R9,[SP, #+32]
   \   00000010   0260A0E1           MOV      R6,R2
   1031          	trace_free(trace_timer, (void*)*timer, __file__, __line__);
   \   00000014   B010D6E1           LDRH     R1,[R6, #+0]
   \   00000018   0040A0E1           MOV      R4,R0
   \   0000001C   0370A0E1           MOV      R7,R3
   \   00000020   0530A0E1           MOV      R3,R5
   \   00000024   0420A0E1           MOV      R2,R4
   \   00000028   0300A0E3           MOV      R0,#+3
   \   0000002C   ........           BL       ??trace_free
   1032          	trace_timerkill(timer);
   \   00000030   0600A0E1           MOV      R0,R6
   \   00000034   ........           BL       ??trace_timerkill
   1033          
   1034          	u16 ret = trace_timerset(time,(void(*)(u16,LPARAM))onTimer,(LPARAM)lparam);
   \   00000038   0920A0E1           MOV      R2,R9
   \   0000003C   0810A0E1           MOV      R1,R8
   \   00000040   0700A0E1           MOV      R0,R7
   \   00000044   ........           BL       ??trace_timerset
   \   00000048   0070B0E1           MOVS     R7,R0
   1035          	if(ret)trace_alloc(trace_timer, (void*)ret, __file__, __line__);
   \   0000004C   0400000A           BEQ      ??__deleaker_Timer_ReSet_1
   \   00000050   0530A0E1           MOV      R3,R5
   \   00000054   0420A0E1           MOV      R2,R4
   \   00000058   0710A0E1           MOV      R1,R7
   \   0000005C   0300A0E3           MOV      R0,#+3
   \   00000060   ........           BL       ??trace_alloc
   1036          	*timer=ret;
   \                     ??__deleaker_Timer_ReSet_1:
   \   00000064   B070C6E1           STRH     R7,[R6, #+0]
   1037          }
   \   00000068   F083BDE8           POP      {R4-R9,PC}       ;; return
   1038          

   \                                 In segment CODE, align 4, keep-with-next
   1039          union SIGNAL* __deleaker_alloc( const char* __file__, int __line__, OSBUFSIZE size, SIGSELECT signo )
   1040          {
   \                     ??__deleaker_alloc:
   \   00000000   70402DE9           PUSH     {R4-R6,LR}
   \   00000004   0040A0E1           MOV      R4,R0
   \   00000008   0150A0E1           MOV      R5,R1
   \   0000000C   0200A0E1           MOV      R0,R2
   \   00000010   0310A0E1           MOV      R1,R3
   1041          	union SIGNAL* ret = __original_alloc(size, signo);
   \   00000014   7C0100EF           SWI      +380
   \   00000018   0060B0E1           MOVS     R6,R0
   1042          	if(ret)trace_alloc(trace_osebuff, ret, __file__, __line__);
   \   0000001C   0400000A           BEQ      ??__deleaker_alloc_1
   \   00000020   0530A0E1           MOV      R3,R5
   \   00000024   0420A0E1           MOV      R2,R4
   \   00000028   0610A0E1           MOV      R1,R6
   \   0000002C   0C00A0E3           MOV      R0,#+12
   \   00000030   ........           BL       ??trace_alloc
   1043          	return ret;
   \                     ??__deleaker_alloc_1:
   \   00000034   0600A0E1           MOV      R0,R6
   \   00000038   7080BDE8           POP      {R4-R6,PC}       ;; return
   1044          }
   1045          

   \                                 In segment CODE, align 4, keep-with-next
   1046          union SIGNAL* __deleaker_receive( const char* __file__, int __line__, const SIGSELECT* sigsel )
   1047          {
   \                     ??__deleaker_receive:
   \   00000000   70402DE9           PUSH     {R4-R6,LR}
   \   00000004   0040A0E1           MOV      R4,R0
   \   00000008   0150A0E1           MOV      R5,R1
   \   0000000C   0200A0E1           MOV      R0,R2
   1048          	union SIGNAL* ret = __original_receive(sigsel);
   \   00000010   7D0100EF           SWI      +381
   \   00000014   0060B0E1           MOVS     R6,R0
   1049          	if(ret)trace_alloc(trace_osebuff, ret, __file__, __line__);
   \   00000018   0400000A           BEQ      ??__deleaker_receive_1
   \   0000001C   0530A0E1           MOV      R3,R5
   \   00000020   0420A0E1           MOV      R2,R4
   \   00000024   0610A0E1           MOV      R1,R6
   \   00000028   0C00A0E3           MOV      R0,#+12
   \   0000002C   ........           BL       ??trace_alloc
   1050          	return ret;
   \                     ??__deleaker_receive_1:
   \   00000030   0600A0E1           MOV      R0,R6
   \   00000034   7080BDE8           POP      {R4-R6,PC}       ;; return
   1051          }
   1052          

   \                                 In segment CODE, align 4, keep-with-next
   1053          union SIGNAL* __deleaker_receive_w_tmo( const char* __file__, int __line__, OSTIME timeout, SIGSELECT* sel )
   1054          {
   \                     ??__deleaker_receive_w_tmo:
   \   00000000   70402DE9           PUSH     {R4-R6,LR}
   \   00000004   0040A0E1           MOV      R4,R0
   \   00000008   0150A0E1           MOV      R5,R1
   \   0000000C   0200A0E1           MOV      R0,R2
   \   00000010   0310A0E1           MOV      R1,R3
   1055          	union SIGNAL* ret = __original_receive_w_tmo(timeout, sel);
   \   00000014   890100EF           SWI      +393
   \   00000018   0060B0E1           MOVS     R6,R0
   1056          	if(ret)trace_alloc(trace_osebuff, ret, __file__, __line__);
   \   0000001C   0400000A           BEQ      ??__deleaker_receive_w_tmo_1
   \   00000020   0530A0E1           MOV      R3,R5
   \   00000024   0420A0E1           MOV      R2,R4
   \   00000028   0610A0E1           MOV      R1,R6
   \   0000002C   0C00A0E3           MOV      R0,#+12
   \   00000030   ........           BL       ??trace_alloc
   1057          	return ret;
   \                     ??__deleaker_receive_w_tmo_1:
   \   00000034   0600A0E1           MOV      R0,R6
   \   00000038   7080BDE8           POP      {R4-R6,PC}       ;; return
   1058          }
   1059          

   \                                 In segment CODE, align 4, keep-with-next
   1060          void __deleaker_free_buf( const char* __file__, int __line__, union SIGNAL** sig )
   1061          {
   \                     ??__deleaker_free_buf:
   \   00000000   10402DE9           PUSH     {R4,LR}
   1062          	trace_free(trace_osebuff, *sig, __file__, __line__);
   \   00000004   0130A0E1           MOV      R3,R1
   \   00000008   0240A0E1           MOV      R4,R2
   \   0000000C   001094E5           LDR      R1,[R4, #+0]
   \   00000010   0020A0E1           MOV      R2,R0
   \   00000014   0C00A0E3           MOV      R0,#+12
   \   00000018   ........           BL       ??trace_free
   1063          	__original_free_buf(sig);
   \   0000001C   0400A0E1           MOV      R0,R4
   \   00000020   800100EF           SWI      +384
   1064          }
   \   00000024   1080BDE8           POP      {R4,PC}          ;; return
   1065          

   \                                 In segment CODE, align 4, keep-with-next
   1066          void __deleaker_send( const char* __file__, int __line__, union SIGNAL** sig, PROCESS to )
   1067          {
   \                     ??__deleaker_send:
   \   00000000   30402DE9           PUSH     {R4,R5,LR}
   \   00000004   0240A0E1           MOV      R4,R2
   1068          	trace_free(trace_osebuff, *sig, __file__, __line__);
   \   00000008   0020A0E1           MOV      R2,R0
   \   0000000C   0350A0E1           MOV      R5,R3
   \   00000010   0130A0E1           MOV      R3,R1
   \   00000014   001094E5           LDR      R1,[R4, #+0]
   \   00000018   0C00A0E3           MOV      R0,#+12
   \   0000001C   ........           BL       ??trace_free
   1069          	__original_send(sig, to);
   \   00000020   0510A0E1           MOV      R1,R5
   \   00000024   0400A0E1           MOV      R0,R4
   \   00000028   7E0100EF           SWI      +382
   1070          }
   \   0000002C   3080BDE8           POP      {R4,R5,PC}       ;; return
   1071          

   \                                 In segment CODE, align 4, keep-with-next
   1072          OSBOOLEAN __deleaker_hunt( const char* __file__, int __line__, const char* name, OSUSER user, PROCESS* name_, union SIGNAL** hunt_sig )
   1073          {
   \                     ??__deleaker_hunt:
   \   00000000   F0402DE9           PUSH     {R4-R7,LR}
   \   00000004   14609DE5           LDR      R6,[SP, #+20]
   \   00000008   18709DE5           LDR      R7,[SP, #+24]
   \   0000000C   0240A0E1           MOV      R4,R2
   \   00000010   0350A0E1           MOV      R5,R3
   1074              if(hunt_sig)
   \   00000014   000057E3           CMP      R7,#+0
   \   00000018   0400000A           BEQ      ??__deleaker_hunt_1
   1075          		trace_free(trace_osebuff, *hunt_sig, __file__, __line__);
   \   0000001C   0130A0E1           MOV      R3,R1
   \   00000020   001097E5           LDR      R1,[R7, #+0]
   \   00000024   0020A0E1           MOV      R2,R0
   \   00000028   0C00A0E3           MOV      R0,#+12
   \   0000002C   ........           BL       ??trace_free
   1076          	return __original_hunt(name, user, name_, hunt_sig);
   \                     ??__deleaker_hunt_1:
   \   00000030   0730A0E1           MOV      R3,R7
   \   00000034   0620A0E1           MOV      R2,R6
   \   00000038   0510A0E1           MOV      R1,R5
   \   0000003C   0400A0E1           MOV      R0,R4
   \   00000040   860100EF           SWI      +390
   \   00000044   F080BDE8           POP      {R4-R7,PC}       ;; return
   1077          }
   1078          

   \                                 In segment CODE, align 4, keep-with-next
   1079          int __deleaker_JavaApp_LogoImageID_Get( const char* __file__, int __line__, wchar_t* fullpath, IMAGEID* __unknwnargname2 )
   1080          {
   \                     ??__deleaker_JavaApp_LogoImageID_Get:
   \   00000000   F0402DE9           PUSH     {R4-R7,LR}
   \   00000004   0040A0E1           MOV      R4,R0
   \   00000008   0150A0E1           MOV      R5,R1
   \   0000000C   0200A0E1           MOV      R0,R2
   \   00000010   0360A0E1           MOV      R6,R3
   1081          	int ret = __original_JavaApp_LogoImageID_Get(fullpath, __unknwnargname2);
   \   00000014   0610A0E1           MOV      R1,R6
   \   00000018   0C0300EF           SWI      +780
   \   0000001C   0070B0E1           MOVS     R7,R0
   1082          	if(ret>=0 && isallocatediconid(*__unknwnargname2))
   \   00000020   0900004A           BMI      ??__deleaker_JavaApp_LogoImageID_Get_1
   \   00000024   B060D6E1           LDRH     R6,[R6, #+0]
   \   00000028   0600A0E1           MOV      R0,R6
   \   0000002C   ........           BL       ??isallocatediconid
   \   00000030   000050E3           CMP      R0,#+0
   \   00000034   0400000A           BEQ      ??__deleaker_JavaApp_LogoImageID_Get_1
   1083          		trace_alloc(trace_iconid, (void*)(*__unknwnargname2), __file__, __line__);
   \   00000038   0530A0E1           MOV      R3,R5
   \   0000003C   0420A0E1           MOV      R2,R4
   \   00000040   0610A0E1           MOV      R1,R6
   \   00000044   0200A0E3           MOV      R0,#+2
   \   00000048   ........           BL       ??trace_alloc
   1084          	return ret;
   \                     ??__deleaker_JavaApp_LogoImageID_Get_1:
   \   0000004C   0700A0E1           MOV      R0,R7
   \   00000050   F080BDE8           POP      {R4-R7,PC}       ;; return
   1085          }
   1086          

   \                                 In segment CODE, align 4, keep-with-next
   1087          void __deleaker_ObexSendFile( const char* __file__, int __line__, SEND_OBEX_STRUCT* __unknwnargname1 )
   1088          {
   \                     ??__deleaker_ObexSendFile:
   \   00000000   F0402DE9           PUSH     {R4-R7,LR}
   \   00000004   0040A0E1           MOV      R4,R0
   \   00000008   0260A0E1           MOV      R6,R2
   1089          	if(isallocatedstrid(__unknwnargname1->send))trace_free(trace_strid, (void*)__unknwnargname1->send, __file__, __line__ );
   \   0000000C   087096E5           LDR      R7,[R6, #+8]
   \   00000010   0150A0E1           MOV      R5,R1
   \   00000014   0700A0E1           MOV      R0,R7
   \   00000018   ........           BL       ??isallocatedstrid
   \   0000001C   000050E3           CMP      R0,#+0
   \   00000020   0400000A           BEQ      ??__deleaker_ObexSendFile_1
   \   00000024   0530A0E1           MOV      R3,R5
   \   00000028   0420A0E1           MOV      R2,R4
   \   0000002C   0710A0E1           MOV      R1,R7
   \   00000030   0100A0E3           MOV      R0,#+1
   \   00000034   ........           BL       ??trace_free
   1090          	if(isallocatedstrid(__unknwnargname1->sent))trace_free(trace_strid, (void*)__unknwnargname1->sent, __file__, __line__ );
   \                     ??__deleaker_ObexSendFile_1:
   \   00000038   0C7096E5           LDR      R7,[R6, #+12]
   \   0000003C   0700A0E1           MOV      R0,R7
   \   00000040   ........           BL       ??isallocatedstrid
   \   00000044   000050E3           CMP      R0,#+0
   \   00000048   0400000A           BEQ      ??__deleaker_ObexSendFile_2
   \   0000004C   0530A0E1           MOV      R3,R5
   \   00000050   0420A0E1           MOV      R2,R4
   \   00000054   0710A0E1           MOV      R1,R7
   \   00000058   0100A0E3           MOV      R0,#+1
   \   0000005C   ........           BL       ??trace_free
   1091          	__original_ObexSendFile(__unknwnargname1);
   \                     ??__deleaker_ObexSendFile_2:
   \   00000060   0600A0E1           MOV      R0,R6
   \   00000064   790300EF           SWI      +889
   1092          }
   \   00000068   F080BDE8           POP      {R4-R7,PC}       ;; return
   1093          

   \                                 In segment CODE, align 4, keep-with-next
   1094          TEXTID __deleaker_JavaSession_GetName( const char* __file__, int __line__ )
   1095          {
   \                     ??__deleaker_JavaSession_GetName:
   \   00000000   70402DE9           PUSH     {R4-R6,LR}
   \   00000004   0040A0E1           MOV      R4,R0
   \   00000008   0150A0E1           MOV      R5,R1
   1096          	TEXTID ret = __original_JavaSession_GetName();
   \   0000000C   410200EF           SWI      +577
   \   00000010   0060A0E1           MOV      R6,R0
   1097          	if(isallocatedstrid(ret))
   \   00000014   ........           BL       ??isallocatedstrid
   \   00000018   000050E3           CMP      R0,#+0
   \   0000001C   0400000A           BEQ      ??__deleaker_JavaSession_GetName_1
   1098          		trace_alloc(trace_strid, (void*)ret, __file__, __line__);
   \   00000020   0530A0E1           MOV      R3,R5
   \   00000024   0420A0E1           MOV      R2,R4
   \   00000028   0610A0E1           MOV      R1,R6
   \   0000002C   0100A0E3           MOV      R0,#+1
   \   00000030   ........           BL       ??trace_alloc
   1099          	return ret;
   \                     ??__deleaker_JavaSession_GetName_1:
   \   00000034   0600A0E1           MOV      R0,R6
   \   00000038   7080BDE8           POP      {R4-R6,PC}       ;; return
   1100          }
   1101          

   \                                 In segment CODE, align 4, keep-with-next
   1102          void* __deleaker_MetaData_Desc_Create( const char* __file__, int __line__, wchar_t* path, wchar_t* name )
   1103          {
   \                     ??__deleaker_MetaData_Desc_Create:
   \   00000000   70402DE9           PUSH     {R4-R6,LR}
   \   00000004   0040A0E1           MOV      R4,R0
   \   00000008   0150A0E1           MOV      R5,R1
   \   0000000C   0200A0E1           MOV      R0,R2
   \   00000010   0310A0E1           MOV      R1,R3
   1104          	void* ret = __original_MetaData_Desc_Create(path, name);
   \   00000014   EF0200EF           SWI      +751
   \   00000018   0060B0E1           MOVS     R6,R0
   1105          	if(ret)trace_alloc(trace_metadatadesc, ret, __file__, __line__);
   \   0000001C   0400000A           BEQ      ??__deleaker_MetaData_Desc_Create_1
   \   00000020   0530A0E1           MOV      R3,R5
   \   00000024   0420A0E1           MOV      R2,R4
   \   00000028   0610A0E1           MOV      R1,R6
   \   0000002C   0D00A0E3           MOV      R0,#+13
   \   00000030   ........           BL       ??trace_alloc
   1106          	return ret;
   \                     ??__deleaker_MetaData_Desc_Create_1:
   \   00000034   0600A0E1           MOV      R0,R6
   \   00000038   7080BDE8           POP      {R4-R6,PC}       ;; return
   1107          }
   1108          

   \                                 In segment CODE, align 4, keep-with-next
   1109          void __deleaker_MetaData_Desc_Destroy( const char* __file__, int __line__, void* MetaData_Desc )
   1110          {
   \                     ??__deleaker_MetaData_Desc_Destroy:
   \   00000000   10402DE9           PUSH     {R4,LR}
   1111          	trace_free(trace_metadatadesc, MetaData_Desc, __file__, __line__);
   \   00000004   0130A0E1           MOV      R3,R1
   \   00000008   0240A0E1           MOV      R4,R2
   \   0000000C   0020A0E1           MOV      R2,R0
   \   00000010   0410A0E1           MOV      R1,R4
   \   00000014   0D00A0E3           MOV      R0,#+13
   \   00000018   ........           BL       ??trace_free
   1112          	__original_MetaData_Desc_Destroy(MetaData_Desc);
   \   0000001C   0400A0E1           MOV      R0,R4
   \   00000020   F00200EF           SWI      +752
   1113          }
   \   00000024   1080BDE8           POP      {R4,PC}          ;; return
   1114          

   \                                 In segment CODE, align 4, keep-with-next
   1115          FILEITEM* __deleaker_FILEITEM_Create( const char* __file__, int __line__ )
   1116          {
   \                     ??__deleaker_FILEITEM_Create:
   \   00000000   70402DE9           PUSH     {R4-R6,LR}
   \   00000004   0040A0E1           MOV      R4,R0
   \   00000008   0150A0E1           MOV      R5,R1
   1117          	FILEITEM* ret = __original_FILEITEM_Create();
   \   0000000C   B30200EF           SWI      +691
   \   00000010   0060B0E1           MOVS     R6,R0
   1118          	if(ret)trace_alloc(trace_fileitemstruct, ret, __file__, __line__);
   \   00000014   0400000A           BEQ      ??__deleaker_FILEITEM_Create_1
   \   00000018   0530A0E1           MOV      R3,R5
   \   0000001C   0420A0E1           MOV      R2,R4
   \   00000020   0610A0E1           MOV      R1,R6
   \   00000024   0E00A0E3           MOV      R0,#+14
   \   00000028   ........           BL       ??trace_alloc
   1119          	return ret;
   \                     ??__deleaker_FILEITEM_Create_1:
   \   0000002C   0600A0E1           MOV      R0,R6
   \   00000030   7080BDE8           POP      {R4-R6,PC}       ;; return
   1120          }
   1121          

   \                                 In segment CODE, align 4, keep-with-next
   1122          FILEITEM* __deleaker_FILEITEM_CreateCopy( const char* __file__, int __line__, FILEITEM* __unknwnargname1 )
   1123          {
   \                     ??__deleaker_FILEITEM_CreateCopy:
   \   00000000   70402DE9           PUSH     {R4-R6,LR}
   \   00000004   0040A0E1           MOV      R4,R0
   \   00000008   0150A0E1           MOV      R5,R1
   \   0000000C   0200A0E1           MOV      R0,R2
   1124          	FILEITEM* ret = __original_FILEITEM_CreateCopy(__unknwnargname1);
   \   00000010   E40200EF           SWI      +740
   \   00000014   0060B0E1           MOVS     R6,R0
   1125          	if(ret)trace_alloc(trace_fileitemstruct, ret, __file__, __line__);
   \   00000018   0400000A           BEQ      ??__deleaker_FILEITEM_CreateCopy_1
   \   0000001C   0530A0E1           MOV      R3,R5
   \   00000020   0420A0E1           MOV      R2,R4
   \   00000024   0610A0E1           MOV      R1,R6
   \   00000028   0E00A0E3           MOV      R0,#+14
   \   0000002C   ........           BL       ??trace_alloc
   1126          	return ret;
   \                     ??__deleaker_FILEITEM_CreateCopy_1:
   \   00000030   0600A0E1           MOV      R0,R6
   \   00000034   7080BDE8           POP      {R4-R6,PC}       ;; return
   1127          }
   1128          

   \                                 In segment CODE, align 4, keep-with-next
   1129          void __deleaker_FILEITEM_Destroy( const char* __file__, int __line__, FILEITEM* __unknwnargname1 )
   1130          {
   \                     ??__deleaker_FILEITEM_Destroy:
   \   00000000   10402DE9           PUSH     {R4,LR}
   1131          	trace_free(trace_fileitemstruct, __unknwnargname1, __file__, __line__);
   \   00000004   0130A0E1           MOV      R3,R1
   \   00000008   0240A0E1           MOV      R4,R2
   \   0000000C   0020A0E1           MOV      R2,R0
   \   00000010   0410A0E1           MOV      R1,R4
   \   00000014   0E00A0E3           MOV      R0,#+14
   \   00000018   ........           BL       ??trace_free
   1132          	__original_FILEITEM_Destroy(__unknwnargname1);
   \   0000001C   0400A0E1           MOV      R0,R4
   \   00000020   B40200EF           SWI      +692
   1133          }
   \   00000024   1080BDE8           POP      {R4,PC}          ;; return
   1134          

   \                                 In segment CODE, align 4, keep-with-next
   1135          int __deleaker_w_dirclose( const char* __file__, int __line__, void* __unknwnargname1 )
   1136          {
   \                     ??__deleaker_w_dirclose:
   \   00000000   10402DE9           PUSH     {R4,LR}
   1137          	trace_free(trace_w_dir, __unknwnargname1, __file__, __line__);
   \   00000004   0130A0E1           MOV      R3,R1
   \   00000008   0240A0E1           MOV      R4,R2
   \   0000000C   0020A0E1           MOV      R2,R0
   \   00000010   0410A0E1           MOV      R1,R4
   \   00000014   0F00A0E3           MOV      R0,#+15
   \   00000018   ........           BL       ??trace_free
   1138          	return __original_w_dirclose(__unknwnargname1);
   \   0000001C   0400A0E1           MOV      R0,R4
   \   00000020   2E0300EF           SWI      +814
   \   00000024   1080BDE8           POP      {R4,PC}          ;; return
   1139          }
   1140          

   \                                 In segment CODE, align 4, keep-with-next
   1141          void* __deleaker_w_diropen( const char* __file__, int __line__, const wchar_t* dir )
   1142          {
   \                     ??__deleaker_w_diropen:
   \   00000000   70402DE9           PUSH     {R4-R6,LR}
   \   00000004   0040A0E1           MOV      R4,R0
   \   00000008   0150A0E1           MOV      R5,R1
   \   0000000C   0200A0E1           MOV      R0,R2
   1143          	void* ret = __original_w_diropen(dir);
   \   00000010   2C0300EF           SWI      +812
   \   00000014   0060B0E1           MOVS     R6,R0
   1144          	if(ret)trace_alloc(trace_w_dir, ret, __file__, __line__);
   \   00000018   0400000A           BEQ      ??__deleaker_w_diropen_1
   \   0000001C   0530A0E1           MOV      R3,R5
   \   00000020   0420A0E1           MOV      R2,R4
   \   00000024   0610A0E1           MOV      R1,R6
   \   00000028   0F00A0E3           MOV      R0,#+15
   \   0000002C   ........           BL       ??trace_alloc
   1145          	return ret;
   \                     ??__deleaker_w_diropen_1:
   \   00000030   0600A0E1           MOV      R0,R6
   \   00000034   7080BDE8           POP      {R4-R6,PC}       ;; return
   1146          }
   1147          

   \                                 In segment CODE, align 4, keep-with-next
   1148          void* __deleaker_SoundRecorderDesc_Create( const char* __file__, int __line__ )
   1149          {
   \                     ??__deleaker_SoundRecorderDesc_Create:
   \   00000000   70402DE9           PUSH     {R4-R6,LR}
   \   00000004   0040A0E1           MOV      R4,R0
   \   00000008   0150A0E1           MOV      R5,R1
   1150          	void* ret = __original_SoundRecorderDesc_Create();
   \   0000000C   550300EF           SWI      +853
   \   00000010   0060B0E1           MOVS     R6,R0
   1151          	if(ret)trace_alloc(trace_memory, ret, __file__, __line__);
   \   00000014   0400000A           BEQ      ??__deleaker_SoundRecorderDesc_Create_1
   \   00000018   0530A0E1           MOV      R3,R5
   \   0000001C   0420A0E1           MOV      R2,R4
   \   00000020   0610A0E1           MOV      R1,R6
   \   00000024   0000A0E3           MOV      R0,#+0
   \   00000028   ........           BL       ??trace_alloc
   1152          	return ret;
   \                     ??__deleaker_SoundRecorderDesc_Create_1:
   \   0000002C   0600A0E1           MOV      R0,R6
   \   00000030   7080BDE8           POP      {R4-R6,PC}       ;; return
   1153          }
   1154          

   \                                 In segment CODE, align 4, keep-with-next
   1155          void __deleaker_SoundRecorderDesc_Destroy( const char* __file__, int __line__, void* desc )
   1156          {
   \                     ??__deleaker_SoundRecorderDesc_Destroy:
   \   00000000   10402DE9           PUSH     {R4,LR}
   1157          	trace_free(trace_memory, desc, __file__, __line__);
   \   00000004   0130A0E1           MOV      R3,R1
   \   00000008   0240A0E1           MOV      R4,R2
   \   0000000C   0020A0E1           MOV      R2,R0
   \   00000010   0410A0E1           MOV      R1,R4
   \   00000014   0000A0E3           MOV      R0,#+0
   \   00000018   ........           BL       ??trace_free
   1158          	__original_SoundRecorderDesc_Destroy(desc);
   \   0000001C   0400A0E1           MOV      R0,R4
   \   00000020   560300EF           SWI      +854
   1159          }
   \   00000024   1080BDE8           POP      {R4,PC}          ;; return

   \                                 In segment CODE, align 4, keep-with-next
   \                     ??DataTable3:
   \   00000000   ........           DC32     buffers

   \                                 In segment CODE, align 4, keep-with-next
   \                     ??DataTable6:
   \   00000000   ........           DC32     ??findtimercb

   \                                 In segment CODE, align 4, keep-with-next
   \                     ??DataTable11:
   \   00000000   ........           DC32     buffers

   \                                 In segment DATA_ID, align 4, align-sorted
   \                     `?<Initializer for buffers>`:
   \   00000000   000000000000       DC8 0, 0, 0, 0, 0, 0, 0, 0, 0, 0, 0, 0, 0, 0, 0, 0
   \              000000000000
   \              00000000    
   \   00000010   000000000000       DC8 0, 0, 0, 0, 0, 0, 0, 0, 0, 0, 0, 0, 0, 0, 0, 0
   \              000000000000
   \              00000000    
   \   00000020   000000000000       DC8 0, 0, 0, 0, 0, 0, 0, 0, 0, 0, 0, 0, 0, 0, 0, 0
   \              000000000000
   \              00000000    
   \   00000030   000000000000       DC8 0, 0, 0, 0, 0, 0, 0, 0, 0, 0, 0, 0, 0, 0, 0, 0, 0, 0, 0, 0
   \              000000000000
   \              000000000000
   \              0000        
   \                     `?<Initializer for buffers2>`:
   \   00000044   000000000000       DC8 0, 0, 0, 0, 0, 0, 0, 0, 0, 0, 0, 0, 0, 0, 0, 0
   \              000000000000
   \              00000000    
   \                     `?<Initializer for leaktypes>`:
   \   00000054   ............       DC32 `?<Constant "memory">`, `?<Constant "strid">`
   \              ....        
   \   0000005C   ............       DC32 `?<Constant "iconid">`, `?<Constant "timer">`
   \              ....        
   \   00000064   ............       DC32 `?<Constant "file">`, `?<Constant "hook">`, `?<Constant "dll">`
   \              ............
   \   00000070   ............       DC32 `?<Constant "gc">`, `?<Constant "gvi">`, `?<Constant "gui">`
   \              ............
   \   0000007C   ............       DC32 `?<Constant "book">`, `?<Constant "process">`
   \              ....        
   \   00000084   ............       DC32 `?<Constant "ose buffer">`, `?<Constant "metadatadesc">`
   \              ....        
   \   0000008C   ............       DC32 `?<Constant "fileitemstruct">`, `?<Constant "w_dir">`
   \              ....        
   \   00000094   ........           DC32 `?<Constant "unallocated">`
   \                     `?<Initializer for iconid_start>`:
   \   00000098   00E80000           DC32 59392
   \                     `?<Initializer for iconid_end>`:
   \   0000009C   FFE80000           DC32 59647
   \                     `?<Initializer for started>`:
   \   000000A0   00                 DC8 0
   \   000000A1   000000             DC8 0, 0, 0
   \                     `?<Initializer for logname>`:
   \   000000A4   6D0065006D00       DC8 6DH, 0, 65H, 0, 6DH, 0, 6FH, 0
   \              6F00        
   \   000000AC   720079002E00       DC8 72H, 0, 79H, 0, 2EH, 0, 74H, 0
   \              7400        
   \   000000B4   780074000000       DC8 78H, 0, 74H, 0, 0, 0
   \   000000BA   000000000000       DC8 0, 0, 0, 0, 0, 0, 0, 0, 0, 0, 0, 0, 0, 0, 0, 0
   \              000000000000
   \              00000000    
   \   000000CA   000000000000       DC8 0, 0, 0, 0, 0, 0, 0, 0, 0, 0, 0, 0, 0, 0, 0, 0
   \              000000000000
   \              00000000    
   \   000000DA   000000000000       DC8 0, 0, 0, 0, 0, 0, 0, 0, 0, 0, 0, 0, 0, 0, 0, 0
   \              000000000000
   \              00000000    
   \   000000EA   000000000000       DC8 0, 0, 0, 0, 0, 0, 0, 0, 0, 0, 0, 0, 0, 0, 0, 0
   \              000000000000
   \              00000000    
   \   000000FA   000000000000       DC8 0, 0, 0, 0, 0, 0, 0, 0, 0, 0, 0, 0, 0, 0, 0, 0
   \              000000000000
   \              00000000    
   \   0000010A   000000000000       DC8 0, 0, 0, 0, 0, 0, 0, 0, 0, 0, 0, 0, 0, 0, 0, 0
   \              000000000000
   \              00000000    
   \   0000011A   000000000000       DC8 0, 0, 0, 0, 0, 0, 0, 0, 0, 0
   \              00000000    

   \                                 In segment DATA_C, align 4, align-sorted
   \                     `?<Constant "gui">`:
   \   00000000   67756900           DC8 "gui"

   \                                 In segment DATA_C, align 4, align-sorted
   \                     `?<Constant L"\\x57\\x56\\x5f\\x59\\x41\\x48\\x4f\\x4f\\`:
   \   00000000   570056005F00       DC8 57H, 0, 56H, 0, 5FH, 0, 59H, 0
   \              5900        
   \   00000008   410048004F00       DC8 41H, 0, 48H, 0, 4FH, 0, 4FH, 0
   \              4F00        
   \   00000010   5F0053005400       DC8 5FH, 0, 53H, 0, 54H, 0, 41H, 0
   \              4100        
   \   00000018   540055005300       DC8 54H, 0, 55H, 0, 53H, 0, 42H, 0
   \              4200        
   \   00000020   410052005F00       DC8 41H, 0, 52H, 0, 5FH, 0, 53H, 0
   \              5300        
   \   00000028   590053005400       DC8 59H, 0, 53H, 0, 54H, 0, 45H, 0
   \              4500        
   \   00000030   4D004D005300       DC8 4DH, 0, 4DH, 0, 53H, 0, 47H, 0
   \              4700        
   \   00000038   5F0049004300       DC8 5FH, 0, 49H, 0, 43H, 0, 4EH, 0
   \              4E00        
   \   00000040   0000               DC8 0, 0
   \   00000042   0000               DC8 0, 0
   \   00000044   52004E005F00       DC8 52H, 0, 4EH, 0, 5FH, 0, 53H, 0
   \              5300        
   \   0000004C   48004F005200       DC8 48H, 0, 4FH, 0, 52H, 0, 54H, 0
   \              5400        
   \   00000054   430055005400       DC8 43H, 0, 55H, 0, 54H, 0, 5FH, 0
   \              5F00        
   \   0000005C   4C0049005300       DC8 4CH, 0, 49H, 0, 53H, 0, 54H, 0
   \              5400        
   \   00000064   5F0043004100       DC8 5FH, 0, 43H, 0, 41H, 0, 4CH, 0
   \              4C00        
   \   0000006C   4C005F004C00       DC8 4CH, 0, 5FH, 0, 4CH, 0, 49H, 0
   \              4900        
   \   00000074   530054005F00       DC8 53H, 0, 54H, 0, 5FH, 0, 49H, 0
   \              4900        
   \   0000007C   43004E000000       DC8 43H, 0, 4EH, 0, 0, 0
   \   00000082   0000               DC8 0, 0
   \   00000084   5A0045005200       DC8 5AH, 0, 45H, 0, 52H, 0, 4FH, 0
   \              4F00        
   \   0000008C   5F0052004F00       DC8 5FH, 0, 52H, 0, 4FH, 0, 57H, 0
   \              5700        
   \   00000094   5F0053004500       DC8 5FH, 0, 53H, 0, 45H, 0, 50H, 0
   \              5000        
   \   0000009C   410052004100       DC8 41H, 0, 52H, 0, 41H, 0, 54H, 0
   \              5400        
   \   000000A4   4F0052005F00       DC8 4FH, 0, 52H, 0, 5FH, 0, 49H, 0
   \              4900        
   \   000000AC   43004E000000       DC8 43H, 0, 4EH, 0, 0, 0
   \   000000B2   0000               DC8 0, 0

   \                                 In segment DATA_C, align 4, align-sorted
   \                     `?<Constant "leak type \\"%s\\"\\n">`:
   \   00000000   6C65616B2074       DC8 "leak type \"%s\"\012"
   \              797065202225
   \              73220A00    
   \   00000010   2D2025733A25       DC8 "- %s:%d (%x)\012"
   \              642028257829
   \              0A00        
   \   0000001E   0000               DC8 0, 0
   \   00000020   6E6F206C6561       DC8 "no leaks detected\012"
   \              6B7320646574
   \              65637465640A
   \              00          
   \   00000033   00                 DC8 0
   \   00000034   6E65772F6465       DC8 "new/delete counter broken\012"
   \              6C6574652063
   \              6F756E746572
   \              2062726F6B65
   \              6E0A00      
   \   0000004F   00                 DC8 0

   \                                 In segment DATA_C, align 4, align-sorted
   \                     `?<Constant "internal error">`:
   \   00000000   696E7465726E       DC8 "internal error"
   \              616C20657272
   \              6F7200      
   \   0000000F   00                 DC8 0

   \                                 In segment DATA_C, align 4, align-sorted
   \                     `?<Constant "memory">`:
   \   00000000   6D656D6F7279       DC8 "memory"
   \              00          
   \   00000007   00                 DC8 0

   \                                 In segment DATA_C, align 4, align-sorted
   \                     `?<Constant "strid">`:
   \   00000000   737472696400       DC8 "strid"
   \   00000006   0000               DC8 0, 0

   \                                 In segment DATA_C, align 4, align-sorted
   \                     `?<Constant "iconid">`:
   \   00000000   69636F6E6964       DC8 "iconid"
   \              00          
   \   00000007   00                 DC8 0

   \                                 In segment DATA_C, align 4, align-sorted
   \                     `?<Constant "timer">`:
   \   00000000   74696D657200       DC8 "timer"
   \   00000006   0000               DC8 0, 0

   \                                 In segment DATA_C, align 4, align-sorted
   \                     `?<Constant "file">`:
   \   00000000   66696C6500         DC8 "file"
   \   00000005   000000             DC8 0, 0, 0

   \                                 In segment DATA_C, align 4, align-sorted
   \                     `?<Constant "hook">`:
   \   00000000   686F6F6B00         DC8 "hook"
   \   00000005   000000             DC8 0, 0, 0

   \                                 In segment DATA_C, align 4, align-sorted
   \                     `?<Constant "dll">`:
   \   00000000   646C6C00           DC8 "dll"

   \                                 In segment DATA_C, align 1, align-sorted
   \                     `?<Constant "gc">`:
   \   00000000   676300             DC8 "gc"

   \                                 In segment DATA_C, align 4, align-sorted
   \                     `?<Constant "gvi">`:
   \   00000000   67766900           DC8 "gvi"

   \                                 In segment DATA_C, align 4, align-sorted
   \                     `?<Constant "C:\\\\Users\\\\Faby\\\\Desktop...">`:
   \   00000000   433A5C557365       DC8 "C:\\Users\\Faby\\Desktop\\StudyElf\\deleaker\\mem2.cpp"
   \              72735C466162
   \              795C4465736B
   \              746F705C5374
   \              756479456C66
   \              5C64656C6561
   \              6B65725C6D65
   \              6D322E637070
   \              00          
   \   00000031   000000             DC8 0, 0, 0

   \                                 In segment DATA_C, align 4, align-sorted
   \                     `?<Constant "book">`:
   \   00000000   626F6F6B00         DC8 "book"
   \   00000005   000000             DC8 0, 0, 0

   \                                 In segment DATA_C, align 4, align-sorted
   \                     `?<Constant "process">`:
   \   00000000   70726F636573       DC8 "process"
   \              7300        

   \                                 In segment DATA_C, align 4, align-sorted
   \                     `?<Constant "ose buffer">`:
   \   00000000   6F7365206275       DC8 "ose buffer"
   \              6666657200  
   \   0000000B   00                 DC8 0

   \                                 In segment DATA_C, align 4, align-sorted
   \                     `?<Constant "metadatadesc">`:
   \   00000000   6D6574616461       DC8 "metadatadesc"
   \              746164657363
   \              00          
   \   0000000D   000000             DC8 0, 0, 0

   \                                 In segment DATA_C, align 4, align-sorted
   \                     `?<Constant "fileitemstruct">`:
   \   00000000   66696C656974       DC8 "fileitemstruct"
   \              656D73747275
   \              637400      
   \   0000000F   00                 DC8 0

   \                                 In segment DATA_C, align 4, align-sorted
   \                     `?<Constant "w_dir">`:
   \   00000000   775F64697200       DC8 "w_dir"
   \   00000006   0000               DC8 0, 0

   \                                 In segment DATA_C, align 4, align-sorted
   \                     `?<Constant "unallocated">`:
   \   00000000   756E616C6C6F       DC8 "unallocated"
   \              636174656400
   1160          //__swi __arm GUI* CreateDateInputVA( int zero, ... );
   1161          //__swi __arm GUI* CreatePercentInputVA( int zero, ... );
   1162          //__swi __arm GUI* CreateStringInputVA( int, ... );
   1163          //__swi __arm GUI* CreateTimeInputVA( int zero, ... );
   1164          //__swi __arm GUI* CreateYesNoQuestionVA( int zero, ... );
   1165          //__swi __arm LIST* DataBrowserBook_GetCurrentFoldersList( BOOK* DataBrowserBook );
   1166          //__swi __arm SUB_EXECUTE* DataBrowser_CreateSubExecute( int BookID, FILEITEM* );
   1167          //__swi __arm int DataBrowser_ExecuteSubroutine( SUB_EXECUTE* sub, int action, u16* unk );
   1168          //__swi __arm int JavaAppDesc_Get( int unk1, void** JavaDesc );
   1169          //__swi __arm int JavaAppDesc_GetFirstApp( void* JavaDesc );
   1170          //__swi __arm int JavaAppDesc_GetJavaAppFullpath( void* JavaDesc, JavaAppFullpath* );
   1171          //__swi __arm int JavaAppDesc_GetJavaAppID( void* JavaDesc );
   1172          //__swi __arm int JavaAppDesc_GetJavaAppInfo( void* JavaDesc, int ID, wchar_t** wstr );
   1173          //__swi __arm int JavaAppDesc_GetNextApp( void* JavaDesc );
   1174          //__swi __arm void JavaDialog_Close( int unk1 );
   1175          //__swi __arm int JavaDialog_Open( int unk1, char* unk2, void** JavaDesc );
   1176          //__swi __arm int MSG_SendMessage_AddRecipient( void*, wchar_t*, wchar_t*, int, int );
   1177          //__swi __arm int MSG_SendMessage_CreateMessage( int, void* );
   1178          //__swi __arm int MSG_SendMessage_DestroyMessage( void* );
   1179          //__swi __arm int MSG_SendMessage_Start( int, void*, int );
   1180          //__swi __arm int REQUEST_IMAGEHANDLER_INTERNAL_GETHANDLE( const int* sync, u16* ImageHandler, char* unk );
   1181          //__swi __arm int REQUEST_IMAGEHANDLER_INTERNAL_REGISTER( const int* sync, u16 ImageHandler, wchar_t* path, wchar_t* fname, int unk, IMAGEID*, char* error );
   1182          //__swi __arm int REQUEST_IMAGEHANDLER_INTERNAL_UNREGISTER( const int* sync, u16 ImageHandler, u16*, u16*, IMAGEID, int unk_1, char* error );
   1183          //__swi __arm int REQUEST_PHONEBOOK_ACCESSSTATUS_TOTAL_GET( const int* sync, int* );
   1184          //__swi __arm int REQUEST_PROFILE_GETPROFILENAME( const int* sync, int unk, TEXTID_DATA*, char* error );
   1185          //__swi __arm int Request_EventChannel_Subscribe( const int* sync, int mode, int event );
   1186          //__swi __arm int SoundRecorder_Create( void* desc );
   1187          //__swi __arm int SoundRecorder_RecordCall( BOOK* OngoingCallBook );
   1188          //__swi __arm int inflate( z_streamp strm, int flush );
   1189          //__swi __arm int inflateEnd( z_streamp strm );
   1190          //__swi __arm int inflateInit2_( z_streamp strm, int windowBits, const char* version, int stream_size );
   1191          //__swi __arm png_infop png_create_info_struct( png_structp png_ptr );
   1192          //__swi __arm png_structp png_create_read_struct_2( png_const_charp user_png_ver, png_voidp error_ptr, png_error_ptr error_fn, png_error_ptr warn_fn, png_voidp mem_ptr, png_malloc_ptr malloc_fn, png_free_ptr free_fn );
   1193          //__swi __arm void png_destroy_info_struct( png_structp png_ptr, png_infopp info_ptr_ptr );
   1194          //__swi __arm void png_destroy_read_struct( png_structpp png_ptr_ptr, png_infopp info_ptr_ptr, png_infopp end_info_ptr_ptr );
   1195          //__swi __arm png_uint_32 png_get_IHDR( png_structp png_ptr, png_infop info_ptr, png_uint_32* width, png_uint_32* height, int* bit_depth, int* color_type, int* interlace_method, int* compression_method, int* filter_method );
   1196          //__swi __arm void png_process_data( png_structp png_ptr, png_infop info_ptr, png_bytep buffer, png_size_t buffer_size );
   1197          //__swi __arm void png_progressive_combine_row( png_structp png_ptr, png_bytep old_row, png_bytep new_row );
   1198          //__swi __arm void png_read_update_info( png_structp png_ptr, png_infop info_ptr );
   1199          //__swi __arm void png_set_filler( png_structp png_ptr, png_uint_32 filler, int flags );
   1200          //__swi __arm void png_set_progressive_read_fn( png_structp png_ptr, png_voidp progressive_ptr, png_progressive_info_ptr info_fn, png_progressive_row_ptr row_fn, png_progressive_end_ptr end_fn );
   1201          //__swi __arm int png_sig_cmp( png_bytep sig, png_size_t start, png_size_t num_to_check );
   1202          
   1203          #endif

   Maximum stack usage in bytes:

     Function                       CSTACK
     --------                       ------
     __deleaker_AllocDirHandle(char const *, int, wchar_t const *)
                                       16
     __deleaker_BookObj_KillBook(char const *, int, BOOK *)
                                        8
     __deleaker_BookObj_SoftKeys_SetText(char const *, int, BOOK *, int, int)
                                       24
     __deleaker_CreateBook(char const *, int, BOOK *, void (*)(BOOK *), PAGE_DESC const *, char const *, int, APP_DESC *)
                                       44
     __deleaker_CreateListMenu(char const *, int, BOOK *, int)
                                       16
     __deleaker_CreateMonitorFeedback(char const *, int, int, BOOK *, void (*)(BOOK *), void (*)(BOOK *), void (*)(BOOK *))
                                       20
     __deleaker_CreateNOfMany(char const *, int, BOOK *)
                                       16
     __deleaker_CreateOneOfMany(char const *, int, BOOK *)
                                       16
     __deleaker_CreateProgressBar(char const *, int, BOOK *, int)
                                       16
     __deleaker_CreateTabMenuBar(char const *, int, BOOK *)
                                       16
     __deleaker_CreateURI(char const *, int, wchar_t *, wchar_t *, char *)
                                       16
     __deleaker_DataBrowserDesc_Create(char const *, int)
                                       16
     __deleaker_DataBrowserDesc_Destroy(char const *, int, void *)
                                        8
     __deleaker_DataBrowserDesc_SetHeaderText(char const *, int, void *, int)
                                       20
     __deleaker_DataBrowserDesc_SetOKSoftKeyText(char const *, int, void *, int)
                                       20
     __deleaker_Date2ID(char const *, int, DATE *, int, int)
                                       16
     __deleaker_DestroyDirHandle(char const *, int, DIR_HANDLE *)
                                        8
     __deleaker_DispObject_SetBackgroundImage(char const *, int, DISP_OBJ *, IMAGEID)
                                       20
     __deleaker_DispObject_SetCursorImage(char const *, int, DISP_OBJ *, IMAGEID)
                                       20
     __deleaker_DispObject_SetTitleBackgroundImage(char const *, int, DISP_OBJ *, IMAGEID)
                                       20
     __deleaker_DispObject_SetTitleText(char const *, int, DISP_OBJ *, int)
                                       20
     __deleaker_FILEITEM_Create(char const *, int)
                                       16
     __deleaker_FILEITEM_CreateCopy(char const *, int, FILEITEM *)
                                       16
     __deleaker_FILEITEM_Destroy(char const *, int, FILEITEM *)
                                        8
     __deleaker_Feedback_SetText(char const *, int, GUI *, int)
                                       20
     __deleaker_Feedback_SetTextExtended(char const *, int, GUI *, int, int)
                                       24
     __deleaker_FreeBook(char const *, int, BOOK *)
                                        8
     __deleaker_GC_CreateMemoryGC(char const *, int, int, int, int, int, void *, int)
                                       24
     __deleaker_GC_FreeGC(char const *, int, GC *)
                                        8
     __deleaker_GUIInput_SetIcon(char const *, int, GUI *, IMAGEID)
                                       20
     __deleaker_GUIObject_Create(char const *, int, GUI *, void (*)(GUI *), void (*)(DISP_DESC *), BOOK *, void (*)(DISP_OBJ *, void *, GUI *), int, int)
                                       52
     __deleaker_GUIObject_Destroy(char const *, int, GUI *)
                                        8
     __deleaker_GUIObject_SetBackgroundImage(char const *, int, GUI *, IMAGEID)
                                       20
     __deleaker_GUIObject_SetCursorImage(char const *, int, GUI *, IMAGEID)
                                       20
     __deleaker_GUIObject_SetSecondRowTitleText(char const *, int, GUI *, int)
                                       20
     __deleaker_GUIObject_SetTitleBackgroundImage(char const *, int, GUI *, IMAGEID)
                                       20
     __deleaker_GUIObject_SetTitleIcon(char const *, int, GUI *, IMAGEID)
                                       20
     __deleaker_GUIObject_SetTitleText(char const *, int, GUI *, int)
                                       20
     __deleaker_GUIObject_SoftKeys_AddErrorStr(char const *, int, GUI *, u16, int)
                                       24
     __deleaker_GUIObject_SoftKeys_SetInfoText(char const *, int, GUI *, u16, int)
                                       24
     __deleaker_GUIObject_SoftKeys_SetText(char const *, int, GUI *, u16, int)
                                       24
     __deleaker_GUIObject_SoftKeys_SetTexts(char const *, int, GUI *, u16, int, int)
                                       28
     __deleaker_GUIonMessage_SetMenuItemIcon(char const *, int, GUI_MESSAGE *, int, IMAGEID)
                                       24
     __deleaker_GUIonMessage_SetMenuItemInfoText(char const *, int, GUI_MESSAGE *, int)
                                       20
     __deleaker_GUIonMessage_SetMenuItemSecondLineText(char const *, int, GUI_MESSAGE *, int)
                                       20
     __deleaker_GUIonMessage_SetMenuItemText(char const *, int, GUI_MESSAGE *, int)
                                       20
     __deleaker_GUIonMessage_SetMenuItemUnavailableText(char const *, int, GUI_MESSAGE *, int)
                                       20
     __deleaker_GUIonMessage_SubItem_SetText(char const *, int, GUI_MESSAGE *, int)
                                       20
     __deleaker_GVI_CreateBitmap(char const *, int, int, int, int)
                                       16
     __deleaker_GVI_CreateDashedPen(char const *, int, char, int, int, int, int)
                                       20
     __deleaker_GVI_CreateMemoryGC(char const *, int, void *)
                                       16
     __deleaker_GVI_CreatePen(char const *, int, char, int)
                                       16
     __deleaker_GVI_CreateSolidBrush(char const *, int, int)
                                       16
     __deleaker_GVI_DeleteMemoryGC(char const *, int, GVI_GC)
                                        8
     __deleaker_GVI_Delete_GVI_Object(char const *, int, void * *)
                                        8
     __deleaker_Gif2ID(char const *, int, u16, wchar_t const *, wchar_t const *, IMAGEID *)
                                       20
     __deleaker_ImageID_Free(char const *, int, IMAGEID)
                                       16
     __deleaker_ImageID_Get(char const *, int, wchar_t const *, wchar_t const *, IMAGEID *)
                                       20
     __deleaker_ImageID_GetIndirect(char const *, int, void *, int, int, wchar_t *, IMAGEID *)
                                       28
     __deleaker_JavaApp_LogoImageID_Get(char const *, int, wchar_t *, IMAGEID *)
                                       20
     __deleaker_JavaSession_GetName(char const *, int)
                                       16
     __deleaker_KeyCode2Name(char const *, int, int)
                                       16
     __deleaker_ListMenu_SetItemIcon(char const *, int, GUI *, int, wchar_t, int, IMAGEID)
                                       36
     __deleaker_ListMenu_SetItemSecondLineText(char const *, int, GUI *, int, int)
                                       24
     __deleaker_ListMenu_SetNoItemText(char const *, int, GUI *, int)
                                       20
     __deleaker_List_Create(char const *, int)
                                       16
     __deleaker_List_Destroy(char const *, int, LIST *)
                                        8
     __deleaker_LoadDLL(char const *, int, wchar_t *)
                                       16
     __deleaker_MediaPlayer_SoftKeys_AddHelpStr(char const *, int, GUI *, int, int)
                                       24
     __deleaker_MediaPlayer_SoftKeys_SetText(char const *, int, GUI *, int, int)
                                       24
     __deleaker_MenuBook_Desktop_GetSelectedItemID(char const *, int, BOOK *)
                                       16
     __deleaker_MessageBox(char const *, int, int, int, IMAGEID, int, int, BOOK *)
                                       44
     __deleaker_MetaData_Desc_Create(char const *, int, wchar_t *, wchar_t *)
                                       16
     __deleaker_MetaData_Desc_Destroy(char const *, int, void *)
                                        8
     __deleaker_ModifyKeyHook(char const *, int, KEYHOOKPROC, int, LPARAM)
                                       24
     __deleaker_ModifyUIPageHook(char const *, int, int, PAGEHOOKPROC, LPARAM, int)
                                       24
     __deleaker_NOfMany_SetTexts(char const *, int, GUI *, int *, int)
                                       28
     __deleaker_ObexSendFile(char const *, int, SEND_OBEX_STRUCT *)
                                       20
     __deleaker_OneOfMany_SetTexts(char const *, int, GUI *, int *, int)
                                       28
     __deleaker_PNUM2Name(char const *, int, void *, int, int)
                                       16
     __deleaker_ProgressBar_SetIcon(char const *, int, GUI *, IMAGEID)
                                       20
     __deleaker_ProgressBar_SetText(char const *, int, GUI *, int)
                                       20
     __deleaker_Shortcut_Get_MenuItemIconID(char const *, int, void *)
                                       16
     __deleaker_Shortcut_Get_MenuItemName(char const *, int, void *)
                                       16
     __deleaker_SoundRecorderDesc_Create(char const *, int)
                                       16
     __deleaker_SoundRecorderDesc_Destroy(char const *, int, void *)
                                        8
     __deleaker_StatusIndication_Item8_SetText(char const *, int, int)
                                       16
     __deleaker_StatusIndication_SetItemText(char const *, int, GUI *, int, int)
                                       24
     __deleaker_StatusIndication_ShowNotes(char const *, int, int)
                                       16
     __deleaker_StringInput_DispObject_SetText(char const *, int, DISP_OBJ *, int)
                                       20
     __deleaker_TabMenuBar_SetTabIcon(char const *, int, GUI *, int, IMAGEID, int)
                                       28
     __deleaker_TabMenuBar_SetTabTitle(char const *, int, GUI *, int, int)
                                       24
     __deleaker_TextFeedbackWindow(char const *, int, BOOK *, int)
                                       16
     __deleaker_TextID_Copy(char const *, int, int)
                                       16
     __deleaker_TextID_Create(char const *, int, void const *, TEXT_ENCODING, int)
                                       28
     __deleaker_TextID_CreateIntegerID(char const *, int, int)
                                       16
     __deleaker_TextID_Destroy(char const *, int, int)
                                        8
     __deleaker_Time2ID(char const *, int, TIME *, char, int)
                                       16
     __deleaker_Timer_Kill(char const *, int, u16 *)
                                        8
     __deleaker_Timer_ReSet(char const *, int, u16 *, int, TIMERPROC, LPARAM)
                                       28
     __deleaker_Timer_Set(char const *, int, int, TIMERPROC, LPARAM)
                                       16
     __deleaker_UnLoadDLL(char const *, int, void *)
                                        8
     __deleaker_VCALL_SetNameIcon(char const *, int, void *, IMAGEID)
                                       20
     __deleaker_YesNoQuestion_SetIcon(char const *, int, GUI *, IMAGEID)
                                       20
     __deleaker__fopen(char const *, int, wchar_t const *, wchar_t const *, unsigned int, unsigned int, FILELISTITEM *)
                                       20
     __deleaker_alloc(char const *, int, OSBUFSIZE, SIGSELECT)
                                       16
     __deleaker_create_process(char const *, int, PROCESS_TYPE, char *, void () *, OSADDRESS, OSPRIORITY, OSTIME, PROCESS, void *, OSVECTOR, OSUSER)
                                       52
     __deleaker_fclose(char const *, int, int)
                                        8
     __deleaker_fopen(char const *, int, wchar_t const *, int, int)
                                       16
     __deleaker_free_buf(char const *, int, SIGNAL **)
                                        8
     __deleaker_hunt(char const *, int, char const *, OSUSER, unsigned long *, SIGNAL **)
                                       20
     __deleaker_kill_proc(char const *, int, PROCESS)
                                        8
     __deleaker_malloc(char const *, int, int)
                                       16
     __deleaker_manifest_GetParam(char const *, int, char const *, char const *, int)
                                       16
     __deleaker_mfree(char const *, int, void *)
                                        8
     __deleaker_mfree_adr(char const *, int)
                                        0
     __deleaker_popfileline(char const *&, int &)
                                       16
     __deleaker_pushfileline(char const *, int)
                                       12
     __deleaker_receive(char const *, int, SIGSELECT const *)
                                       16
     __deleaker_receive_w_tmo(char const *, int, OSTIME, SIGSELECT *)
                                       16
     __deleaker_send(char const *, int, SIGNAL **, PROCESS)
                                       12
     __deleaker_w_dirclose(char const *, int, void *)
                                        8
     __deleaker_w_diropen(char const *, int, wchar_t const *)
                                       16
     __deleaker_w_fclose(char const *, int, int)
                                        8
     __deleaker_w_fopen(char const *, int, wchar_t const *, int, int, int)
                                       16
     findtimercb(void *, void *)        0
     isallocatediconid(IMAGEID)         0
     isallocatedstrid(int)              0
     mfree_(void *)                     4
     operator delete(void *)           16
     operator delete(void *, void *)
                                       12
     operator delete[](void *)         16
     operator delete[](void *, void *)
                                       12
     operator new(size_t)              16
     operator new(size_t, void *)      16
     operator new[](size_t)            16
     operator new[](size_t, void *)    16
     trace_alloc(int, void *, char const *, int)
                                       20
     trace_alloc_ret(int, void *, void *, char const *, int)
                                        8
     trace_done()                     304
     trace_free(int, void *, char const *, int)
                                       28
     trace_init(wchar_t *)             24
     trace_onTimer(u16, LPARAM)        16
     trace_timerkill(u16 *)            16
     trace_timerset(int, void (*)(u16, LPARAM), LPARAM)
                                       16


   Segment part sizes:

     Function/Label                 Bytes
     --------------                 -----
     buffers                         292
     trace_init(wchar_t *)           276
     trace_done()                    488
     trace_alloc(int, void *, char const *, int)
                                      56
     trace_alloc_ret(int, void *, void *, char const *, int)
                                      44
     trace_free(int, void *, char const *, int)
                                     152
     findtimercb(void *, void *)      20
     trace_timerkill(u16 *)           84
     trace_onTimer(u16, LPARAM)       84
     trace_timerset(int, void (*)(u16, LPARAM), LPARAM)
                                      64
     isallocatedstrid(int)            40
     isallocatediconid(IMAGEID)       36
     __deleaker_pushfileline(char const *, int)
                                      40
     __deleaker_popfileline(char const *&, int &)
                                      92
     operator delete(void *)          44
     operator delete[](void *)        44
     operator new(size_t)             44
     operator new[](size_t)           44
     operator delete(void *, void *)
                                      24
     operator delete[](void *, void *)
                                      24
     operator new(size_t, void *)     32
     operator new[](size_t, void *)   32
     __deleaker_malloc(char const *, int, int)
                                      56
     mfree_(void *)                   20
     __deleaker_mfree_adr(char const *, int)
                                      12
     __deleaker_mfree(char const *, int, void *)
                                      40
     __deleaker_CreateBook(char const *, int, BOOK *, void (*)(BOOK *), PAGE_DESC const *, char const *, int, APP_DESC *)
                                     108
     __deleaker_FreeBook(char const *, int, BOOK *)
                                      40
     __deleaker_BookObj_KillBook(char const *, int, BOOK *)
                                      40
     __deleaker_List_Create(char const *, int)
                                      52
     __deleaker_List_Destroy(char const *, int, LIST *)
                                      40
     __deleaker_manifest_GetParam(char const *, int, char const *, char const *, int)
                                      64
     __deleaker_AllocDirHandle(char const *, int, wchar_t const *)
                                      56
     __deleaker_DestroyDirHandle(char const *, int, DIR_HANDLE *)
                                      40
     __deleaker_GUIObject_Create(char const *, int, GUI *, void (*)(GUI *), void (*)(DISP_DESC *), BOOK *, void (*)(DISP_OBJ *, void *, GUI *), int, int)
                                     116
     __deleaker_GUIObject_Destroy(char const *, int, GUI *)
                                      40
     __deleaker__fopen(char const *, int, wchar_t const *, wchar_t const *, unsigned int, unsigned int, FILELISTITEM *)
                                      84
     __deleaker_fopen(char const *, int, wchar_t const *, int, int)
                                      68
     __deleaker_fclose(char const *, int, int)
                                      40
     __deleaker_w_fopen(char const *, int, wchar_t const *, int, int, int)
                                      72
     __deleaker_w_fclose(char const *, int, int)
                                      40
     __deleaker_CreateListMenu(char const *, int, BOOK *, int)
                                      60
     __deleaker_CreateNOfMany(char const *, int, BOOK *)
                                      56
     __deleaker_CreateOneOfMany(char const *, int, BOOK *)
                                      56
     __deleaker_CreateTabMenuBar(char const *, int, BOOK *)
                                      56
     __deleaker_CreateProgressBar(char const *, int, BOOK *, int)
                                      60
     __deleaker_TextID_Create(char const *, int, void const *, TEXT_ENCODING, int)
                                     144
     __deleaker_TextID_Copy(char const *, int, int)
                                      64
     __deleaker_TextID_CreateIntegerID(char const *, int, int)
                                      64
     __deleaker_TextID_Destroy(char const *, int, int)
                                      40
     __deleaker_GUIObject_SetTitleText(char const *, int, GUI *, int)
                                      72
     __deleaker_GUIObject_SoftKeys_SetText(char const *, int, GUI *, u16, int)
                                      80
     __deleaker_GUIonMessage_SetMenuItemText(char const *, int, GUI_MESSAGE *, int)
                                      72
     __deleaker_GUIonMessage_SetMenuItemSecondLineText(char const *, int, GUI_MESSAGE *, int)
                                      72
     __deleaker_GUIonMessage_SetMenuItemInfoText(char const *, int, GUI_MESSAGE *, int)
                                      72
     __deleaker_GUIonMessage_SetMenuItemUnavailableText(char const *, int, GUI_MESSAGE *, int)
                                      72
     __deleaker_MessageBox(char const *, int, int, int, IMAGEID, int, int, BOOK *)
                                     176
     __deleaker_BookObj_SoftKeys_SetText(char const *, int, BOOK *, int, int)
                                      80
     __deleaker_DataBrowserDesc_SetHeaderText(char const *, int, void *, int)
                                      72
     __deleaker_DataBrowserDesc_SetOKSoftKeyText(char const *, int, void *, int)
                                      72
     __deleaker_DispObject_SetTitleText(char const *, int, DISP_OBJ *, int)
                                      72
     __deleaker_GUIObject_SoftKeys_AddErrorStr(char const *, int, GUI *, u16, int)
                                      80
     __deleaker_ProgressBar_SetText(char const *, int, GUI *, int)
                                      72
     __deleaker_StatusIndication_Item8_SetText(char const *, int, int)
                                      64
     __deleaker_StatusIndication_SetItemText(char const *, int, GUI *, int, int)
                                      80
     __deleaker_StatusIndication_ShowNotes(char const *, int, int)
                                      64
     __deleaker_StringInput_DispObject_SetText(char const *, int, DISP_OBJ *, int)
                                      72
     __deleaker_GUIObject_SoftKeys_SetInfoText(char const *, int, GUI *, u16, int)
                                      80
     __deleaker_ListMenu_SetItemSecondLineText(char const *, int, GUI *, int, int)
                                      80
     __deleaker_GUIonMessage_SubItem_SetText(char const *, int, GUI_MESSAGE *, int)
                                      72
     __deleaker_Feedback_SetTextExtended(char const *, int, GUI *, int, int)
                                      80
     __deleaker_GUIObject_SoftKeys_SetTexts(char const *, int, GUI *, u16, int, int)
                                     124
     __deleaker_PNUM2Name(char const *, int, void *, int, int)
                                      72
     __deleaker_Date2ID(char const *, int, DATE *, int, int)
                                      72
     __deleaker_Time2ID(char const *, int, TIME *, char, int)
                                      72
     __deleaker_KeyCode2Name(char const *, int, int)
                                      64
     __deleaker_NOfMany_SetTexts(char const *, int, GUI *, int *, int)
                                     120
     __deleaker_OneOfMany_SetTexts(char const *, int, GUI *, int *, int)
                                     120
     __deleaker_Feedback_SetText(char const *, int, GUI *, int)
                                      72
     __deleaker_Gif2ID(char const *, int, u16, wchar_t const *, wchar_t const *, IMAGEID *)
                                      72
     __deleaker_GUIObject_SetTitleIcon(char const *, int, GUI *, IMAGEID)
                                      72
     __deleaker_GUIInput_SetIcon(char const *, int, GUI *, IMAGEID)
                                      72
     __deleaker_ProgressBar_SetIcon(char const *, int, GUI *, IMAGEID)
                                      72
     __deleaker_GUIonMessage_SetMenuItemIcon(char const *, int, GUI_MESSAGE *, int, IMAGEID)
                                      80
     __deleaker_TabMenuBar_SetTabIcon(char const *, int, GUI *, int, IMAGEID, int)
                                      88
     __deleaker_VCALL_SetNameIcon(char const *, int, void *, IMAGEID)
                                      72
     __deleaker_ModifyKeyHook(char const *, int, KEYHOOKPROC, int, LPARAM)
                                     112
     __deleaker_ModifyUIPageHook(char const *, int, int, PAGEHOOKPROC, LPARAM, int)
                                     120
     __deleaker_ImageID_Get(char const *, int, wchar_t const *, wchar_t const *, IMAGEID *)
                                      88
     __deleaker_ImageID_GetIndirect(char const *, int, void *, int, int, wchar_t *, IMAGEID *)
                                     100
     __deleaker_ImageID_Free(char const *, int, IMAGEID)
                                      64
     __deleaker_GC_CreateMemoryGC(char const *, int, int, int, int, int, void *, int)
                                      88
     __deleaker_GC_FreeGC(char const *, int, GC *)
                                      40
     __deleaker_GVI_CreateDashedPen(char const *, int, char, int, int, int, int)
                                      80
     __deleaker_GVI_CreatePen(char const *, int, char, int)
                                      60
     __deleaker_GVI_CreateSolidBrush(char const *, int, int)
                                      56
     __deleaker_GVI_CreateBitmap(char const *, int, int, int, int)
                                      64
     __deleaker_GVI_CreateMemoryGC(char const *, int, void *)
                                      56
     __deleaker_GVI_Delete_GVI_Object(char const *, int, void * *)
                                      40
     __deleaker_GVI_DeleteMemoryGC(char const *, int, GVI_GC)
                                      40
     __deleaker_TextFeedbackWindow(char const *, int, BOOK *, int)
                                      60
     __deleaker_DataBrowserDesc_Create(char const *, int)
                                      52
     __deleaker_DataBrowserDesc_Destroy(char const *, int, void *)
                                      40
     __deleaker_CreateMonitorFeedback(char const *, int, int, BOOK *, void (*)(BOOK *), void (*)(BOOK *), void (*)(BOOK *))
                                      80
     __deleaker_LoadDLL(char const *, int, wchar_t *)
                                      56
     __deleaker_UnLoadDLL(char const *, int, void *)
                                      40
     __deleaker_GUIObject_SetSecondRowTitleText(char const *, int, GUI *, int)
                                      72
     __deleaker_ListMenu_SetNoItemText(char const *, int, GUI *, int)
                                      72
     __deleaker_TabMenuBar_SetTabTitle(char const *, int, GUI *, int, int)
                                      80
     __deleaker_DispObject_SetBackgroundImage(char const *, int, DISP_OBJ *, IMAGEID)
                                      72
     __deleaker_DispObject_SetCursorImage(char const *, int, DISP_OBJ *, IMAGEID)
                                      72
     __deleaker_DispObject_SetTitleBackgroundImage(char const *, int, DISP_OBJ *, IMAGEID)
                                      72
     __deleaker_GUIObject_SetBackgroundImage(char const *, int, GUI *, IMAGEID)
                                      72
     __deleaker_GUIObject_SetCursorImage(char const *, int, GUI *, IMAGEID)
                                      72
     __deleaker_GUIObject_SetTitleBackgroundImage(char const *, int, GUI *, IMAGEID)
                                      72
     __deleaker_Shortcut_Get_MenuItemName(char const *, int, void *)
                                      52
     __deleaker_YesNoQuestion_SetIcon(char const *, int, GUI *, IMAGEID)
                                      72
     __deleaker_ListMenu_SetItemIcon(char const *, int, GUI *, int, wchar_t, int, IMAGEID)
                                      96
     __deleaker_Shortcut_Get_MenuItemIconID(char const *, int, void *)
                                      64
     __deleaker_create_process(char const *, int, PROCESS_TYPE, char *, void () *, OSADDRESS, OSPRIORITY, OSTIME, PROCESS, void *, OSVECTOR, OSUSER)
                                     116
     __deleaker_kill_proc(char const *, int, PROCESS)
                                      40
     __deleaker_MediaPlayer_SoftKeys_AddHelpStr(char const *, int, GUI *, int, int)
                                      80
     __deleaker_MediaPlayer_SoftKeys_SetText(char const *, int, GUI *, int, int)
                                      80
     __deleaker_MenuBook_Desktop_GetSelectedItemID(char const *, int, BOOK *)
                                      56
     __deleaker_CreateURI(char const *, int, wchar_t *, wchar_t *, char *)
                                      64
     __deleaker_Timer_Kill(char const *, int, u16 *)
                                      40
     __deleaker_Timer_Set(char const *, int, int, TIMERPROC, LPARAM)
                                      64
     __deleaker_Timer_ReSet(char const *, int, u16 *, int, TIMERPROC, LPARAM)
                                     108
     __deleaker_alloc(char const *, int, OSBUFSIZE, SIGSELECT)
                                      60
     __deleaker_receive(char const *, int, SIGSELECT const *)
                                      56
     __deleaker_receive_w_tmo(char const *, int, OSTIME, SIGSELECT *)
                                      60
     __deleaker_free_buf(char const *, int, SIGNAL **)
                                      40
     __deleaker_send(char const *, int, SIGNAL **, PROCESS)
                                      48
     __deleaker_hunt(char const *, int, char const *, OSUSER, unsigned long *, SIGNAL **)
                                      72
     __deleaker_JavaApp_LogoImageID_Get(char const *, int, wchar_t *, IMAGEID *)
                                      84
     __deleaker_ObexSendFile(char const *, int, SEND_OBEX_STRUCT *)
                                     108
     __deleaker_JavaSession_GetName(char const *, int)
                                      60
     __deleaker_MetaData_Desc_Create(char const *, int, wchar_t *, wchar_t *)
                                      60
     __deleaker_MetaData_Desc_Destroy(char const *, int, void *)
                                      40
     __deleaker_FILEITEM_Create(char const *, int)
                                      52
     __deleaker_FILEITEM_CreateCopy(char const *, int, FILEITEM *)
                                      56
     __deleaker_FILEITEM_Destroy(char const *, int, FILEITEM *)
                                      40
     __deleaker_w_dirclose(char const *, int, void *)
                                      40
     __deleaker_w_diropen(char const *, int, wchar_t const *)
                                      56
     __deleaker_SoundRecorderDesc_Create(char const *, int)
                                      52
     __deleaker_SoundRecorderDesc_Destroy(char const *, int, void *)
                                      40
     ??DataTable3                      4
     ??DataTable6                      4
     ??DataTable11                     4
     ?<Initializer for buffers>      292
     ?<Constant "gui">                 4
     ?<Constant L"\x57\x56\x5f\x59\x41\x48\x4f\x4f\
                                     180
     ?<Constant "leak type \"%s\"\n">
                                      80
     ?<Constant "internal error">     16
     ?<Constant "memory">              8
     ?<Constant "strid">               8
     ?<Constant "iconid">              8
     ?<Constant "timer">               8
     ?<Constant "file">                8
     ?<Constant "hook">                8
     ?<Constant "dll">                 4
     ?<Constant "gc">                  3
     ?<Constant "gvi">                 4
     ?<Constant "C:\\Users\\Faby\\Desktop...">
                                      52
     ?<Constant "book">                8
     ?<Constant "process">             8
     ?<Constant "ose buffer">         12
     ?<Constant "metadatadesc">       16
     ?<Constant "fileitemstruct">     16
     ?<Constant "w_dir">               8
     ?<Constant "unallocated">        12
      Others                         592

 
 10 832 bytes in segment CODE
    471 bytes in segment DATA_C
    292 bytes in segment DATA_I
    292 bytes in segment DATA_ID
     12 bytes in segment INITTAB
 
 10 252 bytes of CODE  memory (+ 592 bytes shared)
    763 bytes of CONST memory
    292 bytes of DATA  memory

Errors: none
Warnings: none
