##############################################################################
#                                                                            #
# IAR ARM ANSI C/C++ Compiler V4.42A/W32 EVALUATION    30/Mar/2011  17:57:06 #
# Copyright 1999-2005 IAR Systems. All rights reserved.                      #
#                                                                            #
#    Cpu mode        =  interwork                                            #
#    Endian          =  little                                               #
#    Stack alignment =  4                                                    #
#    Source file     =  G:\Phone\Making elf patches\AccuWeather              #
#                       Widget\tagContent.cpp                                #
#    Command line    =  "G:\Phone\Making elf patches\AccuWeather             #
#                       Widget\tagContent.cpp" -lC "G:\Phone\Making elf      #
#                       patches\AccuWeather Widget\Release\List\" -lA        #
#                       "G:\Phone\Making elf patches\AccuWeather             #
#                       Widget\Release\List\" -o "G:\Phone\Making elf        #
#                       patches\AccuWeather Widget\Release\Obj\" -s9         #
#                       --no_unroll --no_inline --cpu_mode arm --endian      #
#                       little --cpu ARM926EJ-S --stack_align 4 --interwork  #
#                       -e --fpu None --eec++ --dlib_config                  #
#                       "G:\Phone\Making elf patches\IAR\Embedded Workbench  #
#                       4.0 Evaluation\ARM\LIB\dl5tpainl8n.h" -I             #
#                       "G:\Phone\Making elf patches\IAR\Embedded Workbench  #
#                       4.0 Evaluation\ARM\INC\"                             #
#    List file       =  G:\Phone\Making elf patches\AccuWeather              #
#                       Widget\Release\List\tagContent.lst                   #
#    Object file     =  G:\Phone\Making elf patches\AccuWeather              #
#                       Widget\Release\Obj\tagContent.r79                    #
#                                                                            #
#                                                                            #
##############################################################################

G:\Phone\Making elf patches\AccuWeather Widget\tagContent.cpp
      1          #include "..\include\Lib_Clara.h"
      2          #include "..\include\Dir.h"
      3          #include "tagContent.h"
      4          #include "debug.h"
      5          #include "string.h"
      6          

   \                                 In segment DATA_I, align 4, align-sorted
      7          wchar_t* weatherConditions[] = {L"Plenty of sunshine", L"Mostly Sunny", L"Partly Sunny", L"Intermittent Clouds", //1-4
   \                     weatherConditions:
   \   00000000                      DS8 176
   \   000000B0                      REQUIRE `?<Initializer for weatherConditions>`
      8                L"Hazy Sunshine", L"Mostly Cloudy", L"Cloudy", L"Dreary", L"", L"", L"Fog",  //5-11
      9                L"Showers",L"Mostly Cloudy with Showers", L"Partly Sunny with Showers", L"Thunderstorms", //12-15
     10                L"Mostly Cloudy with Thunder Showers",L"Partly Sunny with Thunder Showers", L"Rain", L"Flurries", //16-19
     11                L"Mostly Cloudy with Flurries",L"Partly Sunny with Flurries", L"Snow", //20-22
     12                L"Mostly Cloudy with Snow", L"Ice", L"Sleet", L"Freezing Rain", L"", L"", //23-28
     13                L"Rain and Snow", L"Hot", L"Cold", L"Windy", L"Clear", //29-33
     14                L"Mostly Clear", L"Partly Cloudy", L"Intermittent Clouds", L"Hazy", //34-37
     15                L"Mostly Cloudy", L"Partly Cloudy with Showers", L"Mostly Cloudy with Showers", L"Partly Cloudy with Thunder Showers", //38-41
     16                L"Mostly Cloudy with Thunder Showers", L"Mostly Cloudy with Flurries", L"Mostly Cloudy with Snow"}; //42-44
     17          

   \                                 In segment CODE, align 4, keep-with-next
     18          wchar_t* getDate() { //"2011/3/20"
     19            DATETIME dt;
     20            REQUEST_DATEANDTIME_GET(SYNC,&dt);
   \                     ??getDate:
   \   00000000   4C009FE5           LDR      R0,??getDate_1   ;; SYNC
   \   00000004   10402DE9           PUSH     {R4,LR}
   \   00000008   08D04DE2           SUB      SP,SP,#+8
   \   0000000C   000090E5           LDR      R0,[R0, #+0]
   \   00000010   0D10A0E1           MOV      R1,SP
   \   00000014   6E0100EF           SWI      +366
     21            wchar_t* data = new wchar_t[0x32];
   \   00000018   6400A0E3           MOV      R0,#+100
   \   0000001C   ........           _BLF     `??operator new[]`,`??operator new[]??rA`
     22            snwprintf(data,32,L"<Period StartDate=\"%u/%d/%d\">",dt.date.year,dt.date.mon,dt.date.day);
   \   00000020   30209FE5           LDR      R2,??getDate_1+0x4  ;; `?<Constant L"\\x3c\\x50\\x65\\x72\\x69\\x6f\\x64\\x20\\`
   \   00000024   0040A0E1           MOV      R4,R0
   \   00000028   0300DDE5           LDRB     R0,[SP, #+3]
   \   0000002C   2010A0E3           MOV      R1,#+32
   \   00000030   01002DE9           PUSH     {R0}
   \   00000034   0600DDE5           LDRB     R0,[SP, #+6]
   \   00000038   01002DE9           PUSH     {R0}
   \   0000003C   B830DDE1           LDRH     R3,[SP, #+8]
   \   00000040   0400A0E1           MOV      R0,R4
   \   00000044   150100EF           SWI      +277
     23            return data;
   \   00000048   0400A0E1           MOV      R0,R4
   \   0000004C   10D08DE2           ADD      SP,SP,#+16
   \   00000050   1080BDE8           POP      {R4,PC}          ;; return
   \                     ??getDate_1:
   \   00000054   ........           DC32     SYNC
   \   00000058   ........           DC32     `?<Constant L"\\x3c\\x50\\x65\\x72\\x69\\x6f\\x64\\x20\\`
     24          }
     25          

   \                                 In segment CODE, align 4, keep-with-next
     26          wchar_t* getTag(wchar_t* line, int pos, int& sizeOfTag) {
   \                     ??getTag:
   \   00000000   F0472DE9           PUSH     {R4-R10,LR}
   \   00000004   0040A0E1           MOV      R4,R0
   \   00000008   0150A0E1           MOV      R5,R1
   \   0000000C   0260A0E1           MOV      R6,R2
     27            int tagClose = wGetIndexOf(line, '>', 1, pos);
   \   00000010   0530A0E1           MOV      R3,R5
   \   00000014   0120A0E3           MOV      R2,#+1
   \   00000018   3E10A0E3           MOV      R1,#+62
   \   0000001C   ........           _BLF     ??wGetIndexOf,??wGetIndexOf??rA
   \   00000020   0080A0E1           MOV      R8,R0
     28            wchar_t* tag = new wchar_t[tagClose+0x2];
   \   00000024   020088E2           ADD      R0,R8,#+2
   \   00000028   8000A0E1           LSL      R0,R0,#+1
   \   0000002C   ........           _BLF     `??operator new[]`,`??operator new[]??rA`
   \   00000030   0070A0E1           MOV      R7,R0
     29            sizeOfTag = tagClose - pos + 2;
   \   00000034   050048E0           SUB      R0,R8,R5
   \   00000038   020080E2           ADD      R0,R0,#+2
   \   0000003C   000086E5           STR      R0,[R6, #+0]
     30            for (tagClose=0; tagClose < wstrlen(line) && line[pos + tagClose] != '>' && (tagClose < sizeOfTag); tagClose++)
   \   00000040   0080A0E3           MOV      R8,#+0
   \   00000044   020000EA           B        ??getTag_1
     31              tag[tagClose] = line[pos + tagClose];
   \                     ??getTag_2:
   \   00000048   B000DAE1           LDRH     R0,[R10, #+0]
   \   0000004C   018088E2           ADD      R8,R8,#+1
   \   00000050   B000C9E1           STRH     R0,[R9, #+0]
   \                     ??getTag_1:
   \   00000054   050088E0           ADD      R0,R8,R5
   \   00000058   80A084E0           ADD      R10,R4,R0, LSL #+1
   \   0000005C   889087E0           ADD      R9,R7,R8, LSL #+1
   \   00000060   0400A0E1           MOV      R0,R4
   \   00000064   570100EF           SWI      +343
   \   00000068   000058E1           CMP      R8,R0
   \   0000006C   050000AA           BGE      ??getTag_3
   \   00000070   B000DAE1           LDRH     R0,[R10, #+0]
   \   00000074   3E0050E3           CMP      R0,#+62
   \   00000078   0200000A           BEQ      ??getTag_3
   \   0000007C   000096E5           LDR      R0,[R6, #+0]
   \   00000080   000058E1           CMP      R8,R0
   \   00000084   EFFFFFBA           BLT      ??getTag_2
     32            tag[tagClose] = line[pos + tagClose];
   \                     ??getTag_3:
   \   00000088   B000DAE1           LDRH     R0,[R10, #+0]
   \   0000008C   B000C9E1           STRH     R0,[R9, #+0]
     33            tag[tagClose+0x1] = 0;
   \   00000090   0000A0E3           MOV      R0,#+0
   \   00000094   B200C9E1           STRH     R0,[R9, #+2]
     34            return tag;
   \   00000098   0700A0E1           MOV      R0,R7
   \   0000009C   F087BDE8           POP      {R4-R10,PC}      ;; return
     35          }
     36          

   \                                 In segment CODE, align 4, keep-with-next
     37          wchar_t* getEqualContent(wchar_t* fileContent, int& pos) {
   \                     ??getEqualContent:
   \   00000000   70402DE9           PUSH     {R4-R6,LR}
   \   00000004   0040A0E1           MOV      R4,R0
   \   00000008   0150A0E1           MOV      R5,R1
     38            int indexOfEqual = wGetIndexOf(fileContent,'=',1,pos);
   \   0000000C   003095E5           LDR      R3,[R5, #+0]
   \   00000010   0120A0E3           MOV      R2,#+1
   \   00000014   3D10A0E3           MOV      R1,#+61
   \   00000018   ........           _BLF     ??wGetIndexOf,??wGetIndexOf??rA
     39            indexOfEqual+=2;
   \   0000001C   026080E2           ADD      R6,R0,#+2
     40            int indexOfQuotes = wGetIndexOf(fileContent,'"',1,indexOfEqual);
   \   00000020   0630A0E1           MOV      R3,R6
   \   00000024   0120A0E3           MOV      R2,#+1
   \   00000028   2210A0E3           MOV      R1,#+34
   \   0000002C   0400A0E1           MOV      R0,R4
   \   00000030   ........           _BLF     ??wGetIndexOf,??wGetIndexOf??rA
     41            pos = indexOfQuotes;
   \   00000034   000085E5           STR      R0,[R5, #+0]
     42          
     43            return getWSubStr(fileContent,indexOfEqual,indexOfQuotes-1);
   \   00000038   012040E2           SUB      R2,R0,#+1
   \   0000003C   0610A0E1           MOV      R1,R6
   \   00000040   0400A0E1           MOV      R0,R4
   \   00000044   7040BDE8           POP      {R4-R6,LR}       ;; Pop
   \   00000048   ........           _BF      ??getWSubStr,??getWSubStr??rA  ;; tailcall
     44          }
     45          

   \                                 In segment CODE, align 4, keep-with-next
     46          int getDayState(wchar_t* fileContent,int& pos) {
   \                     ??getDayState:
   \   00000000   10402DE9           PUSH     {R4,LR}
   \   00000004   04D04DE2           SUB      SP,SP,#+4
     47            int dayState_ = 0;
   \   00000008   0030A0E3           MOV      R3,#+0
   \   0000000C   00308DE5           STR      R3,[SP, #+0]
     48          
     49            wchar_t* dayState = getEqualContent(fileContent,pos); //getWSubStr(fileContent,indexOfEqual,indexOfQuotes-1);
   \   00000010   ........           BL       ??getEqualContent
     50            swscanf (dayState, L"%d", &dayState_);
   \   00000014   18109FE5           LDR      R1,??getDayState_1  ;; `?<Constant L"\\x25\\x64">`
   \   00000018   0040A0E1           MOV      R4,R0
   \   0000001C   0D20A0E1           MOV      R2,SP
   \   00000020   CC0300EF           SWI      +972
     51            delete dayState; dayState = NULL;
   \   00000024   0400A0E1           MOV      R0,R4
   \   00000028   ........           _BLF     `??operator delete`,`??operator delete??rA`
     52            
     53            return dayState_;
   \   0000002C   00009DE5           LDR      R0,[SP, #+0]
   \   00000030   1280BDE8           POP      {R1,R4,PC}       ;; return
   \                     ??getDayState_1:
   \   00000034   ........           DC32     `?<Constant L"\\x25\\x64">`
     54          }
     55          

   \                                 In segment CODE, align 4, keep-with-next
     56          wchar_t* getLocation(wchar_t* fileContent, int& cursor) {
   \                     ??getLocation:
   \   00000000   30402DE9           PUSH     {R4,R5,LR}
   \   00000004   0040A0E1           MOV      R4,R0
   \   00000008   0150A0E1           MOV      R5,R1
   \   0000000C   010000EA           B        ??getLocation_1
     57                while (cursor < wstrlen(fileContent)) {
     58                  if (fileContent[cursor] == '<' && fileContent[cursor+0x1] == 'F')
     59                    return getEqualContent(fileContent,cursor);
     60                  cursor++;
   \                     ??getLocation_2:
   \   00000010   010081E2           ADD      R0,R1,#+1
   \   00000014   000085E5           STR      R0,[R5, #+0]
   \                     ??getLocation_1:
   \   00000018   0400A0E1           MOV      R0,R4
   \   0000001C   570100EF           SWI      +343
   \   00000020   001095E5           LDR      R1,[R5, #+0]
   \   00000024   000051E1           CMP      R1,R0
   \   00000028   090000AA           BGE      ??getLocation_3
   \   0000002C   810084E0           ADD      R0,R4,R1, LSL #+1
   \   00000030   B020D0E1           LDRH     R2,[R0, #+0]
   \   00000034   3C0052E3           CMP      R2,#+60
   \   00000038   B200D001           LDRHEQ   R0,[R0, #+2]
   \   0000003C   46005003           CMPEQ    R0,#+70
   \   00000040   F2FFFF1A           BNE      ??getLocation_2
   \   00000044   0510A0E1           MOV      R1,R5
   \   00000048   0400A0E1           MOV      R0,R4
   \   0000004C   3040BDE8           POP      {R4,R5,LR}       ;; Pop
   \   00000050   ........           B        ??getEqualContent  ;; tailcall
     61                }
     62                return NULL;
   \                     ??getLocation_3:
   \   00000054   0000A0E3           MOV      R0,#+0
   \   00000058   3080BDE8           POP      {R4,R5,PC}       ;; return
     63          }
     64          

   \                                 In segment CODE, align 4, keep-with-next
     65          wchar_t* getWeatherConditions(int num) {
     66          
     67            int conditionLength = wstrlen(weatherConditions[num - 0x1]);
   \                     ??getWeatherConditions:
   \   00000000   40109FE5           LDR      R1,??getWeatherConditions_1  ;; weatherConditions
   \   00000004   70402DE9           PUSH     {R4-R6,LR}
   \   00000008   004181E0           ADD      R4,R1,R0, LSL #+2
   \   0000000C   040014E5           LDR      R0,[R4, #-4]
   \   00000010   570100EF           SWI      +343
   \   00000014   0050A0E1           MOV      R5,R0
     68          //  int conditionLength = wstrlen(weatherConditions[num]);
     69            
     70            wchar_t* condition = new wchar_t[conditionLength + 0x1];
   \   00000018   010085E2           ADD      R0,R5,#+1
   \   0000001C   8000A0E1           LSL      R0,R0,#+1
   \   00000020   ........           _BLF     `??operator new[]`,`??operator new[]??rA`
     71          //  wstrncpy( condition, weatherConditions[num], conditionLength );
     72            wstrncpy( condition, weatherConditions[num - 0x1], conditionLength );
   \   00000024   041014E5           LDR      R1,[R4, #-4]
   \   00000028   0060A0E1           MOV      R6,R0
   \   0000002C   0520A0E1           MOV      R2,R5
   \   00000030   530100EF           SWI      +339
     73            condition[conditionLength] = 0;
   \   00000034   850086E0           ADD      R0,R6,R5, LSL #+1
   \   00000038   0010A0E3           MOV      R1,#+0
   \   0000003C   B010C0E1           STRH     R1,[R0, #+0]
     74            
     75            return condition;         
   \   00000040   0600A0E1           MOV      R0,R6
   \   00000044   7080BDE8           POP      {R4-R6,PC}       ;; return
   \                     ??getWeatherConditions_1:
   \   00000048   ........           DC32     weatherConditions
     76          }
     77          

   \                                 In segment CODE, align 4, keep-with-next
     78          Weather* getWeather(wchar_t* fileContent, int& pos) {
   \                     ??getWeather:
   \   00000000   F0402DE9           PUSH     {R4-R7,LR}
   \   00000004   0040A0E1           MOV      R4,R0
   \   00000008   0150A0E1           MOV      R5,R1
     79            int* states = new int[0x4];
   \   0000000C   1000A0E3           MOV      R0,#+16
   \   00000010   ........           _BLF     `??operator new[]`,`??operator new[]??rA`
   \   00000014   0060A0E1           MOV      R6,R0
     80            for (int i=0;i<4;i++)
   \   00000018   0070A0E3           MOV      R7,#+0
     81              states[i] = getDayState(fileContent,pos);
   \                     ??getWeather_1:
   \   0000001C   0510A0E1           MOV      R1,R5
   \   00000020   0400A0E1           MOV      R0,R4
   \   00000024   ........           BL       ??getDayState
   \   00000028   070186E7           STR      R0,[R6, +R7, LSL #+2]
   \   0000002C   017087E2           ADD      R7,R7,#+1
   \   00000030   040057E3           CMP      R7,#+4
   \   00000034   F8FFFFBA           BLT      ??getWeather_1
     82            wchar_t* dayState = getWeatherConditions(states[0x0]);
   \   00000038   000096E5           LDR      R0,[R6, #+0]
   \   0000003C   ........           BL       ??getWeatherConditions
   \   00000040   0070A0E1           MOV      R7,R0
     83            wchar_t* windDirection = getEqualContent(fileContent,pos);
   \   00000044   0510A0E1           MOV      R1,R5
   \   00000048   0400A0E1           MOV      R0,R4
   \   0000004C   ........           BL       ??getEqualContent
     84            Weather* todayWeather = new Weather(states[0x0],states[0x1],states[0x2],states[0x3],dayState,windDirection);
   \   00000050   01002DE9           PUSH     {R0}
   \   00000054   80002DE9           PUSH     {R7}
   \   00000058   0C3096E5           LDR      R3,[R6, #+12]
   \   0000005C   000096E5           LDR      R0,[R6, #+0]
   \   00000060   082096E5           LDR      R2,[R6, #+8]
   \   00000064   041096E5           LDR      R1,[R6, #+4]
   \   00000068   ........           _BLF     `??new Weather`,`??new Weather??rA`
   \   0000006C   0040A0E1           MOV      R4,R0
     85            delete states; states = NULL;
   \   00000070   0600A0E1           MOV      R0,R6
   \   00000074   ........           _BLF     `??operator delete`,`??operator delete??rA`
     86            
     87            return todayWeather;
   \   00000078   0400A0E1           MOV      R0,R4
   \   0000007C   F680BDE8           POP      {R1,R2,R4-R7,PC}  ;; return
     88          }
     89          

   \                                 In segment CODE, align 4, keep-with-next
     90          Weather* getDayWeather(wchar_t* fileContent, int& i) {
   \                     ??getDayWeather:
   \   00000000   F0412DE9           PUSH     {R4-R8,LR}
   \   00000004   04D04DE2           SUB      SP,SP,#+4
   \   00000008   0040A0E1           MOV      R4,R0
   \   0000000C   0150A0E1           MOV      R5,R1
     91              Weather* todayWeather = NULL;
   \   00000010   0060A0E3           MOV      R6,#+0
   \   00000014   020000EA           B        ??getDayWeather_1
     92              while (i < wstrlen(fileContent)) {
     93          
     94                if (fileContent[i] == '<' && fileContent[i+0x1] == 'P') {
     95                  int sizeOfTag = 0;
     96                  wchar_t* tag = getTag(fileContent,i,sizeOfTag);
     97                  i += sizeOfTag;
     98          
     99                  wchar_t* today = getDate();
    100                  if (compareWchar(tag,today))
    101                    todayWeather = getWeather(fileContent,i);
    102                  delete tag;
    103                  delete today;
    104                  if (todayWeather != NULL) break;
    105                 }
    106                i++;
   \                     ??getDayWeather_2:
   \   00000018   000095E5           LDR      R0,[R5, #+0]
   \   0000001C   010080E2           ADD      R0,R0,#+1
   \   00000020   000085E5           STR      R0,[R5, #+0]
   \                     ??getDayWeather_1:
   \   00000024   0400A0E1           MOV      R0,R4
   \   00000028   570100EF           SWI      +343
   \   0000002C   001095E5           LDR      R1,[R5, #+0]
   \   00000030   000051E1           CMP      R1,R0
   \   00000034   210000AA           BGE      ??getDayWeather_3
   \   00000038   810084E0           ADD      R0,R4,R1, LSL #+1
   \   0000003C   B010D0E1           LDRH     R1,[R0, #+0]
   \   00000040   3C0051E3           CMP      R1,#+60
   \   00000044   B200D001           LDRHEQ   R0,[R0, #+2]
   \   00000048   50005003           CMPEQ    R0,#+80
   \   0000004C   F1FFFF1A           BNE      ??getDayWeather_2
   \   00000050   0010A0E3           MOV      R1,#+0
   \   00000054   00108DE5           STR      R1,[SP, #+0]
   \   00000058   001095E5           LDR      R1,[R5, #+0]
   \   0000005C   0D20A0E1           MOV      R2,SP
   \   00000060   0400A0E1           MOV      R0,R4
   \   00000064   ........           BL       ??getTag
   \   00000068   00109DE5           LDR      R1,[SP, #+0]
   \   0000006C   0070A0E1           MOV      R7,R0
   \   00000070   000095E5           LDR      R0,[R5, #+0]
   \   00000074   000081E0           ADD      R0,R1,R0
   \   00000078   000085E5           STR      R0,[R5, #+0]
   \   0000007C   ........           BL       ??getDate
   \   00000080   0080A0E1           MOV      R8,R0
   \   00000084   0810A0E1           MOV      R1,R8
   \   00000088   0700A0E1           MOV      R0,R7
   \   0000008C   ........           _BLF     ??compareWchar,??compareWchar??rA
   \   00000090   000050E3           CMP      R0,#+0
   \   00000094   0300000A           BEQ      ??getDayWeather_4
   \   00000098   0510A0E1           MOV      R1,R5
   \   0000009C   0400A0E1           MOV      R0,R4
   \   000000A0   ........           BL       ??getWeather
   \   000000A4   0060A0E1           MOV      R6,R0
   \                     ??getDayWeather_4:
   \   000000A8   0700A0E1           MOV      R0,R7
   \   000000AC   ........           _BLF     `??operator delete`,`??operator delete??rA`
   \   000000B0   0800A0E1           MOV      R0,R8
   \   000000B4   ........           _BLF     `??operator delete`,`??operator delete??rA`
   \   000000B8   000056E3           CMP      R6,#+0
   \   000000BC   D5FFFF0A           BEQ      ??getDayWeather_2
    107              }
    108              
    109             return todayWeather;
   \                     ??getDayWeather_3:
   \   000000C0   0600A0E1           MOV      R0,R6
   \   000000C4   F281BDE8           POP      {R1,R4-R8,PC}    ;; return
    110          }

   \                                 In segment DATA_ID, align 4, align-sorted
   \                     `?<Initializer for weatherConditions>`:
   \   00000000   ........           DC32 `?<Constant L"\\x50\\x6c\\x65\\x6e\\x74\\x79\\x20\\x6f\\`
   \   00000004   ........           DC32 `?<Constant L"\\x4d\\x6f\\x73\\x74\\x6c\\x79\\x20\\x53\\`
   \   00000008   ........           DC32 `?<Constant L"\\x50\\x61\\x72\\x74\\x6c\\x79\\x20\\x53\\`
   \   0000000C   ........           DC32 `?<Constant L"\\x49\\x6e\\x74\\x65\\x72\\x6d\\x69\\x74\\`
   \   00000010   ........           DC32 `?<Constant L"\\x48\\x61\\x7a\\x79\\x20\\x53\\x75\\x6e\\`
   \   00000014   ........           DC32 `?<Constant L"\\x4d\\x6f\\x73\\x74\\x6c\\x79\\x20\\x43\\_1`
   \   00000018   ........           DC32 `?<Constant L"\\x43\\x6c\\x6f\\x75\\x64\\x79">`
   \   0000001C   ............       DC32 `?<Constant L"\\x44\\x72\\x65\\x61\\x72\\x79">`, `?<Constant L"">`
   \              ....        
   \   00000024   ............       DC32 `?<Constant L"">`, `?<Constant L"\\x46\\x6f\\x67">`
   \              ....        
   \   0000002C   ........           DC32 `?<Constant L"\\x53\\x68\\x6f\\x77\\x65\\x72\\x73">`
   \   00000030   ........           DC32 `?<Constant L"\\x4d\\x6f\\x73\\x74\\x6c\\x79\\x20\\x43\\_2`
   \   00000034   ........           DC32 `?<Constant L"\\x50\\x61\\x72\\x74\\x6c\\x79\\x20\\x53\\_1`
   \   00000038   ........           DC32 `?<Constant L"\\x54\\x68\\x75\\x6e\\x64\\x65\\x72\\x73\\`
   \   0000003C   ........           DC32 `?<Constant L"\\x4d\\x6f\\x73\\x74\\x6c\\x79\\x20\\x43\\_3`
   \   00000040   ........           DC32 `?<Constant L"\\x50\\x61\\x72\\x74\\x6c\\x79\\x20\\x53\\_2`
   \   00000044   ........           DC32 `?<Constant L"\\x52\\x61\\x69\\x6e">`
   \   00000048   ........           DC32 `?<Constant L"\\x46\\x6c\\x75\\x72\\x72\\x69\\x65\\x73"`
   \   0000004C   ........           DC32 `?<Constant L"\\x4d\\x6f\\x73\\x74\\x6c\\x79\\x20\\x43\\`
   \   00000050   ........           DC32 `?<Constant L"\\x50\\x61\\x72\\x74\\x6c\\x79\\x20\\x53\\_3`
   \   00000054   ........           DC32 `?<Constant L"\\x53\\x6e\\x6f\\x77">`
   \   00000058   ........           DC32 `?<Constant L"\\x4d\\x6f\\x73\\x74\\x6c\\x79\\x20\\x43\\_4`
   \   0000005C   ........           DC32 `?<Constant L"\\x49\\x63\\x65">`
   \   00000060   ........           DC32 `?<Constant L"\\x53\\x6c\\x65\\x65\\x74">`
   \   00000064   ........           DC32 `?<Constant L"\\x46\\x72\\x65\\x65\\x7a\\x69\\x6e\\x67\\`
   \   00000068   ............       DC32 `?<Constant L"">`, `?<Constant L"">`
   \              ....        
   \   00000070   ........           DC32 `?<Constant L"\\x52\\x61\\x69\\x6e\\x20\\x61\\x6e\\x64\\`
   \   00000074   ........           DC32 `?<Constant L"\\x48\\x6f\\x74">`
   \   00000078   ........           DC32 `?<Constant L"\\x43\\x6f\\x6c\\x64">`
   \   0000007C   ........           DC32 `?<Constant L"\\x57\\x69\\x6e\\x64\\x79">`
   \   00000080   ........           DC32 `?<Constant L"\\x43\\x6c\\x65\\x61\\x72">`
   \   00000084   ........           DC32 `?<Constant L"\\x4d\\x6f\\x73\\x74\\x6c\\x79\\x20\\x43\\_5`
   \   00000088   ........           DC32 `?<Constant L"\\x50\\x61\\x72\\x74\\x6c\\x79\\x20\\x43\\`
   \   0000008C   ........           DC32 `?<Constant L"\\x49\\x6e\\x74\\x65\\x72\\x6d\\x69\\x74\\`
   \   00000090   ........           DC32 `?<Constant L"\\x48\\x61\\x7a\\x79">`
   \   00000094   ........           DC32 `?<Constant L"\\x4d\\x6f\\x73\\x74\\x6c\\x79\\x20\\x43\\_1`
   \   00000098   ........           DC32 `?<Constant L"\\x50\\x61\\x72\\x74\\x6c\\x79\\x20\\x43\\_1`
   \   0000009C   ........           DC32 `?<Constant L"\\x4d\\x6f\\x73\\x74\\x6c\\x79\\x20\\x43\\_2`
   \   000000A0   ........           DC32 `?<Constant L"\\x50\\x61\\x72\\x74\\x6c\\x79\\x20\\x43\\_2`
   \   000000A4   ........           DC32 `?<Constant L"\\x4d\\x6f\\x73\\x74\\x6c\\x79\\x20\\x43\\_3`
   \   000000A8   ........           DC32 `?<Constant L"\\x4d\\x6f\\x73\\x74\\x6c\\x79\\x20\\x43\\`
   \   000000AC   ........           DC32 `?<Constant L"\\x4d\\x6f\\x73\\x74\\x6c\\x79\\x20\\x43\\_4`

   \                                 In segment DATA_C, align 4, align-sorted
   \                     `?<Constant L"\\x4d\\x6f\\x73\\x74\\x6c\\x79\\x20\\x43\\`:
   \   00000000   4D006F007300       DC8 4DH, 0, 6FH, 0, 73H, 0, 74H, 0
   \              7400        
   \   00000008   6C0079002000       DC8 6CH, 0, 79H, 0, 20H, 0, 43H, 0
   \              4300        
   \   00000010   6C006F007500       DC8 6CH, 0, 6FH, 0, 75H, 0, 64H, 0
   \              6400        
   \   00000018   790020007700       DC8 79H, 0, 20H, 0, 77H, 0, 69H, 0
   \              6900        
   \   00000020   740068002000       DC8 74H, 0, 68H, 0, 20H, 0, 46H, 0
   \              4600        
   \   00000028   6C0075007200       DC8 6CH, 0, 75H, 0, 72H, 0, 72H, 0
   \              7200        
   \   00000030   690065007300       DC8 69H, 0, 65H, 0, 73H, 0, 0, 0
   \              0000        

   \                                 In segment DATA_C, align 4, align-sorted
   \                     `?<Constant L"\\x50\\x6c\\x65\\x6e\\x74\\x79\\x20\\x6f\\`:
   \   00000000   50006C006500       DC8 50H, 0, 6CH, 0, 65H, 0, 6EH, 0
   \              6E00        
   \   00000008   740079002000       DC8 74H, 0, 79H, 0, 20H, 0, 6FH, 0
   \              6F00        
   \   00000010   660020007300       DC8 66H, 0, 20H, 0, 73H, 0, 75H, 0
   \              7500        
   \   00000018   6E0073006800       DC8 6EH, 0, 73H, 0, 68H, 0, 69H, 0
   \              6900        
   \   00000020   6E0065000000       DC8 6EH, 0, 65H, 0, 0, 0
   \   00000026   0000               DC8 0, 0

   \                                 In segment DATA_C, align 4, align-sorted
   \                     `?<Constant L"\\x4d\\x6f\\x73\\x74\\x6c\\x79\\x20\\x53\\`:
   \   00000000   4D006F007300       DC8 4DH, 0, 6FH, 0, 73H, 0, 74H, 0
   \              7400        
   \   00000008   6C0079002000       DC8 6CH, 0, 79H, 0, 20H, 0, 53H, 0
   \              5300        
   \   00000010   75006E006E00       DC8 75H, 0, 6EH, 0, 6EH, 0, 79H, 0
   \              7900        
   \   00000018   0000               DC8 0, 0
   \   0000001A   0000               DC8 0, 0

   \                                 In segment DATA_C, align 4, align-sorted
   \                     `?<Constant L"\\x50\\x61\\x72\\x74\\x6c\\x79\\x20\\x53\\`:
   \   00000000   500061007200       DC8 50H, 0, 61H, 0, 72H, 0, 74H, 0
   \              7400        
   \   00000008   6C0079002000       DC8 6CH, 0, 79H, 0, 20H, 0, 53H, 0
   \              5300        
   \   00000010   75006E006E00       DC8 75H, 0, 6EH, 0, 6EH, 0, 79H, 0
   \              7900        
   \   00000018   0000               DC8 0, 0
   \   0000001A   0000               DC8 0, 0

   \                                 In segment DATA_C, align 4, align-sorted
   \                     `?<Constant L"\\x49\\x6e\\x74\\x65\\x72\\x6d\\x69\\x74\\`:
   \   00000000   49006E007400       DC8 49H, 0, 6EH, 0, 74H, 0, 65H, 0
   \              6500        
   \   00000008   72006D006900       DC8 72H, 0, 6DH, 0, 69H, 0, 74H, 0
   \              7400        
   \   00000010   740065006E00       DC8 74H, 0, 65H, 0, 6EH, 0, 74H, 0
   \              7400        
   \   00000018   200043006C00       DC8 20H, 0, 43H, 0, 6CH, 0, 6FH, 0
   \              6F00        
   \   00000020   750064007300       DC8 75H, 0, 64H, 0, 73H, 0, 0, 0
   \              0000        

   \                                 In segment DATA_C, align 4, align-sorted
   \                     `?<Constant L"\\x48\\x61\\x7a\\x79\\x20\\x53\\x75\\x6e\\`:
   \   00000000   480061007A00       DC8 48H, 0, 61H, 0, 7AH, 0, 79H, 0
   \              7900        
   \   00000008   200053007500       DC8 20H, 0, 53H, 0, 75H, 0, 6EH, 0
   \              6E00        
   \   00000010   730068006900       DC8 73H, 0, 68H, 0, 69H, 0, 6EH, 0
   \              6E00        
   \   00000018   65000000           DC8 65H, 0, 0, 0

   \                                 In segment DATA_C, align 4, align-sorted
   \                     `?<Constant L"\\x4d\\x6f\\x73\\x74\\x6c\\x79\\x20\\x43\\_1`:
   \   00000000   4D006F007300       DC8 4DH, 0, 6FH, 0, 73H, 0, 74H, 0
   \              7400        
   \   00000008   6C0079002000       DC8 6CH, 0, 79H, 0, 20H, 0, 43H, 0
   \              4300        
   \   00000010   6C006F007500       DC8 6CH, 0, 6FH, 0, 75H, 0, 64H, 0
   \              6400        
   \   00000018   79000000           DC8 79H, 0, 0, 0

   \                                 In segment DATA_C, align 4, align-sorted
   \                     `?<Constant L"\\x43\\x6c\\x6f\\x75\\x64\\x79">`:
   \   00000000   43006C006F00       DC8 43H, 0, 6CH, 0, 6FH, 0, 75H, 0
   \              7500        
   \   00000008   640079000000       DC8 64H, 0, 79H, 0, 0, 0
   \   0000000E   0000               DC8 0, 0

   \                                 In segment DATA_C, align 4, align-sorted
   \                     `?<Constant L"\\x44\\x72\\x65\\x61\\x72\\x79">`:
   \   00000000   440072006500       DC8 44H, 0, 72H, 0, 65H, 0, 61H, 0
   \              6100        
   \   00000008   720079000000       DC8 72H, 0, 79H, 0, 0, 0
   \   0000000E   0000               DC8 0, 0

   \                                 In segment DATA_C, align 2, align-sorted
   \                     `?<Constant L"">`:
   \   00000000   0000               DC8 0, 0

   \                                 In segment DATA_C, align 4, align-sorted
   \                     `?<Constant L"\\x46\\x6f\\x67">`:
   \   00000000   46006F006700       DC8 46H, 0, 6FH, 0, 67H, 0, 0, 0
   \              0000        

   \                                 In segment DATA_C, align 4, align-sorted
   \                     `?<Constant L"\\x53\\x68\\x6f\\x77\\x65\\x72\\x73">`:
   \   00000000   530068006F00       DC8 53H, 0, 68H, 0, 6FH, 0, 77H, 0
   \              7700        
   \   00000008   650072007300       DC8 65H, 0, 72H, 0, 73H, 0, 0, 0
   \              0000        

   \                                 In segment DATA_C, align 4, align-sorted
   \                     `?<Constant L"\\x4d\\x6f\\x73\\x74\\x6c\\x79\\x20\\x43\\_2`:
   \   00000000   4D006F007300       DC8 4DH, 0, 6FH, 0, 73H, 0, 74H, 0
   \              7400        
   \   00000008   6C0079002000       DC8 6CH, 0, 79H, 0, 20H, 0, 43H, 0
   \              4300        
   \   00000010   6C006F007500       DC8 6CH, 0, 6FH, 0, 75H, 0, 64H, 0
   \              6400        
   \   00000018   790020007700       DC8 79H, 0, 20H, 0, 77H, 0, 69H, 0
   \              6900        
   \   00000020   740068002000       DC8 74H, 0, 68H, 0, 20H, 0, 53H, 0
   \              5300        
   \   00000028   68006F007700       DC8 68H, 0, 6FH, 0, 77H, 0, 65H, 0
   \              6500        
   \   00000030   720073000000       DC8 72H, 0, 73H, 0, 0, 0
   \   00000036   0000               DC8 0, 0

   \                                 In segment DATA_C, align 4, align-sorted
   \                     `?<Constant L"\\x50\\x61\\x72\\x74\\x6c\\x79\\x20\\x53\\_1`:
   \   00000000   500061007200       DC8 50H, 0, 61H, 0, 72H, 0, 74H, 0
   \              7400        
   \   00000008   6C0079002000       DC8 6CH, 0, 79H, 0, 20H, 0, 53H, 0
   \              5300        
   \   00000010   75006E006E00       DC8 75H, 0, 6EH, 0, 6EH, 0, 79H, 0
   \              7900        
   \   00000018   200077006900       DC8 20H, 0, 77H, 0, 69H, 0, 74H, 0
   \              7400        
   \   00000020   680020005300       DC8 68H, 0, 20H, 0, 53H, 0, 68H, 0
   \              6800        
   \   00000028   6F0077006500       DC8 6FH, 0, 77H, 0, 65H, 0, 72H, 0
   \              7200        
   \   00000030   73000000           DC8 73H, 0, 0, 0

   \                                 In segment DATA_C, align 4, align-sorted
   \                     `?<Constant L"\\x54\\x68\\x75\\x6e\\x64\\x65\\x72\\x73\\`:
   \   00000000   540068007500       DC8 54H, 0, 68H, 0, 75H, 0, 6EH, 0
   \              6E00        
   \   00000008   640065007200       DC8 64H, 0, 65H, 0, 72H, 0, 73H, 0
   \              7300        
   \   00000010   74006F007200       DC8 74H, 0, 6FH, 0, 72H, 0, 6DH, 0
   \              6D00        
   \   00000018   73000000           DC8 73H, 0, 0, 0

   \                                 In segment DATA_C, align 4, align-sorted
   \                     `?<Constant L"\\x4d\\x6f\\x73\\x74\\x6c\\x79\\x20\\x43\\_3`:
   \   00000000   4D006F007300       DC8 4DH, 0, 6FH, 0, 73H, 0, 74H, 0
   \              7400        
   \   00000008   6C0079002000       DC8 6CH, 0, 79H, 0, 20H, 0, 43H, 0
   \              4300        
   \   00000010   6C006F007500       DC8 6CH, 0, 6FH, 0, 75H, 0, 64H, 0
   \              6400        
   \   00000018   790020007700       DC8 79H, 0, 20H, 0, 77H, 0, 69H, 0
   \              6900        
   \   00000020   740068002000       DC8 74H, 0, 68H, 0, 20H, 0, 54H, 0
   \              5400        
   \   00000028   680075006E00       DC8 68H, 0, 75H, 0, 6EH, 0, 64H, 0
   \              6400        
   \   00000030   650072002000       DC8 65H, 0, 72H, 0, 20H, 0, 53H, 0
   \              5300        
   \   00000038   68006F007700       DC8 68H, 0, 6FH, 0, 77H, 0, 65H, 0
   \              6500        
   \   00000040   720073000000       DC8 72H, 0, 73H, 0, 0, 0
   \   00000046   0000               DC8 0, 0

   \                                 In segment DATA_C, align 4, align-sorted
   \                     `?<Constant L"\\x50\\x61\\x72\\x74\\x6c\\x79\\x20\\x53\\_2`:
   \   00000000   500061007200       DC8 50H, 0, 61H, 0, 72H, 0, 74H, 0
   \              7400        
   \   00000008   6C0079002000       DC8 6CH, 0, 79H, 0, 20H, 0, 53H, 0
   \              5300        
   \   00000010   75006E006E00       DC8 75H, 0, 6EH, 0, 6EH, 0, 79H, 0
   \              7900        
   \   00000018   200077006900       DC8 20H, 0, 77H, 0, 69H, 0, 74H, 0
   \              7400        
   \   00000020   680020005400       DC8 68H, 0, 20H, 0, 54H, 0, 68H, 0
   \              6800        
   \   00000028   75006E006400       DC8 75H, 0, 6EH, 0, 64H, 0, 65H, 0
   \              6500        
   \   00000030   720020005300       DC8 72H, 0, 20H, 0, 53H, 0, 68H, 0
   \              6800        
   \   00000038   6F0077006500       DC8 6FH, 0, 77H, 0, 65H, 0, 72H, 0
   \              7200        
   \   00000040   73000000           DC8 73H, 0, 0, 0

   \                                 In segment DATA_C, align 4, align-sorted
   \                     `?<Constant L"\\x52\\x61\\x69\\x6e">`:
   \   00000000   520061006900       DC8 52H, 0, 61H, 0, 69H, 0, 6EH, 0
   \              6E00        
   \   00000008   0000               DC8 0, 0
   \   0000000A   0000               DC8 0, 0

   \                                 In segment DATA_C, align 4, align-sorted
   \                     `?<Constant L"\\x46\\x6c\\x75\\x72\\x72\\x69\\x65\\x73"`:
   \   00000000   46006C007500       DC8 46H, 0, 6CH, 0, 75H, 0, 72H, 0
   \              7200        
   \   00000008   720069006500       DC8 72H, 0, 69H, 0, 65H, 0, 73H, 0
   \              7300        
   \   00000010   0000               DC8 0, 0
   \   00000012   0000               DC8 0, 0

   \                                 In segment DATA_C, align 4, align-sorted
   \                     `?<Constant L"\\x25\\x64">`:
   \   00000000   250064000000       DC8 25H, 0, 64H, 0, 0, 0
   \   00000006   0000               DC8 0, 0

   \                                 In segment DATA_C, align 4, align-sorted
   \                     `?<Constant L"\\x50\\x61\\x72\\x74\\x6c\\x79\\x20\\x53\\_3`:
   \   00000000   500061007200       DC8 50H, 0, 61H, 0, 72H, 0, 74H, 0
   \              7400        
   \   00000008   6C0079002000       DC8 6CH, 0, 79H, 0, 20H, 0, 53H, 0
   \              5300        
   \   00000010   75006E006E00       DC8 75H, 0, 6EH, 0, 6EH, 0, 79H, 0
   \              7900        
   \   00000018   200077006900       DC8 20H, 0, 77H, 0, 69H, 0, 74H, 0
   \              7400        
   \   00000020   680020004600       DC8 68H, 0, 20H, 0, 46H, 0, 6CH, 0
   \              6C00        
   \   00000028   750072007200       DC8 75H, 0, 72H, 0, 72H, 0, 69H, 0
   \              6900        
   \   00000030   650073000000       DC8 65H, 0, 73H, 0, 0, 0
   \   00000036   0000               DC8 0, 0

   \                                 In segment DATA_C, align 4, align-sorted
   \                     `?<Constant L"\\x53\\x6e\\x6f\\x77">`:
   \   00000000   53006E006F00       DC8 53H, 0, 6EH, 0, 6FH, 0, 77H, 0
   \              7700        
   \   00000008   0000               DC8 0, 0
   \   0000000A   0000               DC8 0, 0

   \                                 In segment DATA_C, align 4, align-sorted
   \                     `?<Constant L"\\x4d\\x6f\\x73\\x74\\x6c\\x79\\x20\\x43\\_4`:
   \   00000000   4D006F007300       DC8 4DH, 0, 6FH, 0, 73H, 0, 74H, 0
   \              7400        
   \   00000008   6C0079002000       DC8 6CH, 0, 79H, 0, 20H, 0, 43H, 0
   \              4300        
   \   00000010   6C006F007500       DC8 6CH, 0, 6FH, 0, 75H, 0, 64H, 0
   \              6400        
   \   00000018   790020007700       DC8 79H, 0, 20H, 0, 77H, 0, 69H, 0
   \              6900        
   \   00000020   740068002000       DC8 74H, 0, 68H, 0, 20H, 0, 53H, 0
   \              5300        
   \   00000028   6E006F007700       DC8 6EH, 0, 6FH, 0, 77H, 0, 0, 0
   \              0000        

   \                                 In segment DATA_C, align 4, align-sorted
   \                     `?<Constant L"\\x49\\x63\\x65">`:
   \   00000000   490063006500       DC8 49H, 0, 63H, 0, 65H, 0, 0, 0
   \              0000        

   \                                 In segment DATA_C, align 4, align-sorted
   \                     `?<Constant L"\\x53\\x6c\\x65\\x65\\x74">`:
   \   00000000   53006C006500       DC8 53H, 0, 6CH, 0, 65H, 0, 65H, 0
   \              6500        
   \   00000008   74000000           DC8 74H, 0, 0, 0

   \                                 In segment DATA_C, align 4, align-sorted
   \                     `?<Constant L"\\x46\\x72\\x65\\x65\\x7a\\x69\\x6e\\x67\\`:
   \   00000000   460072006500       DC8 46H, 0, 72H, 0, 65H, 0, 65H, 0
   \              6500        
   \   00000008   7A0069006E00       DC8 7AH, 0, 69H, 0, 6EH, 0, 67H, 0
   \              6700        
   \   00000010   200052006100       DC8 20H, 0, 52H, 0, 61H, 0, 69H, 0
   \              6900        
   \   00000018   6E000000           DC8 6EH, 0, 0, 0

   \                                 In segment DATA_C, align 4, align-sorted
   \                     `?<Constant L"\\x52\\x61\\x69\\x6e\\x20\\x61\\x6e\\x64\\`:
   \   00000000   520061006900       DC8 52H, 0, 61H, 0, 69H, 0, 6EH, 0
   \              6E00        
   \   00000008   200061006E00       DC8 20H, 0, 61H, 0, 6EH, 0, 64H, 0
   \              6400        
   \   00000010   200053006E00       DC8 20H, 0, 53H, 0, 6EH, 0, 6FH, 0
   \              6F00        
   \   00000018   77000000           DC8 77H, 0, 0, 0

   \                                 In segment DATA_C, align 4, align-sorted
   \                     `?<Constant L"\\x48\\x6f\\x74">`:
   \   00000000   48006F007400       DC8 48H, 0, 6FH, 0, 74H, 0, 0, 0
   \              0000        

   \                                 In segment DATA_C, align 4, align-sorted
   \                     `?<Constant L"\\x43\\x6f\\x6c\\x64">`:
   \   00000000   43006F006C00       DC8 43H, 0, 6FH, 0, 6CH, 0, 64H, 0
   \              6400        
   \   00000008   0000               DC8 0, 0
   \   0000000A   0000               DC8 0, 0

   \                                 In segment DATA_C, align 4, align-sorted
   \                     `?<Constant L"\\x57\\x69\\x6e\\x64\\x79">`:
   \   00000000   570069006E00       DC8 57H, 0, 69H, 0, 6EH, 0, 64H, 0
   \              6400        
   \   00000008   79000000           DC8 79H, 0, 0, 0

   \                                 In segment DATA_C, align 4, align-sorted
   \                     `?<Constant L"\\x43\\x6c\\x65\\x61\\x72">`:
   \   00000000   43006C006500       DC8 43H, 0, 6CH, 0, 65H, 0, 61H, 0
   \              6100        
   \   00000008   72000000           DC8 72H, 0, 0, 0

   \                                 In segment DATA_C, align 4, align-sorted
   \                     `?<Constant L"\\x4d\\x6f\\x73\\x74\\x6c\\x79\\x20\\x43\\_5`:
   \   00000000   4D006F007300       DC8 4DH, 0, 6FH, 0, 73H, 0, 74H, 0
   \              7400        
   \   00000008   6C0079002000       DC8 6CH, 0, 79H, 0, 20H, 0, 43H, 0
   \              4300        
   \   00000010   6C0065006100       DC8 6CH, 0, 65H, 0, 61H, 0, 72H, 0
   \              7200        
   \   00000018   0000               DC8 0, 0
   \   0000001A   0000               DC8 0, 0

   \                                 In segment DATA_C, align 4, align-sorted
   \                     `?<Constant L"\\x50\\x61\\x72\\x74\\x6c\\x79\\x20\\x43\\`:
   \   00000000   500061007200       DC8 50H, 0, 61H, 0, 72H, 0, 74H, 0
   \              7400        
   \   00000008   6C0079002000       DC8 6CH, 0, 79H, 0, 20H, 0, 43H, 0
   \              4300        
   \   00000010   6C006F007500       DC8 6CH, 0, 6FH, 0, 75H, 0, 64H, 0
   \              6400        
   \   00000018   79000000           DC8 79H, 0, 0, 0

   \                                 In segment DATA_C, align 4, align-sorted
   \                     `?<Constant L"\\x48\\x61\\x7a\\x79">`:
   \   00000000   480061007A00       DC8 48H, 0, 61H, 0, 7AH, 0, 79H, 0
   \              7900        
   \   00000008   0000               DC8 0, 0
   \   0000000A   0000               DC8 0, 0

   \                                 In segment DATA_C, align 4, align-sorted
   \                     `?<Constant L"\\x50\\x61\\x72\\x74\\x6c\\x79\\x20\\x43\\_1`:
   \   00000000   500061007200       DC8 50H, 0, 61H, 0, 72H, 0, 74H, 0
   \              7400        
   \   00000008   6C0079002000       DC8 6CH, 0, 79H, 0, 20H, 0, 43H, 0
   \              4300        
   \   00000010   6C006F007500       DC8 6CH, 0, 6FH, 0, 75H, 0, 64H, 0
   \              6400        
   \   00000018   790020007700       DC8 79H, 0, 20H, 0, 77H, 0, 69H, 0
   \              6900        
   \   00000020   740068002000       DC8 74H, 0, 68H, 0, 20H, 0, 53H, 0
   \              5300        
   \   00000028   68006F007700       DC8 68H, 0, 6FH, 0, 77H, 0, 65H, 0
   \              6500        
   \   00000030   720073000000       DC8 72H, 0, 73H, 0, 0, 0
   \   00000036   0000               DC8 0, 0

   \                                 In segment DATA_C, align 4, align-sorted
   \                     `?<Constant L"\\x50\\x61\\x72\\x74\\x6c\\x79\\x20\\x43\\_2`:
   \   00000000   500061007200       DC8 50H, 0, 61H, 0, 72H, 0, 74H, 0
   \              7400        
   \   00000008   6C0079002000       DC8 6CH, 0, 79H, 0, 20H, 0, 43H, 0
   \              4300        
   \   00000010   6C006F007500       DC8 6CH, 0, 6FH, 0, 75H, 0, 64H, 0
   \              6400        
   \   00000018   790020007700       DC8 79H, 0, 20H, 0, 77H, 0, 69H, 0
   \              6900        
   \   00000020   740068002000       DC8 74H, 0, 68H, 0, 20H, 0, 54H, 0
   \              5400        
   \   00000028   680075006E00       DC8 68H, 0, 75H, 0, 6EH, 0, 64H, 0
   \              6400        
   \   00000030   650072002000       DC8 65H, 0, 72H, 0, 20H, 0, 53H, 0
   \              5300        
   \   00000038   68006F007700       DC8 68H, 0, 6FH, 0, 77H, 0, 65H, 0
   \              6500        
   \   00000040   720073000000       DC8 72H, 0, 73H, 0, 0, 0
   \   00000046   0000               DC8 0, 0

   \                                 In segment DATA_C, align 4, align-sorted
   \                     `?<Constant L"\\x3c\\x50\\x65\\x72\\x69\\x6f\\x64\\x20\\`:
   \   00000000   3C0050006500       DC8 3CH, 0, 50H, 0, 65H, 0, 72H, 0
   \              7200        
   \   00000008   69006F006400       DC8 69H, 0, 6FH, 0, 64H, 0, 20H, 0
   \              2000        
   \   00000010   530074006100       DC8 53H, 0, 74H, 0, 61H, 0, 72H, 0
   \              7200        
   \   00000018   740044006100       DC8 74H, 0, 44H, 0, 61H, 0, 74H, 0
   \              7400        
   \   00000020   65003D002200       DC8 65H, 0, 3DH, 0, 22H, 0, 25H, 0
   \              2500        
   \   00000028   75002F002500       DC8 75H, 0, 2FH, 0, 25H, 0, 64H, 0
   \              6400        
   \   00000030   2F0025006400       DC8 2FH, 0, 25H, 0, 64H, 0, 22H, 0
   \              2200        
   \   00000038   3E000000           DC8 3EH, 0, 0, 0

   Maximum stack usage in bytes:

     Function                       CSTACK
     --------                       ------
     getDate()                         24
     getDayState(wchar_t *, int &)     12
     getDayWeather(wchar_t *, int &)
                                       28
     getEqualContent(wchar_t *, int &)
                                       16
     getLocation(wchar_t *, int &)     12
     getTag(wchar_t *, int, int &)     32
     getWeather(wchar_t *, int &)      28
     getWeatherConditions(int)         16


   Segment part sizes:

     Function/Label                 Bytes
     --------------                 -----
     weatherConditions               176
     getDate()                        92
     getTag(wchar_t *, int, int &)   160
     getEqualContent(wchar_t *, int &)
                                      76
     getDayState(wchar_t *, int &)    56
     getLocation(wchar_t *, int &)    92
     getWeatherConditions(int)        76
     getWeather(wchar_t *, int &)    128
     getDayWeather(wchar_t *, int &)
                                     200
     ?<Initializer for weatherConditions>
                                     176
     ?<Constant L"\x4d\x6f\x73\x74\x6c\x79\x20\x43\
                                      56
     ?<Constant L"\x50\x6c\x65\x6e\x74\x79\x20\x6f\
                                      40
     ?<Constant L"\x4d\x6f\x73\x74\x6c\x79\x20\x53\
                                      28
     ?<Constant L"\x50\x61\x72\x74\x6c\x79\x20\x53\
                                      28
     ?<Constant L"\x49\x6e\x74\x65\x72\x6d\x69\x74\
                                      40
     ?<Constant L"\x48\x61\x7a\x79\x20\x53\x75\x6e\
                                      28
     ?<Constant L"\x4d\x6f\x73\x74\x6c\x79\x20\x43\_1
                                      28
     ?<Constant L"\x43\x6c\x6f\x75\x64\x79">
                                      16
     ?<Constant L"\x44\x72\x65\x61\x72\x79">
                                      16
     ?<Constant L"">                   2
     ?<Constant L"\x46\x6f\x67">       8
     ?<Constant L"\x53\x68\x6f\x77\x65\x72\x73">
                                      16
     ?<Constant L"\x4d\x6f\x73\x74\x6c\x79\x20\x43\_2
                                      56
     ?<Constant L"\x50\x61\x72\x74\x6c\x79\x20\x53\_1
                                      52
     ?<Constant L"\x54\x68\x75\x6e\x64\x65\x72\x73\
                                      28
     ?<Constant L"\x4d\x6f\x73\x74\x6c\x79\x20\x43\_3
                                      72
     ?<Constant L"\x50\x61\x72\x74\x6c\x79\x20\x53\_2
                                      68
     ?<Constant L"\x52\x61\x69\x6e">
                                      12
     ?<Constant L"\x46\x6c\x75\x72\x72\x69\x65\x73"
                                      20
     ?<Constant L"\x25\x64">           8
     ?<Constant L"\x50\x61\x72\x74\x6c\x79\x20\x53\_3
                                      56
     ?<Constant L"\x53\x6e\x6f\x77">
                                      12
     ?<Constant L"\x4d\x6f\x73\x74\x6c\x79\x20\x43\_4
                                      48
     ?<Constant L"\x49\x63\x65">       8
     ?<Constant L"\x53\x6c\x65\x65\x74">
                                      12
     ?<Constant L"\x46\x72\x65\x65\x7a\x69\x6e\x67\
                                      28
     ?<Constant L"\x52\x61\x69\x6e\x20\x61\x6e\x64\
                                      28
     ?<Constant L"\x48\x6f\x74">       8
     ?<Constant L"\x43\x6f\x6c\x64">
                                      12
     ?<Constant L"\x57\x69\x6e\x64\x79">
                                      12
     ?<Constant L"\x43\x6c\x65\x61\x72">
                                      12
     ?<Constant L"\x4d\x6f\x73\x74\x6c\x79\x20\x43\_5
                                      28
     ?<Constant L"\x50\x61\x72\x74\x6c\x79\x20\x43\
                                      28
     ?<Constant L"\x48\x61\x7a\x79">
                                      12
     ?<Constant L"\x50\x61\x72\x74\x6c\x79\x20\x43\_1
                                      56
     ?<Constant L"\x50\x61\x72\x74\x6c\x79\x20\x43\_2
                                      72
     ?<Constant L"\x3c\x50\x65\x72\x69\x6f\x64\x20\
                                      60
      Others                         116

 
   984 bytes in segment CODE
 1 114 bytes in segment DATA_C
   176 bytes in segment DATA_I
   176 bytes in segment DATA_ID
    12 bytes in segment INITTAB
 
   880 bytes of CODE  memory (+ 116 bytes shared)
 1 290 bytes of CONST memory
   176 bytes of DATA  memory

Errors: none
Warnings: none
