##############################################################################
#                                                                            #
# IAR ARM ANSI C/C++ Compiler V4.42A/W32 EVALUATION    08/May/2011  19:48:26 #
# Copyright 1999-2005 IAR Systems. All rights reserved.                      #
#                                                                            #
#    Cpu mode        =  interwork                                            #
#    Endian          =  little                                               #
#    Stack alignment =  4                                                    #
#    Source file     =  C:\Users\Faby\Desktop\StudyElf\GlassUIWidget\debug.c #
#                       pp                                                   #
#    Command line    =  C:\Users\Faby\Desktop\StudyElf\GlassUIWidget\debug.c #
#                       pp -D OLDFUNCTIONS -lC C:\Users\Faby\Desktop\StudyEl #
#                       f\GlassUIWidget\Debug\List\ -lA                      #
#                       C:\Users\Faby\Desktop\StudyElf\GlassUIWidget\Debug\L #
#                       ist\ -o C:\Users\Faby\Desktop\StudyElf\GlassUIWidget #
#                       \Debug\Obj\ -z2 --no_cse --no_unroll --no_inline     #
#                       --no_code_motion --no_tbaa --no_clustering           #
#                       --no_scheduling --debug --cpu_mode arm --endian      #
#                       little --cpu ARM926EJ-S --stack_align 4 --interwork  #
#                       -e --fpu None --eec++ --dlib_config                  #
#                       "C:\Users\Faby\EmbebedIAR\Embedded Workbench 4.0     #
#                       Evaluation\ARM\LIB\dl5tpainl8n.h" -I                 #
#                       "C:\Users\Faby\EmbebedIAR\Embedded Workbench 4.0     #
#                       Evaluation\ARM\INC\"                                 #
#    List file       =  C:\Users\Faby\Desktop\StudyElf\GlassUIWidget\Debug\L #
#                       ist\debug.lst                                        #
#    Object file     =  C:\Users\Faby\Desktop\StudyElf\GlassUIWidget\Debug\O #
#                       bj\debug.r79                                         #
#                                                                            #
#                                                                            #
##############################################################################

C:\Users\Faby\Desktop\StudyElf\GlassUIWidget\debug.cpp
      1          #include "..\include\Lib_Clara.h"
      2          #include "..\include\Dir.h"
      3          #include "debug.h"
      4          

   \                                 In segment CODE, align 4, keep-with-next
      5          void dbtf(char* msg) {
   \                     ??dbtf:
   \   00000000   10402DE9           PUSH     {R4,LR}
   \   00000004   0040B0E1           MOVS     R4,R0
      6          //  w_chdir(GetDir(DIR_OTHER|MEM_INTERNAL));
      7          //  int file = w_fopen(L"debug.txt", WA_Create+ WA_Append+WA_Write ,0x1FF,0);
      8          //  if ( file > -1 ) { 
      9          //    int length = strlen(msg);
     10          //    w_fwrite( file , msg , length ) ;
     11          //    w_fclose( file ) ; 
     12          //  }
     13            debug_printf("\n+-+-+-+- ");
   \   00000008   14009FE5           LDR      R0,??dbtf_1      ;; `?<Constant "\\n+-+-+-+- ">`
   \   0000000C   B10100EF           SWI      +433
     14            debug_printf(msg);
   \   00000010   0400B0E1           MOVS     R0,R4
   \   00000014   B10100EF           SWI      +433
     15            debug_printf(" +-+-+-+-\n");
   \   00000018   08009FE5           LDR      R0,??dbtf_1+0x4  ;; `?<Constant " +-+-+-+-\\n">`
   \   0000001C   B10100EF           SWI      +433
     16          }
   \   00000020   1080BDE8           POP      {R4,PC}          ;; return
   \                     ??dbtf_1:
   \   00000024   ........           DC32     `?<Constant "\\n+-+-+-+- ">`
   \   00000028   ........           DC32     `?<Constant " +-+-+-+-\\n">`
     17          

   \                                 In segment CODE, align 4, keep-with-next
     18          void printInt(int num) {
   \                     ??printInt:
   \   00000000   10402DE9           PUSH     {R4,LR}
   \   00000004   0040B0E1           MOVS     R4,R0
     19            //<!--debug
     20            debug_printf("\n+-+-+-+- %d  +-+-+-+-\n", num);
   \   00000008   0410B0E1           MOVS     R1,R4
   \   0000000C   04009FE5           LDR      R0,??printInt_1  ;; `?<Constant "\\n+-+-+-+- %d  +-+-+-+-\\n">`
   \   00000010   B10100EF           SWI      +433
     21            //-->
     22          }
   \   00000014   1080BDE8           POP      {R4,PC}          ;; return
   \                     ??printInt_1:
   \   00000018   ........           DC32     `?<Constant "\\n+-+-+-+- %d  +-+-+-+-\\n">`
     23          

   \                                 In segment CODE, align 4, keep-with-next
     24          void printFloat(float num) {
   \                     ??printFloat:
   \   00000000   10402DE9           PUSH     {R4,LR}
   \   00000004   0040B0E1           MOVS     R4,R0
     25            //<!--debug
     26            debug_printf("\n+-+-+-+- %f  +-+-+-+-\n", num);  //-->
   \   00000008   0400B0E1           MOVS     R0,R4
   \   0000000C   ........           _BLF     __floatToDouble,??__floatToDouble??rA
   \   00000010   0120A0E1           MOV      R2,R1
   \   00000014   0010A0E1           MOV      R1,R0
   \   00000018   04009FE5           LDR      R0,??printFloat_1  ;; `?<Constant "\\n+-+-+-+- %f  +-+-+-+-\\n">`
   \   0000001C   B10100EF           SWI      +433
     27          }
   \   00000020   1080BDE8           POP      {R4,PC}          ;; return
   \                     ??printFloat_1:
   \   00000024   ........           DC32     `?<Constant "\\n+-+-+-+- %f  +-+-+-+-\\n">`
     28          //wchar_t* wstrrchr( const wchar_t* wstr, wchar_t wchar );

   \                                 In segment CODE, align 4, keep-with-next
     29          void printWchar(wchar_t wString) {
   \                     ??printWchar:
   \   00000000   70402DE9           PUSH     {R4-R6,LR}
   \   00000004   0040B0E1           MOVS     R4,R0
     30            //<!--debug
     31            char* intI = new char[0x2];
   \   00000008   0200A0E3           MOV      R0,#+2
   \   0000000C   ........           _BLF     `??operator new[]`,`??operator new[]??rA`
   \   00000010   0050B0E1           MOVS     R5,R0
     32            wchar_t* wstr = new wchar_t[0x2];
   \   00000014   0400A0E3           MOV      R0,#+4
   \   00000018   ........           _BLF     `??operator new[]`,`??operator new[]??rA`
   \   0000001C   0060B0E1           MOVS     R6,R0
     33            wstr[0x0] = wString;
   \   00000020   B040C6E1           STRH     R4,[R6, #+0]
     34            wstr2strn(intI,wstr,wstrlen(wstr));
   \   00000024   0600B0E1           MOVS     R0,R6
   \   00000028   570100EF           SWI      +343
   \   0000002C   0020B0E1           MOVS     R2,R0
   \   00000030   0610B0E1           MOVS     R1,R6
   \   00000034   0500B0E1           MOVS     R0,R5
   \   00000038   5B0100EF           SWI      +347
     35            dbtf(intI);
   \   0000003C   0500B0E1           MOVS     R0,R5
   \   00000040   ........           BL       ??dbtf
     36          
     37            //dbtf(" \n");
     38            delete wstr;
   \   00000044   0600B0E1           MOVS     R0,R6
   \   00000048   ........           _BLF     `??operator delete`,`??operator delete??rA`
     39            delete intI;
   \   0000004C   0500B0E1           MOVS     R0,R5
   \   00000050   ........           _BLF     `??operator delete`,`??operator delete??rA`
     40            //-->
     41          }
   \   00000054   7080BDE8           POP      {R4-R6,PC}       ;; return
     42          

   \                                 In segment CODE, align 4, keep-with-next
     43          void printWstr(const wchar_t* wString) {
   \                     ??printWstr:
   \   00000000   30402DE9           PUSH     {R4,R5,LR}
   \   00000004   0040B0E1           MOVS     R4,R0
     44            //<!--debug
     45            char* intI = new char[0x256];
   \   00000008   5600A0E3           MOV      R0,#+86
   \   0000000C   800F80E3           ORR      R0,R0,#0x200
   \   00000010   ........           _BLF     `??operator new[]`,`??operator new[]??rA`
   \   00000014   0050B0E1           MOVS     R5,R0
     46            wstr2strn(intI,wString,wstrlen(wString));
   \   00000018   0400B0E1           MOVS     R0,R4
   \   0000001C   570100EF           SWI      +343
   \   00000020   0020B0E1           MOVS     R2,R0
   \   00000024   0410B0E1           MOVS     R1,R4
   \   00000028   0500B0E1           MOVS     R0,R5
   \   0000002C   5B0100EF           SWI      +347
     47            dbtf(intI);
   \   00000030   0500B0E1           MOVS     R0,R5
   \   00000034   ........           BL       ??dbtf
     48            delete intI;
   \   00000038   0500B0E1           MOVS     R0,R5
   \   0000003C   ........           _BLF     `??operator delete`,`??operator delete??rA`
     49            //-->
     50          }
   \   00000040   3080BDE8           POP      {R4,R5,PC}       ;; return

   \                                 In segment DATA_C, align 4, align-sorted
   \                     `?<Constant "\\n+-+-+-+- ">`:
   \   00000000   0A2B2D2B2D2B       DC8 "\012+-+-+-+- "
   \              2D2B2D2000  
   \   0000000B   00                 DC8 0

   \                                 In segment DATA_C, align 4, align-sorted
   \                     `?<Constant " +-+-+-+-\\n">`:
   \   00000000   202B2D2B2D2B       DC8 " +-+-+-+-\012"
   \              2D2B2D0A00  
   \   0000000B   00                 DC8 0

   \                                 In segment DATA_C, align 4, align-sorted
   \                     `?<Constant "\\n+-+-+-+- %d  +-+-+-+-\\n">`:
   \   00000000   0A2B2D2B2D2B       DC8 "\012+-+-+-+- %d  +-+-+-+-\012"
   \              2D2B2D202564
   \              20202B2D2B2D
   \              2B2D2B2D0A00

   \                                 In segment DATA_C, align 4, align-sorted
   \                     `?<Constant "\\n+-+-+-+- %f  +-+-+-+-\\n">`:
   \   00000000   0A2B2D2B2D2B       DC8 "\012+-+-+-+- %f  +-+-+-+-\012"
   \              2D2B2D202566
   \              20202B2D2B2D
   \              2B2D2B2D0A00

   Maximum stack usage in bytes:

     Function                   CSTACK
     --------                   ------
     dbtf(char *)                   8
     printFloat(float)              8
     printInt(int)                  8
     printWchar(wchar_t)           16
     printWstr(wchar_t const *)    12


   Segment part sizes:

     Function/Label                 Bytes
     --------------                 -----
     dbtf(char *)                     44
     printInt(int)                    28
     printFloat(float)                40
     printWchar(wchar_t)              88
     printWstr(wchar_t const *)       68
     ?<Constant "\n+-+-+-+- ">        12
     ?<Constant " +-+-+-+-\n">        12
     ?<Constant "\n+-+-+-+- %d  +-+-+-+-\n">
                                      24
     ?<Constant "\n+-+-+-+- %f  +-+-+-+-\n">
                                      24
      Others                          56

 
 324 bytes in segment CODE
  72 bytes in segment DATA_C
 
 268 bytes of CODE  memory (+ 56 bytes shared)
  72 bytes of CONST memory

Errors: none
Warnings: none
