##############################################################################
#                                                                            #
# IAR ARM ANSI C/C++ Compiler V4.42A/W32 EVALUATION    08/May/2011  19:48:25 #
# Copyright 1999-2005 IAR Systems. All rights reserved.                      #
#                                                                            #
#    Cpu mode        =  interwork                                            #
#    Endian          =  little                                               #
#    Stack alignment =  4                                                    #
#    Source file     =  C:\Users\Faby\Desktop\StudyElf\GlassUIWidget\main.cp #
#                       p                                                    #
#    Command line    =  C:\Users\Faby\Desktop\StudyElf\GlassUIWidget\main.cp #
#                       p -D OLDFUNCTIONS -lC C:\Users\Faby\Desktop\StudyElf #
#                       \GlassUIWidget\Debug\List\ -lA                       #
#                       C:\Users\Faby\Desktop\StudyElf\GlassUIWidget\Debug\L #
#                       ist\ -o C:\Users\Faby\Desktop\StudyElf\GlassUIWidget #
#                       \Debug\Obj\ -z2 --no_cse --no_unroll --no_inline     #
#                       --no_code_motion --no_tbaa --no_clustering           #
#                       --no_scheduling --debug --cpu_mode arm --endian      #
#                       little --cpu ARM926EJ-S --stack_align 4 --interwork  #
#                       -e --fpu None --eec++ --dlib_config                  #
#                       "C:\Users\Faby\EmbebedIAR\Embedded Workbench 4.0     #
#                       Evaluation\ARM\LIB\dl5tpainl8n.h" -I                 #
#                       "C:\Users\Faby\EmbebedIAR\Embedded Workbench 4.0     #
#                       Evaluation\ARM\INC\"                                 #
#    List file       =  C:\Users\Faby\Desktop\StudyElf\GlassUIWidget\Debug\L #
#                       ist\main.lst                                         #
#    Object file     =  C:\Users\Faby\Desktop\StudyElf\GlassUIWidget\Debug\O #
#                       bj\main.r79                                          #
#                                                                            #
#                                                                            #
##############################################################################

C:\Users\Faby\Desktop\StudyElf\GlassUIWidget\main.cpp
      1          //<!--includes
      2          #include "..\include\Lib_Clara.h"
      3          #include "..\include\Dir.h"
      4          #include "..\include\cfg_items.h"
      5          #include "standby\standbyDraw.h"
      6          #include "bcfg\conf_loader.h"
      7          #include "bcfg\config_data.h"
      8          #include "mybook.h"
      9          //#include "..\deleaker\mem2.h"
     10          //-->
     11          
     12          #define ELF_BCFG_CONFIG_EVENT 994
     13          
     14          //<!-- bcfg support

   \                                 In segment CODE, align 4, keep-with-next
     15          int onBcfgConfig(void* mess,BOOK* b)
     16          {
   \                     ??onBcfgConfig:
   \   00000000   30402DE9           PUSH     {R4,R5,LR}
   \   00000004   C8D04DE2           SUB      SP,SP,#+200
   \   00000008   40DE4DE2           SUB      SP,SP,#+1024
   \   0000000C   0040B0E1           MOVS     R4,R0
   \   00000010   0150B0E1           MOVS     R5,R1
     17            FSTAT _fstat;
     18            wchar_t path[0x256];
     19            
     20            if(fstat(GetDir(DIR_ELFS|MEM_INTERNAL),L"BcfgEdit.elf",&_fstat)==0)
   \   00000014   1100A0E3           MOV      R0,#+17
   \   00000018   050100EF           SWI      +261
   \   0000001C   AC208DE2           ADD      R2,SP,#+172
   \   00000020   402E82E2           ADD      R2,R2,#+1024
   \   00000024   D8109FE5           LDR      R1,??onBcfgConfig_1  ;; `?<Constant L"\\x42\\x63\\x66\\x67\\x45\\x64\\x69\\x74\\_1`
   \   00000028   1C0100EF           SWI      +284
   \   0000002C   000050E3           CMP      R0,#+0
   \   00000030   0500001A           BNE      ??onBcfgConfig_2
     21            {
     22              wstrcpy(path,GetDir(DIR_ELFS|MEM_INTERNAL));
   \   00000034   1100A0E3           MOV      R0,#+17
   \   00000038   050100EF           SWI      +261
   \   0000003C   0010B0E1           MOVS     R1,R0
   \   00000040   0D00B0E1           MOVS     R0,SP
   \   00000044   520100EF           SWI      +338
   \   00000048   1F0000EA           B        ??onBcfgConfig_3
     23            }
     24            else if(fstat(GetDir(DIR_ELFS|MEM_EXTERNAL),L"BcfgEdit.elf",&_fstat)==0)
   \                     ??onBcfgConfig_2:
   \   0000004C   1000A0E3           MOV      R0,#+16
   \   00000050   050100EF           SWI      +261
   \   00000054   AC208DE2           ADD      R2,SP,#+172
   \   00000058   402E82E2           ADD      R2,R2,#+1024
   \   0000005C   A0109FE5           LDR      R1,??onBcfgConfig_1  ;; `?<Constant L"\\x42\\x63\\x66\\x67\\x45\\x64\\x69\\x74\\_1`
   \   00000060   1C0100EF           SWI      +284
   \   00000064   000050E3           CMP      R0,#+0
   \   00000068   0500001A           BNE      ??onBcfgConfig_4
     25            {
     26              wstrcpy(path,GetDir(DIR_ELFS|MEM_EXTERNAL));
   \   0000006C   1000A0E3           MOV      R0,#+16
   \   00000070   050100EF           SWI      +261
   \   00000074   0010B0E1           MOVS     R1,R0
   \   00000078   0D00B0E1           MOVS     R0,SP
   \   0000007C   520100EF           SWI      +338
   \   00000080   110000EA           B        ??onBcfgConfig_3
     27            }
     28            else
     29            {
     30              MessageBox(0x6FFFFFFF, STR("BcfgEdit.elf not found!"), 0, 1 ,5000, 0);
   \                     ??onBcfgConfig_4:
   \   00000084   FF20A0E3           MOV      R2,#+255
   \   00000088   FF2C82E3           ORR      R2,R2,#0xFF00
   \   0000008C   0010A0E3           MOV      R1,#+0
   \   00000090   70009FE5           LDR      R0,??onBcfgConfig_1+0x4  ;; `?<Constant L"\\x42\\x63\\x66\\x67\\x45\\x64\\x69\\x74\\`
   \   00000094   5D0100EF           SWI      +349
   \   00000098   0010A0E3           MOV      R1,#+0
   \   0000009C   02002DE9           PUSH     {R1}
   \   000000A0   8810A0E3           MOV      R1,#+136
   \   000000A4   4C1D81E3           ORR      R1,R1,#0x1300
   \   000000A8   02002DE9           PUSH     {R1}
   \   000000AC   0130A0E3           MOV      R3,#+1
   \   000000B0   0020A0E3           MOV      R2,#+0
   \   000000B4   0010B0E1           MOVS     R1,R0
   \   000000B8   9004E0E3           MVN      R0,#-1879048192
   \   000000BC   570200EF           SWI      +599
   \   000000C0   08D08DE2           ADD      SP,SP,#+8        ;; stack cleaning
     31              return (1);
   \   000000C4   0100A0E3           MOV      R0,#+1
   \   000000C8   0A0000EA           B        ??onBcfgConfig_5
     32            }
     33            wstrcat(path,L"/BcfgEdit.elf");
   \                     ??onBcfgConfig_3:
   \   000000CC   38109FE5           LDR      R1,??onBcfgConfig_1+0x8  ;; `?<Constant L"\\x2f\\x42\\x63\\x66\\x67\\x45\\x64\\x69\\`
   \   000000D0   0D00B0E1           MOVS     R0,SP
   \   000000D4   540100EF           SWI      +340
     34            elfload(path,(void*)successed_config_path,(void*)successed_config_name,0);
   \   000000D8   0030A0E3           MOV      R3,#+0
   \   000000DC   2C009FE5           LDR      R0,??onBcfgConfig_1+0xC  ;; successed_config_name
   \   000000E0   002090E5           LDR      R2,[R0, #+0]
   \   000000E4   28009FE5           LDR      R0,??onBcfgConfig_1+0x10  ;; successed_config_path
   \   000000E8   001090E5           LDR      R1,[R0, #+0]
   \   000000EC   0D00B0E1           MOVS     R0,SP
   \   000000F0   0D0100EF           SWI      +269
     35            return (1);
   \   000000F4   0100A0E3           MOV      R0,#+1
   \                     ??onBcfgConfig_5:
   \   000000F8   C8D08DE2           ADD      SP,SP,#+200      ;; stack cleaning
   \   000000FC   40DE8DE2           ADD      SP,SP,#+1024
   \   00000100   3080BDE8           POP      {R4,R5,PC}       ;; return
   \                     ??onBcfgConfig_1:
   \   00000104   ........           DC32     `?<Constant L"\\x42\\x63\\x66\\x67\\x45\\x64\\x69\\x74\\_1`
   \   00000108   ........           DC32     `?<Constant L"\\x42\\x63\\x66\\x67\\x45\\x64\\x69\\x74\\`
   \   0000010C   ........           DC32     `?<Constant L"\\x2f\\x42\\x63\\x66\\x67\\x45\\x64\\x69\\`
   \   00000110   ........           DC32     successed_config_name
   \   00000114   ........           DC32     successed_config_path
     36          }
     37          
     38          //-->
     39          
     40          //<!--Book Manager Functions
     41          
     42          

   \                                 In segment CODE, align 4, keep-with-next
     43          int TerminateElf(void* ,BOOK* book){
   \                     ??TerminateElf:
   \   00000000   30402DE9           PUSH     {R4,R5,LR}
   \   00000004   0040B0E1           MOVS     R4,R0
   \   00000008   0150B0E1           MOVS     R5,R1
     44            FreeBook(book);
   \   0000000C   0500B0E1           MOVS     R0,R5
   \   00000010   2F0100EF           SWI      +303
     45            return(1);
   \   00000014   0100A0E3           MOV      R0,#+1
   \   00000018   3080BDE8           POP      {R4,R5,PC}       ;; return
     46          }
     47          
     48          typedef struct{
     49            BOOK* book;
     50          }MSG;
     51          

   \                                 In segment CODE, align 4, keep-with-next
     52          int ShowAuthorInfo(void* mess ,BOOK* book){
   \                     ??ShowAuthorInfo:
   \   00000000   70402DE9           PUSH     {R4-R6,LR}
   \   00000004   0040B0E1           MOVS     R4,R0
   \   00000008   0150B0E1           MOVS     R5,R1
     53            MSG* msg = (MSG*)mess;
   \   0000000C   0460B0E1           MOVS     R6,R4
     54            MessageBox(0x6FFFFFFF,STR("GlassUIWidget \n© tRaDuZ"), NOIMAGE, 1, 0,msg->book);
   \   00000010   FF20A0E3           MOV      R2,#+255
   \   00000014   FF2C82E3           ORR      R2,R2,#0xFF00
   \   00000018   0010A0E3           MOV      R1,#+0
   \   0000001C   34009FE5           LDR      R0,??ShowAuthorInfo_1  ;; `?<Constant L"\\x47\\x6c\\x61\\x73\\x73\\x55\\x49\\x57\\`
   \   00000020   5D0100EF           SWI      +349
   \   00000024   001096E5           LDR      R1,[R6, #+0]
   \   00000028   02002DE9           PUSH     {R1}
   \   0000002C   0010A0E3           MOV      R1,#+0
   \   00000030   02002DE9           PUSH     {R1}
   \   00000034   0130A0E3           MOV      R3,#+1
   \   00000038   FF20A0E3           MOV      R2,#+255
   \   0000003C   FF2C82E3           ORR      R2,R2,#0xFF00
   \   00000040   0010B0E1           MOVS     R1,R0
   \   00000044   9004E0E3           MVN      R0,#-1879048192
   \   00000048   570200EF           SWI      +599
   \   0000004C   08D08DE2           ADD      SP,SP,#+8        ;; stack cleaning
     55            return(1);
   \   00000050   0100A0E3           MOV      R0,#+1
   \   00000054   7080BDE8           POP      {R4-R6,PC}       ;; return
   \                     ??ShowAuthorInfo_1:
   \   00000058   ........           DC32     `?<Constant L"\\x47\\x6c\\x61\\x73\\x73\\x55\\x49\\x57\\`
     56          }
     57          

   \                                 In segment DYN_PAGE, align 4, align-sorted
     58          const PAGE_MSG BElf_PageEvents[]@ "DYN_PAGE" ={
   \                     BElf_PageEvents:
   \   00000000   E3030000....       DC32 995, ??SB_ELF_Killed, 997, ??TerminateElf, 998, ??ShowAuthorInfo
   \              ....E5030000
   \              ........E603
   \              0000........
   \   00000018   E4030000....       DC32 996, ??ReconfigElf, 994, ??onBcfgConfig, 0, 0H
   \              ....E2030000
   \              ........0000
   \              000000000000
     59            SBY_REDRAW_RELEASE_EVENT  , SB_ELF_Killed,
     60            ELF_TERMINATE_EVENT , TerminateElf,
     61            ELF_SHOW_INFO_EVENT  , ShowAuthorInfo,
     62            ELF_RECONFIG_EVENT,      ReconfigElf,
     63            ELF_BCFG_CONFIG_EVENT,   onBcfgConfig,
     64            0,0
     65          };
     66          

   \                                 In segment DATA_I, align 4, align-sorted
     67          PAGE_DESC base_page ={"HW_BasePage",0,BElf_PageEvents};
   \                     base_page:
   \   00000000                      DS8 12
   \   0000000C                      REQUIRE `?<Initializer for base_page>`
     68          
     69          

   \                                 In segment CODE, align 4, keep-with-next
     70          void elf_exit(void){
   \                     ??elf_exit:
   \   00000000   00402DE9           PUSH     {LR}
     71          //  trace_done();
     72            kill_data(&ELF_BEGIN, (void(*)(void*))mfree_adr());
   \   00000004   048100EF           SWI      +33028
   \   00000008   0010B0E1           MOVS     R1,R0
   \   0000000C   04009FE5           LDR      R0,??elf_exit_1  ;; ELF_BEGIN
   \   00000010   ........           _BLF     kill_data,??kill_data??rA
     73          }
   \   00000014   0080BDE8           POP      {PC}             ;; return
   \                     ??elf_exit_1:
   \   00000018   ........           DC32     ELF_BEGIN
     74          
     75          //-->
     76          

   \                                 In segment CODE, align 4, keep-with-next
     77          int myFind (BOOK * book) {
   \                     ??myFind:
   \   00000000   10402DE9           PUSH     {R4,LR}
   \   00000004   0040B0E1           MOVS     R4,R0
     78            if (!strcmp (book-> xbook-> name, "GlassUIWidget")) return (1);
   \   00000008   ........           LDR      R1,??DataTable1  ;; `?<Constant "GlassUIWidget">`
   \   0000000C   000094E5           LDR      R0,[R4, #+0]
   \   00000010   040090E5           LDR      R0,[R0, #+4]
   \   00000014   590100EF           SWI      +345
   \   00000018   000050E3           CMP      R0,#+0
   \   0000001C   0100001A           BNE      ??myFind_1
   \   00000020   0100A0E3           MOV      R0,#+1
   \   00000024   000000EA           B        ??myFind_2
     79            return (0);
   \                     ??myFind_1:
   \   00000028   0000A0E3           MOV      R0,#+0
   \                     ??myFind_2:
   \   0000002C   1080BDE8           POP      {R4,PC}          ;; return
     80          }
     81          

   \                                 In segment CODE, align 4, keep-with-next
     82          int main (void){
   \                     main:
   \   00000000   30402DE9           PUSH     {R4,R5,LR}
     83            if (FindBook(myFind)) {
   \   00000004   BC009FE5           LDR      R0,??main_0      ;; ??myFind
   \   00000008   300100EF           SWI      +304
   \   0000000C   000050E3           CMP      R0,#+0
   \   00000010   1200000A           BEQ      ??main_1
     84              MessageBox(0x6FFFFFFF,STR("GlassUIWidget is already runing!"), NOIMAGE, 1, 0,0);
   \   00000014   FF20A0E3           MOV      R2,#+255
   \   00000018   FF2C82E3           ORR      R2,R2,#0xFF00
   \   0000001C   0010A0E3           MOV      R1,#+0
   \   00000020   A4009FE5           LDR      R0,??main_0+0x4  ;; `?<Constant L"\\x47\\x6c\\x61\\x73\\x73\\x55\\x49\\x57\\_1`
   \   00000024   5D0100EF           SWI      +349
   \   00000028   0010A0E3           MOV      R1,#+0
   \   0000002C   02002DE9           PUSH     {R1}
   \   00000030   0010A0E3           MOV      R1,#+0
   \   00000034   02002DE9           PUSH     {R1}
   \   00000038   0130A0E3           MOV      R3,#+1
   \   0000003C   FF20A0E3           MOV      R2,#+255
   \   00000040   FF2C82E3           ORR      R2,R2,#0xFF00
   \   00000044   0010B0E1           MOVS     R1,R0
   \   00000048   9004E0E3           MVN      R0,#-1879048192
   \   0000004C   570200EF           SWI      +599
   \   00000050   08D08DE2           ADD      SP,SP,#+8        ;; stack cleaning
     85              SUBPROC(elf_exit);
   \   00000054   74009FE5           LDR      R0,??main_0+0x8  ;; ??elf_exit
   \   00000058   080100EF           SWI      +264
   \   0000005C   170000EA           B        ??main_2
     86            }
     87            else {
     88          //    trace_init();
     89              
     90              InitConfig();
   \                     ??main_1:
   \   00000060   ........           _BLF     ??InitConfig,??InitConfig??rA
     91              
     92              MyBook* BEBook = new MyBook();
   \   00000064   A800A0E3           MOV      R0,#+168
   \   00000068   ........           _BLF     `??operator new`,`??operator new??rA`
   \   0000006C   0040B0E1           MOVS     R4,R0
   \   00000070   000054E3           CMP      R4,#+0
   \   00000074   0300000A           BEQ      ??main_3
   \   00000078   0400B0E1           MOVS     R0,R4
   \   0000007C   ........           _BLF     ??MyBook,??MyBook??rA
   \   00000080   0450B0E1           MOVS     R5,R4
   \   00000084   000000EA           B        ??main_4
   \                     ??main_3:
   \   00000088   0050A0E3           MOV      R5,#+0
     93              
     94              CreateBook(BEBook->getBook(),onCloseBEBook,&base_page,"GlassUIWidget",-1,0);
   \                     ??main_4:
   \   0000008C   0500B0E1           MOVS     R0,R5
   \   00000090   ........           _BLF     ??getBook,??getBook??rA
   \   00000094   0010A0E3           MOV      R1,#+0
   \   00000098   02002DE9           PUSH     {R1}
   \   0000009C   0010E0E3           MVN      R1,#+0
   \   000000A0   02002DE9           PUSH     {R1}
   \   000000A4   ........           LDR      R3,??DataTable1  ;; `?<Constant "GlassUIWidget">`
   \   000000A8   24209FE5           LDR      R2,??main_0+0xC  ;; base_page
   \   000000AC   24109FE5           LDR      R1,??main_0+0x10  ;; ??onCloseBEBook
   \   000000B0   2B0100EF           SWI      +299
   \   000000B4   08D08DE2           ADD      SP,SP,#+8        ;; stack cleaning
     95              
     96              drawWeatherInfo(BEBook);
   \   000000B8   0500B0E1           MOVS     R0,R5
   \   000000BC   ........           _BLF     ??drawWeatherInfo,??drawWeatherInfo??rA
     97            }
     98            return(0);
   \                     ??main_2:
   \   000000C0   0000A0E3           MOV      R0,#+0
   \   000000C4   3080BDE8           POP      {R4,R5,PC}       ;; return
   \                     ??main_0:
   \   000000C8   ........           DC32     ??myFind
   \   000000CC   ........           DC32     `?<Constant L"\\x47\\x6c\\x61\\x73\\x73\\x55\\x49\\x57\\_1`
   \   000000D0   ........           DC32     ??elf_exit
   \   000000D4   ........           DC32     base_page
   \   000000D8   ........           DC32     ??onCloseBEBook
     99          }

   \                                 In segment CODE, align 4, keep-with-next
   \                     ??DataTable1:
   \   00000000   ........           DC32     `?<Constant "GlassUIWidget">`

   \                                 In segment DATA_ID, align 4, align-sorted
   \                     `?<Initializer for base_page>`:
   \   00000000   ........0000       DC32 `?<Constant "HW_BasePage">`, 0H, BElf_PageEvents
   \              0000........

   \                                 In segment DATA_C, align 4, align-sorted
   \                     `?<Constant "HW_BasePage">`:
   \   00000000   48575F426173       DC8 "HW_BasePage"
   \              655061676500

   \                                 In segment DATA_C, align 4, align-sorted
   \                     `?<Constant L"\\x42\\x63\\x66\\x67\\x45\\x64\\x69\\x74\\`:
   \   00000000   420063006600       DC8 42H, 0, 63H, 0, 66H, 0, 67H, 0
   \              6700        
   \   00000008   450064006900       DC8 45H, 0, 64H, 0, 69H, 0, 74H, 0
   \              7400        
   \   00000010   2E0065006C00       DC8 2EH, 0, 65H, 0, 6CH, 0, 66H, 0
   \              6600        
   \   00000018   20006E006F00       DC8 20H, 0, 6EH, 0, 6FH, 0, 74H, 0
   \              7400        
   \   00000020   200066006F00       DC8 20H, 0, 66H, 0, 6FH, 0, 75H, 0
   \              7500        
   \   00000028   6E0064002100       DC8 6EH, 0, 64H, 0, 21H, 0, 0, 0
   \              0000        

   \                                 In segment DATA_C, align 4, align-sorted
   \                     `?<Constant L"\\x42\\x63\\x66\\x67\\x45\\x64\\x69\\x74\\_1`:
   \   00000000   420063006600       DC8 42H, 0, 63H, 0, 66H, 0, 67H, 0
   \              6700        
   \   00000008   450064006900       DC8 45H, 0, 64H, 0, 69H, 0, 74H, 0
   \              7400        
   \   00000010   2E0065006C00       DC8 2EH, 0, 65H, 0, 6CH, 0, 66H, 0
   \              6600        
   \   00000018   0000               DC8 0, 0
   \   0000001A   0000               DC8 0, 0

   \                                 In segment DATA_C, align 4, align-sorted
   \                     `?<Constant L"\\x2f\\x42\\x63\\x66\\x67\\x45\\x64\\x69\\`:
   \   00000000   2F0042006300       DC8 2FH, 0, 42H, 0, 63H, 0, 66H, 0
   \              6600        
   \   00000008   670045006400       DC8 67H, 0, 45H, 0, 64H, 0, 69H, 0
   \              6900        
   \   00000010   74002E006500       DC8 74H, 0, 2EH, 0, 65H, 0, 6CH, 0
   \              6C00        
   \   00000018   66000000           DC8 66H, 0, 0, 0

   \                                 In segment DATA_C, align 4, align-sorted
   \                     `?<Constant L"\\x47\\x6c\\x61\\x73\\x73\\x55\\x49\\x57\\`:
   \   00000000   47006C006100       DC8 47H, 0, 6CH, 0, 61H, 0, 73H, 0
   \              7300        
   \   00000008   730055004900       DC8 73H, 0, 55H, 0, 49H, 0, 57H, 0
   \              5700        
   \   00000010   690064006700       DC8 69H, 0, 64H, 0, 67H, 0, 65H, 0
   \              6500        
   \   00000018   740020000A00       DC8 74H, 0, 20H, 0, 0AH, 0, 0A9H, 0
   \              A900        
   \   00000020   200074005200       DC8 20H, 0, 74H, 0, 52H, 0, 61H, 0
   \              6100        
   \   00000028   440075005A00       DC8 44H, 0, 75H, 0, 5AH, 0, 0, 0
   \              0000        

   \                                 In segment DATA_C, align 4, align-sorted
   \                     `?<Constant "GlassUIWidget">`:
   \   00000000   476C61737355       DC8 "GlassUIWidget"
   \              495769646765
   \              7400        
   \   0000000E   0000               DC8 0, 0

   \                                 In segment DATA_C, align 4, align-sorted
   \                     `?<Constant L"\\x47\\x6c\\x61\\x73\\x73\\x55\\x49\\x57\\_1`:
   \   00000000   47006C006100       DC8 47H, 0, 6CH, 0, 61H, 0, 73H, 0
   \              7300        
   \   00000008   730055004900       DC8 73H, 0, 55H, 0, 49H, 0, 57H, 0
   \              5700        
   \   00000010   690064006700       DC8 69H, 0, 64H, 0, 67H, 0, 65H, 0
   \              6500        
   \   00000018   740020006900       DC8 74H, 0, 20H, 0, 69H, 0, 73H, 0
   \              7300        
   \   00000020   200061006C00       DC8 20H, 0, 61H, 0, 6CH, 0, 72H, 0
   \              7200        
   \   00000028   650061006400       DC8 65H, 0, 61H, 0, 64H, 0, 79H, 0
   \              7900        
   \   00000030   200072007500       DC8 20H, 0, 72H, 0, 75H, 0, 6EH, 0
   \              6E00        
   \   00000038   69006E006700       DC8 69H, 0, 6EH, 0, 67H, 0, 21H, 0
   \              2100        
   \   00000040   0000               DC8 0, 0
   \   00000042   0000               DC8 0, 0
    100          //http://weather.joeearl.co.uk/

   Maximum stack usage in bytes:

     Function                       CSTACK
     --------                       ------
     ShowAuthorInfo(void *, BOOK *)    24
     TerminateElf(void *, BOOK *)      12
     elf_exit()                         4
     main()                            20
     myFind(BOOK *)                     8
     onBcfgConfig(void *, BOOK *)    1244


   Segment part sizes:

     Function/Label                 Bytes
     --------------                 -----
     onBcfgConfig(void *, BOOK *)    280
     TerminateElf(void *, BOOK *)     28
     ShowAuthorInfo(void *, BOOK *)   92
     BElf_PageEvents                  48
     base_page                        12
     elf_exit()                       28
     myFind(BOOK *)                   48
     main()                          220
     ??DataTable1                      4
     ?<Initializer for base_page>     12
     ?<Constant "HW_BasePage">        12
     ?<Constant L"\x42\x63\x66\x67\x45\x64\x69\x74\
                                      48
     ?<Constant L"\x42\x63\x66\x67\x45\x64\x69\x74\_1
                                      28
     ?<Constant L"\x2f\x42\x63\x66\x67\x45\x64\x69\
                                      28
     ?<Constant L"\x47\x6c\x61\x73\x73\x55\x49\x57\
                                      48
     ?<Constant "GlassUIWidget">      16
     ?<Constant L"\x47\x6c\x61\x73\x73\x55\x49\x57\_1
                                      68
      Others                         108

 
 796 bytes in segment CODE
 248 bytes in segment DATA_C
  12 bytes in segment DATA_I
  12 bytes in segment DATA_ID
  48 bytes in segment DYN_PAGE
  12 bytes in segment INITTAB
 
 700 bytes of CODE  memory (+ 108 bytes shared)
 308 bytes of CONST memory
  12 bytes of DATA  memory

Errors: none
Warnings: none
