##############################################################################
#                                                                            #
# IAR ARM ANSI C/C++ Compiler V4.42A/W32 EVALUATION    08/May/2011  19:48:28 #
# Copyright 1999-2005 IAR Systems. All rights reserved.                      #
#                                                                            #
#    Cpu mode        =  interwork                                            #
#    Endian          =  little                                               #
#    Stack alignment =  4                                                    #
#    Source file     =  C:\Users\Faby\Desktop\StudyElf\GlassUIWidget\utils\w #
#                       eather.cpp                                           #
#    Command line    =  C:\Users\Faby\Desktop\StudyElf\GlassUIWidget\utils\w #
#                       eather.cpp -D OLDFUNCTIONS -lC                       #
#                       C:\Users\Faby\Desktop\StudyElf\GlassUIWidget\Debug\L #
#                       ist\ -lA C:\Users\Faby\Desktop\StudyElf\GlassUIWidge #
#                       t\Debug\List\ -o C:\Users\Faby\Desktop\StudyElf\Glas #
#                       sUIWidget\Debug\Obj\ -z2 --no_cse --no_unroll        #
#                       --no_inline --no_code_motion --no_tbaa               #
#                       --no_clustering --no_scheduling --debug --cpu_mode   #
#                       arm --endian little --cpu ARM926EJ-S --stack_align   #
#                       4 --interwork -e --fpu None --eec++ --dlib_config    #
#                       "C:\Users\Faby\EmbebedIAR\Embedded Workbench 4.0     #
#                       Evaluation\ARM\LIB\dl5tpainl8n.h" -I                 #
#                       "C:\Users\Faby\EmbebedIAR\Embedded Workbench 4.0     #
#                       Evaluation\ARM\INC\"                                 #
#    List file       =  C:\Users\Faby\Desktop\StudyElf\GlassUIWidget\Debug\L #
#                       ist\weather.lst                                      #
#    Object file     =  C:\Users\Faby\Desktop\StudyElf\GlassUIWidget\Debug\O #
#                       bj\weather.r79                                       #
#                                                                            #
#                                                                            #
##############################################################################

C:\Users\Faby\Desktop\StudyElf\GlassUIWidget\utils\weather.cpp
      1          #include "..\..\include\Lib_Clara.h"
      2          #include "..\..\include\Dir.h"
      3          #include "weather.h"
      4          

   \                                 In segment CODE, align 4, keep-with-next
      5          Weather::Weather(int state, int tempMin, int tempMax, int windSpeed, wchar_t* state_, wchar_t* windDirection, wchar_t* longWind) :
   \                     ??Weather:
   \   00000000   F04F2DE9           PUSH     {R4-R11,LR}
   \   00000004   0040B0E1           MOVS     R4,R0
   \   00000008   01B0B0E1           MOVS     R11,R1
   \   0000000C   02A0B0E1           MOVS     R10,R2
   \   00000010   0390B0E1           MOVS     R9,R3
   \   00000014   24809DE5           LDR      R8,[SP, #+36]
   \   00000018   28509DE5           LDR      R5,[SP, #+40]
   \   0000001C   2C609DE5           LDR      R6,[SP, #+44]
   \   00000020   30709DE5           LDR      R7,[SP, #+48]
      6            state(state) , tempMin(tempMin) , tempMax(tempMax) , state_(state_) , windDirection(windDirection),
   \   00000024   00B084E5           STR      R11,[R4, #+0]
   \   00000028   04A084E5           STR      R10,[R4, #+4]
   \   0000002C   089084E5           STR      R9,[R4, #+8]
      7            averageTemp((tempMax+tempMin)/2) , windSpeed(windSpeed * 1.61), longWind(longWind) {
   \   00000030   0800B0E1           MOVS     R0,R8
   \   00000034   ........           _BLF     __longToDouble,??__longToDouble??rA
   \   00000038   0020A0E1           MOV      R2,R0
   \   0000003C   0130A0E1           MOV      R3,R1
   \   00000040   30009FE5           LDR      R0,??Weather_2   ;; 0x5c28f5c3
   \   00000044   30109FE5           LDR      R1,??Weather_2+0x4  ;; 0x3ff9c28f
   \   00000048   ........           _BLF     __dMul,??__dMul??rA
   \   0000004C   ........           _BLF     __doubleToLong,??__doubleToLong??rA
   \   00000050   0C0084E5           STR      R0,[R4, #+12]
   \   00000054   09009AE0           ADDS     R0,R10,R9
   \   00000058   0210A0E3           MOV      R1,#+2
   \   0000005C   ........           _BLF     ??div32_a,??rA??div32_a
   \   00000060   101084E5           STR      R1,[R4, #+16]
   \   00000064   145084E5           STR      R5,[R4, #+20]
   \   00000068   186084E5           STR      R6,[R4, #+24]
   \   0000006C   1C7084E5           STR      R7,[R4, #+28]
      8          
      9          }
   \   00000070   0400B0E1           MOVS     R0,R4
   \   00000074   F08FBDE8           POP      {R4-R11,PC}      ;; return
   \                     ??Weather_2:
   \   00000078   C3F5285C           DC32     0x5c28f5c3
   \   0000007C   8FC2F93F           DC32     0x3ff9c28f
     10          

   \                                 In segment CODE, align 4, keep-with-next
     11          Weather::Weather(Weather* copy) : 
   \                     ??Weather_1:
   \   00000000   30402DE9           PUSH     {R4,R5,LR}
   \   00000004   0040B0E1           MOVS     R4,R0
   \   00000008   0150B0E1           MOVS     R5,R1
     12            state(copy->state) , tempMin(copy->tempMin) , tempMax(copy->tempMax) , windSpeed(copy->windSpeed) ,
   \   0000000C   000095E5           LDR      R0,[R5, #+0]
   \   00000010   000084E5           STR      R0,[R4, #+0]
   \   00000014   040095E5           LDR      R0,[R5, #+4]
   \   00000018   040084E5           STR      R0,[R4, #+4]
   \   0000001C   080095E5           LDR      R0,[R5, #+8]
   \   00000020   080084E5           STR      R0,[R4, #+8]
   \   00000024   0C0095E5           LDR      R0,[R5, #+12]
   \   00000028   0C0084E5           STR      R0,[R4, #+12]
     13            averageTemp((tempMax+tempMin)/2) {
   \   0000002C   080094E5           LDR      R0,[R4, #+8]
   \   00000030   041094E5           LDR      R1,[R4, #+4]
   \   00000034   000091E0           ADDS     R0,R1,R0
   \   00000038   0210A0E3           MOV      R1,#+2
   \   0000003C   ........           _BLF     ??div32_a,??rA??div32_a
   \   00000040   101084E5           STR      R1,[R4, #+16]
     14              
     15              this->state_ = new wchar_t[ wstrlen( copy->state_ ) + 0x1];
   \   00000044   140095E5           LDR      R0,[R5, #+20]
   \   00000048   570100EF           SWI      +343
   \   0000004C   010090E2           ADDS     R0,R0,#+1
   \   00000050   0210A0E3           MOV      R1,#+2
   \   00000054   910010E0           MULS     R0,R1,R0
   \   00000058   ........           _BLF     `??operator new[]`,`??operator new[]??rA`
   \   0000005C   140084E5           STR      R0,[R4, #+20]
     16              wstrncpy( this->state_ , copy->state_ , wstrlen( copy->state_ ) );
   \   00000060   140095E5           LDR      R0,[R5, #+20]
   \   00000064   570100EF           SWI      +343
   \   00000068   0020B0E1           MOVS     R2,R0
   \   0000006C   141095E5           LDR      R1,[R5, #+20]
   \   00000070   140094E5           LDR      R0,[R4, #+20]
   \   00000074   530100EF           SWI      +339
     17              this->state_[ wstrlen( copy->state_ ) ] = 0;
   \   00000078   140095E5           LDR      R0,[R5, #+20]
   \   0000007C   570100EF           SWI      +343
   \   00000080   0210A0E3           MOV      R1,#+2
   \   00000084   142094E5           LDR      R2,[R4, #+20]
   \   00000088   912020E0           MLA      R0,R1,R0,R2
   \   0000008C   0010A0E3           MOV      R1,#+0
   \   00000090   B010C0E1           STRH     R1,[R0, #+0]
     18          
     19              this->windDirection = new wchar_t[ wstrlen( copy->windDirection ) + 0x1];
   \   00000094   180095E5           LDR      R0,[R5, #+24]
   \   00000098   570100EF           SWI      +343
   \   0000009C   010090E2           ADDS     R0,R0,#+1
   \   000000A0   0210A0E3           MOV      R1,#+2
   \   000000A4   910010E0           MULS     R0,R1,R0
   \   000000A8   ........           _BLF     `??operator new[]`,`??operator new[]??rA`
   \   000000AC   180084E5           STR      R0,[R4, #+24]
     20              wstrncpy( this->windDirection , copy->windDirection , wstrlen( copy->windDirection ) );
   \   000000B0   180095E5           LDR      R0,[R5, #+24]
   \   000000B4   570100EF           SWI      +343
   \   000000B8   0020B0E1           MOVS     R2,R0
   \   000000BC   181095E5           LDR      R1,[R5, #+24]
   \   000000C0   180094E5           LDR      R0,[R4, #+24]
   \   000000C4   530100EF           SWI      +339
     21              this->windDirection[ wstrlen( copy->windDirection ) ] = 0;
   \   000000C8   180095E5           LDR      R0,[R5, #+24]
   \   000000CC   570100EF           SWI      +343
   \   000000D0   0210A0E3           MOV      R1,#+2
   \   000000D4   182094E5           LDR      R2,[R4, #+24]
   \   000000D8   912020E0           MLA      R0,R1,R0,R2
   \   000000DC   0010A0E3           MOV      R1,#+0
   \   000000E0   B010C0E1           STRH     R1,[R0, #+0]
     22          
     23              this->longWind = new wchar_t[ wstrlen( copy->longWind ) + 0x1];
   \   000000E4   1C0095E5           LDR      R0,[R5, #+28]
   \   000000E8   570100EF           SWI      +343
   \   000000EC   010090E2           ADDS     R0,R0,#+1
   \   000000F0   0210A0E3           MOV      R1,#+2
   \   000000F4   910010E0           MULS     R0,R1,R0
   \   000000F8   ........           _BLF     `??operator new[]`,`??operator new[]??rA`
   \   000000FC   1C0084E5           STR      R0,[R4, #+28]
     24              wstrncpy( this->longWind , copy->longWind , wstrlen( copy->longWind ) );
   \   00000100   1C0095E5           LDR      R0,[R5, #+28]
   \   00000104   570100EF           SWI      +343
   \   00000108   0020B0E1           MOVS     R2,R0
   \   0000010C   1C1095E5           LDR      R1,[R5, #+28]
   \   00000110   1C0094E5           LDR      R0,[R4, #+28]
   \   00000114   530100EF           SWI      +339
     25              this->longWind[ wstrlen( copy->longWind ) ] = 0;    
   \   00000118   1C0095E5           LDR      R0,[R5, #+28]
   \   0000011C   570100EF           SWI      +343
   \   00000120   0210A0E3           MOV      R1,#+2
   \   00000124   1C2094E5           LDR      R2,[R4, #+28]
   \   00000128   912020E0           MLA      R0,R1,R0,R2
   \   0000012C   0010A0E3           MOV      R1,#+0
   \   00000130   B010C0E1           STRH     R1,[R0, #+0]
     26          }
   \   00000134   0400B0E1           MOVS     R0,R4
   \   00000138   3080BDE8           POP      {R4,R5,PC}       ;; return
     27          

   \                                 In segment CODE, align 4, keep-with-next
     28          Weather::~Weather() {
   \                     `?~Weather`:
   \   00000000   10402DE9           PUSH     {R4,LR}
   \   00000004   0040B0E1           MOVS     R4,R0
     29            if (this->state_ != NULL) { delete this->state_; this->state_ = NULL; }
   \   00000008   140094E5           LDR      R0,[R4, #+20]
   \   0000000C   000050E3           CMP      R0,#+0
   \   00000010   0300000A           BEQ      `?~Weather_1`
   \   00000014   140094E5           LDR      R0,[R4, #+20]
   \   00000018   ........           _BLF     `??operator delete`,`??operator delete??rA`
   \   0000001C   0000A0E3           MOV      R0,#+0
   \   00000020   140084E5           STR      R0,[R4, #+20]
     30            if (this->windDirection != NULL) { delete this->windDirection; this->windDirection = NULL; }
   \                     `?~Weather_1`:
   \   00000024   180094E5           LDR      R0,[R4, #+24]
   \   00000028   000050E3           CMP      R0,#+0
   \   0000002C   0300000A           BEQ      `?~Weather_2`
   \   00000030   180094E5           LDR      R0,[R4, #+24]
   \   00000034   ........           _BLF     `??operator delete`,`??operator delete??rA`
   \   00000038   0000A0E3           MOV      R0,#+0
   \   0000003C   180084E5           STR      R0,[R4, #+24]
     31            if (this->longWind != NULL) { delete this->longWind; this->longWind = NULL; }
   \                     `?~Weather_2`:
   \   00000040   1C0094E5           LDR      R0,[R4, #+28]
   \   00000044   000050E3           CMP      R0,#+0
   \   00000048   0300000A           BEQ      `?~Weather_3`
   \   0000004C   1C0094E5           LDR      R0,[R4, #+28]
   \   00000050   ........           _BLF     `??operator delete`,`??operator delete??rA`
   \   00000054   0000A0E3           MOV      R0,#+0
   \   00000058   1C0084E5           STR      R0,[R4, #+28]
     32          }
   \                     `?~Weather_3`:
   \   0000005C   1080BDE8           POP      {R4,PC}          ;; return
     33          
     34          //void Weather::setState(int state) { this->state = state; }
     35          //void Weather::setTempMin(int tempMin) { this->tempMin = tempMin; }
     36          //void Weather::setTempMax(int tempMax) { this->tempMax = tempMax; }
     37          //void Weather::setWindSpeed(int windSpeed) { this->windSpeed = windSpeed; }
     38          //void Weather::setAverageTemp(int averageTemp) { this->averageTemp = averageTemp; }
     39          //void Weather::setState_(wchar_t* state_) { this->state_ = state_; }
     40          //void Weather::setWindDirection(wchar_t* windDirection) { this->windDirection = windDirection; }
     41          

   \                                 In segment CODE, align 4, keep-with-next
     42          int Weather::getState() const { return this->state; }
   \                     ??getState:
   \   00000000   000090E5           LDR      R0,[R0, #+0]
   \   00000004   1EFF2FE1           BX       LR               ;; return

   \                                 In segment CODE, align 4, keep-with-next
     43          int Weather::getTempMin() const { return this->tempMin; }
   \                     ??getTempMin:
   \   00000000   040090E5           LDR      R0,[R0, #+4]
   \   00000004   1EFF2FE1           BX       LR               ;; return

   \                                 In segment CODE, align 4, keep-with-next
     44          int Weather::getTempMax() const { return this->tempMax; }
   \                     ??getTempMax:
   \   00000000   080090E5           LDR      R0,[R0, #+8]
   \   00000004   1EFF2FE1           BX       LR               ;; return

   \                                 In segment CODE, align 4, keep-with-next
     45          int Weather::getWindSpeed() const { return this->windSpeed; }
   \                     ??getWindSpeed:
   \   00000000   0C0090E5           LDR      R0,[R0, #+12]
   \   00000004   1EFF2FE1           BX       LR               ;; return

   \                                 In segment CODE, align 4, keep-with-next
     46          int Weather::getAverageTemp() const { return this->averageTemp; }
   \                     ??getAverageTemp:
   \   00000000   100090E5           LDR      R0,[R0, #+16]
   \   00000004   1EFF2FE1           BX       LR               ;; return

   \                                 In segment CODE, align 4, keep-with-next
     47          wchar_t* Weather::getState_() const { return this->state_; }
   \                     ??getState_:
   \   00000000   140090E5           LDR      R0,[R0, #+20]
   \   00000004   1EFF2FE1           BX       LR               ;; return

   \                                 In segment CODE, align 4, keep-with-next
     48          wchar_t* Weather::getWindDirection() const { return this->windDirection; }
   \                     ??getWindDirection:
   \   00000000   180090E5           LDR      R0,[R0, #+24]
   \   00000004   1EFF2FE1           BX       LR               ;; return

   \                                 In segment CODE, align 4, keep-with-next
     49          wchar_t* Weather::getLongWind() const { return this->longWind; }
   \                     ??getLongWind:
   \   00000000   1C0090E5           LDR      R0,[R0, #+28]
   \   00000004   1EFF2FE1           BX       LR               ;; return

   \                                 In segment CODE, align 4, keep-with-next
   \   __??Code32?? __code __interwork __atpcs Weather &Weather::new Weather(int, int, int, int, wchar_t *, wchar_t *, wchar_t *)
   \                     `??new Weather`:
   \   00000000   F0472DE9           PUSH     {R4-R10,LR}
   \   00000004   0040B0E1           MOVS     R4,R0
   \   00000008   0150B0E1           MOVS     R5,R1
   \   0000000C   0260B0E1           MOVS     R6,R2
   \   00000010   0370B0E1           MOVS     R7,R3
   \   00000014   20809DE5           LDR      R8,[SP, #+32]
   \   00000018   24909DE5           LDR      R9,[SP, #+36]
   \   0000001C   28A09DE5           LDR      R10,[SP, #+40]
   \   00000020   2000A0E3           MOV      R0,#+32
   \   00000024   ........           _BLF     `??operator new`,`??operator new??rA`
   \   00000028   000050E3           CMP      R0,#+0
   \   0000002C   0900000A           BEQ      `??new Weather_2`
   \   00000030   00042DE9           PUSH     {R10}
   \   00000034   00022DE9           PUSH     {R9}
   \   00000038   00012DE9           PUSH     {R8}
   \   0000003C   80002DE9           PUSH     {R7}
   \   00000040   0630B0E1           MOVS     R3,R6
   \   00000044   0520B0E1           MOVS     R2,R5
   \   00000048   0410B0E1           MOVS     R1,R4
   \   0000004C   ........           BL       ??Weather
   \   00000050   10D08DE2           ADD      SP,SP,#+16       ;; stack cleaning
   \   00000054   000000EA           B        `??new Weather_3`
   \                     `??new Weather_2`:
   \   00000058   0000A0E3           MOV      R0,#+0
   \                     `??new Weather_3`:
   \   0000005C   F087BDE8           POP      {R4-R10,PC}      ;; return

   \                                 In segment CODE, align 4, keep-with-next
   \   __??Code32?? __code __interwork __atpcs Weather &Weather::new Weather(Weather *)
   \                     `??new Weather_1`:
   \   00000000   10402DE9           PUSH     {R4,LR}
   \   00000004   0040B0E1           MOVS     R4,R0
   \   00000008   2000A0E3           MOV      R0,#+32
   \   0000000C   ........           _BLF     `??operator new`,`??operator new??rA`
   \   00000010   000050E3           CMP      R0,#+0
   \   00000014   0200000A           BEQ      `??new Weather_4`
   \   00000018   0410B0E1           MOVS     R1,R4
   \   0000001C   ........           BL       ??Weather_1
   \   00000020   000000EA           B        `??new Weather_5`
   \                     `??new Weather_4`:
   \   00000024   0000A0E3           MOV      R0,#+0
   \                     `??new Weather_5`:
   \   00000028   1080BDE8           POP      {R4,PC}          ;; return

   \                                 In segment CODE, align 4, keep-with-next
   \   __??Code32?? __code __interwork __atpcs void Weather::delete ~Weather(Weather *)
   \                     `??delete ~Weather`:
   \   00000000   10402DE9           PUSH     {R4,LR}
   \   00000004   0040B0E1           MOVS     R4,R0
   \   00000008   000054E3           CMP      R4,#+0
   \   0000000C   0300000A           BEQ      `??delete ~Weather_1`
   \   00000010   0400B0E1           MOVS     R0,R4
   \   00000014   ........           BL       `?~Weather`
   \   00000018   0400B0E1           MOVS     R0,R4
   \   0000001C   ........           _BLF     `??operator delete`,`??operator delete??rA`
   \                     `??delete ~Weather_1`:
   \   00000020   1080BDE8           POP      {R4,PC}          ;; return
     50          

   Maximum stack usage in bytes:

     Function                       CSTACK
     --------                       ------
     Weather::Weather(Weather *)       12
     Weather::Weather(int, int, int, int, wchar_t *, wchar_t *, wchar_t *)
                                       36
     Weather::delete ~Weather(Weather *)
                                        8
     Weather::getAverageTemp() const
                                        0
     Weather::getLongWind() const       0
     Weather::getState() const          0
     Weather::getState_() const         0
     Weather::getTempMax() const        0
     Weather::getTempMin() const        0
     Weather::getWindDirection() const
                                        0
     Weather::getWindSpeed() const      0
     Weather::new Weather(Weather *)
                                        8
     Weather::new Weather(int, int, int, int, wchar_t *, wchar_t *, wchar_t *)
                                       48
     Weather::~Weather()                8


   Segment part sizes:

     Function/Label                 Bytes
     --------------                 -----
     Weather::Weather(int, int, int, int, wchar_t *, wchar_t *, wchar_t *)
                                     128
     Weather::Weather(Weather *)     316
     Weather::~Weather()              96
     Weather::getState() const         8
     Weather::getTempMin() const       8
     Weather::getTempMax() const       8
     Weather::getWindSpeed() const     8
     Weather::getAverageTemp() const
                                       8
     Weather::getState_() const        8
     Weather::getWindDirection() const
                                       8
     Weather::getLongWind() const      8
     Weather::new Weather(int, int, int, int, wchar_t *, wchar_t *, wchar_t *)
                                      96
     Weather::new Weather(Weather *)
                                      44
     Weather::delete ~Weather(Weather *)
                                      36
      Others                         140

 
 920 bytes in segment CODE
 
 780 bytes of CODE memory (+ 140 bytes shared)

Errors: none
Warnings: none
