##############################################################################
#                                                                            #
# IAR ARM ANSI C/C++ Compiler V4.42A/W32 EVALUATION    08/May/2011  19:48:27 #
# Copyright 1999-2005 IAR Systems. All rights reserved.                      #
#                                                                            #
#    Cpu mode        =  interwork                                            #
#    Endian          =  little                                               #
#    Stack alignment =  4                                                    #
#    Source file     =  C:\Users\Faby\Desktop\StudyElf\GlassUIWidget\mybook. #
#                       cpp                                                  #
#    Command line    =  C:\Users\Faby\Desktop\StudyElf\GlassUIWidget\mybook. #
#                       cpp -D OLDFUNCTIONS -lC C:\Users\Faby\Desktop\StudyE #
#                       lf\GlassUIWidget\Debug\List\ -lA                     #
#                       C:\Users\Faby\Desktop\StudyElf\GlassUIWidget\Debug\L #
#                       ist\ -o C:\Users\Faby\Desktop\StudyElf\GlassUIWidget #
#                       \Debug\Obj\ -z2 --no_cse --no_unroll --no_inline     #
#                       --no_code_motion --no_tbaa --no_clustering           #
#                       --no_scheduling --debug --cpu_mode arm --endian      #
#                       little --cpu ARM926EJ-S --stack_align 4 --interwork  #
#                       -e --fpu None --eec++ --dlib_config                  #
#                       "C:\Users\Faby\EmbebedIAR\Embedded Workbench 4.0     #
#                       Evaluation\ARM\LIB\dl5tpainl8n.h" -I                 #
#                       "C:\Users\Faby\EmbebedIAR\Embedded Workbench 4.0     #
#                       Evaluation\ARM\INC\"                                 #
#    List file       =  C:\Users\Faby\Desktop\StudyElf\GlassUIWidget\Debug\L #
#                       ist\mybook.lst                                       #
#    Object file     =  C:\Users\Faby\Desktop\StudyElf\GlassUIWidget\Debug\O #
#                       bj\mybook.r79                                        #
#                                                                            #
#                                                                            #
##############################################################################

C:\Users\Faby\Desktop\StudyElf\GlassUIWidget\mybook.cpp
      1          #include "..\include\Lib_Clara.h"
      2          #include "..\include\Dir.h"
      3          #include "bcfg\config_data.h"
      4          #include "mybook.h"
      5          #include "debug.h"
      6          #include "utils\weather.h"
      7          

   \                                 In segment CODE, align 4, keep-with-next
      8          MyBook::MyBook() : awBook(new BOOK) , location(NULL) , dayWeather(NULL), nightWeather(NULL) , weatherToDraw(NULL) , 
   \                     ??MyBook:
   \   00000000   10402DE9           PUSH     {R4,LR}
   \   00000004   0040B0E1           MOVS     R4,R0
   \   00000008   1800A0E3           MOV      R0,#+24
   \   0000000C   ........           _BLF     `??operator new`,`??operator new??rA`
   \   00000010   000084E5           STR      R0,[R4, #+0]
   \   00000014   0000A0E3           MOV      R0,#+0
   \   00000018   040084E5           STR      R0,[R4, #+4]
   \   0000001C   0000A0E3           MOV      R0,#+0
   \   00000020   080084E5           STR      R0,[R4, #+8]
   \   00000024   0000A0E3           MOV      R0,#+0
   \   00000028   0C0084E5           STR      R0,[R4, #+12]
   \   0000002C   0000A0E3           MOV      R0,#+0
   \   00000030   100084E5           STR      R0,[R4, #+16]
      9          error(false) , hourSeted(-1) , gc(get_DisplayGC()) , dateToDraw(NULL)  , weekToDraw(NULL), monthToDraw(NULL)  {  
   \   00000034   0000E0E3           MVN      R0,#+0
   \   00000038   140084E5           STR      R0,[R4, #+20]
   \   0000003C   0000A0E3           MOV      R0,#+0
   \   00000040   1800C4E5           STRB     R0,[R4, #+24]
   \   00000044   E50100EF           SWI      +485
   \   00000048   1C0084E5           STR      R0,[R4, #+28]
   \   0000004C   0000A0E3           MOV      R0,#+0
   \   00000050   3C0084E5           STR      R0,[R4, #+60]
   \   00000054   0000A0E3           MOV      R0,#+0
   \   00000058   880084E5           STR      R0,[R4, #+136]
   \   0000005C   0000A0E3           MOV      R0,#+0
   \   00000060   900084E5           STR      R0,[R4, #+144]
     10            loadDateNames();
   \   00000064   0400B0E1           MOVS     R0,R4
   \   00000068   ........           BL       ??loadDateNames
     11          }
   \   0000006C   0400B0E1           MOVS     R0,R4
   \   00000070   1080BDE8           POP      {R4,PC}          ;; return

   \                                 In segment CODE, align 4, keep-with-next
     12          void MyBook::fillWcharArray(const wchar_t** dest, const wchar_t** src, int len ) {
   \                     ??fillWcharArray:
   \   00000000   70002DE9           PUSH     {R4-R6}
     13            for (int i=0; i < len; i++)
   \   00000004   0040A0E3           MOV      R4,#+0
   \   00000008   04C0B0E1           MOVS     R12,R4
   \                     ??fillWcharArray_1:
   \   0000000C   03005CE1           CMP      R12,R3
   \   00000010   070000AA           BGE      ??fillWcharArray_2
     14              dest[i] = src[i];
   \   00000014   0440A0E3           MOV      R4,#+4
   \   00000018   941C25E0           MLA      R5,R4,R12,R1
   \   0000001C   0440A0E3           MOV      R4,#+4
   \   00000020   942C26E0           MLA      R6,R4,R12,R2
   \   00000024   004096E5           LDR      R4,[R6, #+0]
   \   00000028   004085E5           STR      R4,[R5, #+0]
   \   0000002C   01C09CE2           ADDS     R12,R12,#+1
   \   00000030   F5FFFFEA           B        ??fillWcharArray_1
     15          }
   \                     ??fillWcharArray_2:
   \   00000034   7000BDE8           POP      {R4-R6}
   \   00000038   1EFF2FE1           BX       LR               ;; return

   \                                 In segment CODE, align 4, keep-with-next
     16          void MyBook::loadDateNames() {
   \                     ??loadDateNames:
   \   00000000   10402DE9           PUSH     {R4,LR}
   \   00000004   64D04DE2           SUB      SP,SP,#+100
   \   00000008   0040B0E1           MOVS     R4,R0
     17            const wchar_t* tempWeeks[0x7] = { BCFG_Date_Weekday_Monday, BCFG_Date_Weekday_Tuesday, BCFG_Date_Weekday_Wednesday,
     18            BCFG_Date_Weekday_Thursday, BCFG_Date_Weekday_Friday, BCFG_Date_Weekday_Saturday, BCFG_Date_Weekday_Sunday };
   \   0000000C   48008DE2           ADD      R0,SP,#+72
   \   00000010   5C109FE5           LDR      R1,??loadDateNames_1  ;; `?<Constant {BCFG_Date_Weekday_Monday, BCFG_Dat`
   \   00000014   1C30A0E3           MOV      R3,#+28
   \                     ??loadDateNames_2:
   \   00000018   043053E2           SUBS     R3,R3,#+4
   \   0000001C   032091E7           LDR      R2,[R1, R3]
   \   00000020   032080E7           STR      R2,[R0, R3]
   \   00000024   FBFFFF1A           BNE      ??loadDateNames_2
     19          
     20            const wchar_t* tempMonth[0x12] = { BCFG_Date_Month_January, BCFG_Date_Month_February, BCFG_Date_Month_March,
     21              BCFG_Date_Month_April, BCFG_Date_Month_May, BCFG_Date_Month_June, BCFG_Date_Month_July, BCFG_Date_Month_August,
     22              BCFG_Date_Month_September, BCFG_Date_Month_October, BCFG_Date_Month_November, BCFG_Date_Month_December };
   \   00000028   0D00B0E1           MOVS     R0,SP
   \   0000002C   44109FE5           LDR      R1,??loadDateNames_1+0x4  ;; `?<Constant {BCFG_Date_Month_January, BCFG_Date`
   \   00000030   4830A0E3           MOV      R3,#+72
   \                     ??loadDateNames_3:
   \   00000034   043053E2           SUBS     R3,R3,#+4
   \   00000038   032091E7           LDR      R2,[R1, R3]
   \   0000003C   032080E7           STR      R2,[R0, R3]
   \   00000040   FBFFFF1A           BNE      ??loadDateNames_3
     23          
     24            fillWcharArray(weekNames, tempWeeks, 7);
   \   00000044   0730A0E3           MOV      R3,#+7
   \   00000048   48208DE2           ADD      R2,SP,#+72
   \   0000004C   201094E2           ADDS     R1,R4,#+32
   \   00000050   0400B0E1           MOVS     R0,R4
   \   00000054   ........           BL       ??fillWcharArray
     25            fillWcharArray(monthNames, tempMonth, 12);
   \   00000058   0C30A0E3           MOV      R3,#+12
   \   0000005C   0D20B0E1           MOVS     R2,SP
   \   00000060   401094E2           ADDS     R1,R4,#+64
   \   00000064   0400B0E1           MOVS     R0,R4
   \   00000068   ........           BL       ??fillWcharArray
     26          }
   \   0000006C   64D08DE2           ADD      SP,SP,#+100      ;; stack cleaning
   \   00000070   1080BDE8           POP      {R4,PC}          ;; return
   \                     ??loadDateNames_1:
   \   00000074   ........           DC32     `?<Constant {BCFG_Date_Weekday_Monday, BCFG_Dat`
   \   00000078   ........           DC32     `?<Constant {BCFG_Date_Month_January, BCFG_Date`
     27          

   \                                 In segment CODE, align 4, keep-with-next
     28          void MyBook::donothing() {}
   \                     ??donothing:
   \   00000000   1EFF2FE1           BX       LR               ;; return
     29          

   \                                 In segment CODE, align 4, keep-with-next
     30          BOOK* MyBook::getBook() const { return this->awBook; }
   \                     ??getBook:
   \   00000000   000090E5           LDR      R0,[R0, #+0]
   \   00000004   1EFF2FE1           BX       LR               ;; return

   \                                 In segment CODE, align 4, keep-with-next
     31          bool MyBook::getError() const { return this->error; }
   \                     ??getError:
   \   00000000   1800D0E5           LDRB     R0,[R0, #+24]
   \   00000004   1EFF2FE1           BX       LR               ;; return

   \                                 In segment CODE, align 4, keep-with-next
     32          u16 MyBook::getFTimer() const { return this->ftimer; }
   \                     ??getFTimer:
   \   00000000   BC09D0E1           LDRH     R0,[R0, #+156]
   \   00000004   1EFF2FE1           BX       LR               ;; return

   \                                 In segment CODE, align 4, keep-with-next
     33          GC* MyBook::getGC() const { return this->gc; }
   \                     ??getGC:
   \   00000000   1C0090E5           LDR      R0,[R0, #+28]
   \   00000004   1EFF2FE1           BX       LR               ;; return

   \                                 In segment CODE, align 4, keep-with-next
     34          int MyBook::getHourSeted() const { return this->hourSeted; }
   \                     ??getHourSeted:
   \   00000000   140090E5           LDR      R0,[R0, #+20]
   \   00000004   1EFF2FE1           BX       LR               ;; return

   \                                 In segment CODE, align 4, keep-with-next
     35          Weather* MyBook::getWeatherToDraw() const { return this->weatherToDraw; }
   \                     ??getWeatherToDraw:
   \   00000000   100090E5           LDR      R0,[R0, #+16]
   \   00000004   1EFF2FE1           BX       LR               ;; return

   \                                 In segment CODE, align 4, keep-with-next
     36          Weather* MyBook::getDayWeather() const { return this->dayWeather; }
   \                     ??getDayWeather:
   \   00000000   080090E5           LDR      R0,[R0, #+8]
   \   00000004   1EFF2FE1           BX       LR               ;; return

   \                                 In segment CODE, align 4, keep-with-next
     37          Weather* MyBook::getNightWeather() const { return this->nightWeather; }
   \                     ??getNightWeather:
   \   00000000   0C0090E5           LDR      R0,[R0, #+12]
   \   00000004   1EFF2FE1           BX       LR               ;; return

   \                                 In segment CODE, align 4, keep-with-next
     38          wchar_t* MyBook::getLocation() const { return this->location; }
   \                     ??getLocation:
   \   00000000   040090E5           LDR      R0,[R0, #+4]
   \   00000004   1EFF2FE1           BX       LR               ;; return
     39          

   \                                 In segment CODE, align 4, keep-with-next
     40          void MyBook::freeWDraw() { delete this->weatherToDraw; this->weatherToDraw = NULL; }
   \                     ??freeWDraw:
   \   00000000   30402DE9           PUSH     {R4,R5,LR}
   \   00000004   0040B0E1           MOVS     R4,R0
   \   00000008   105094E5           LDR      R5,[R4, #+16]
   \   0000000C   000055E3           CMP      R5,#+0
   \   00000010   0300000A           BEQ      ??freeWDraw_1
   \   00000014   0500B0E1           MOVS     R0,R5
   \   00000018   ........           _BLF     `?~Weather`,`?~Weather??rA`
   \   0000001C   0500B0E1           MOVS     R0,R5
   \   00000020   ........           _BLF     `??operator delete`,`??operator delete??rA`
   \                     ??freeWDraw_1:
   \   00000024   0000A0E3           MOV      R0,#+0
   \   00000028   100084E5           STR      R0,[R4, #+16]
   \   0000002C   3080BDE8           POP      {R4,R5,PC}       ;; return

   \                                 In segment CODE, align 4, keep-with-next
     41          void MyBook::setHour(int hour) { this->hourSeted = hour; }
   \                     ??setHour:
   \   00000000   141080E5           STR      R1,[R0, #+20]
   \   00000004   1EFF2FE1           BX       LR               ;; return

   \                                 In segment CODE, align 4, keep-with-next
     42          void MyBook::setWDraw(int one) { (one == 1) ? weatherToDraw = new Weather(dayWeather) : weatherToDraw = new Weather(nightWeather); }
   \                     ??setWDraw:
   \   00000000   70402DE9           PUSH     {R4-R6,LR}
   \   00000004   0040B0E1           MOVS     R4,R0
   \   00000008   0150B0E1           MOVS     R5,R1
   \   0000000C   010055E3           CMP      R5,#+1
   \   00000010   0C00001A           BNE      ??setWDraw_1
   \   00000014   2000A0E3           MOV      R0,#+32
   \   00000018   ........           _BLF     `??operator new`,`??operator new??rA`
   \   0000001C   0060B0E1           MOVS     R6,R0
   \   00000020   000056E3           CMP      R6,#+0
   \   00000024   0300000A           BEQ      ??setWDraw_2
   \   00000028   081094E5           LDR      R1,[R4, #+8]
   \   0000002C   0600B0E1           MOVS     R0,R6
   \   00000030   ........           _BLF     ??Weather,??Weather??rA
   \   00000034   000000EA           B        ??setWDraw_3
   \                     ??setWDraw_2:
   \   00000038   0060A0E3           MOV      R6,#+0
   \                     ??setWDraw_3:
   \   0000003C   106084E5           STR      R6,[R4, #+16]
   \   00000040   0000A0E3           MOV      R0,#+0
   \   00000044   0B0000EA           B        ??setWDraw_4
   \                     ??setWDraw_1:
   \   00000048   2000A0E3           MOV      R0,#+32
   \   0000004C   ........           _BLF     `??operator new`,`??operator new??rA`
   \   00000050   0060B0E1           MOVS     R6,R0
   \   00000054   000056E3           CMP      R6,#+0
   \   00000058   0300000A           BEQ      ??setWDraw_5
   \   0000005C   0C1094E5           LDR      R1,[R4, #+12]
   \   00000060   0600B0E1           MOVS     R0,R6
   \   00000064   ........           _BLF     ??Weather,??Weather??rA
   \   00000068   000000EA           B        ??setWDraw_6
   \                     ??setWDraw_5:
   \   0000006C   0060A0E3           MOV      R6,#+0
   \                     ??setWDraw_6:
   \   00000070   106084E5           STR      R6,[R4, #+16]
   \   00000074   0000A0E3           MOV      R0,#+0
   \                     ??setWDraw_4:
   \   00000078   7080BDE8           POP      {R4-R6,PC}       ;; return

   \                                 In segment CODE, align 4, keep-with-next
     43          void MyBook::setError(bool error) { this->error = error; }
   \                     ??setError:
   \   00000000   1810C0E5           STRB     R1,[R0, #+24]
   \   00000004   1EFF2FE1           BX       LR               ;; return

   \                                 In segment CODE, align 4, keep-with-next
     44          void MyBook::setLocation(wchar_t* location) { this->location = location; }
   \                     ??setLocation:
   \   00000000   041080E5           STR      R1,[R0, #+4]
   \   00000004   1EFF2FE1           BX       LR               ;; return

   \                                 In segment CODE, align 4, keep-with-next
     45          void MyBook::setDayWeather(Weather* day) { this->dayWeather = day; }
   \                     ??setDayWeather:
   \   00000000   081080E5           STR      R1,[R0, #+8]
   \   00000004   1EFF2FE1           BX       LR               ;; return

   \                                 In segment CODE, align 4, keep-with-next
     46          void MyBook::setNightWeather(Weather* night) { this->nightWeather = night; }
   \                     ??setNightWeather:
   \   00000000   0C1080E5           STR      R1,[R0, #+12]
   \   00000004   1EFF2FE1           BX       LR               ;; return
     47          
     48          

   \                                 In segment CODE, align 4, keep-with-next
     49          void MyBook::freeMyVars() {
   \                     ??freeMyVars:
   \   00000000   30402DE9           PUSH     {R4,R5,LR}
   \   00000004   0040B0E1           MOVS     R4,R0
     50            if (location != NULL) {
   \   00000008   040094E5           LDR      R0,[R4, #+4]
   \   0000000C   000050E3           CMP      R0,#+0
   \   00000010   0300000A           BEQ      ??freeMyVars_1
     51              delete location;
   \   00000014   040094E5           LDR      R0,[R4, #+4]
   \   00000018   ........           _BLF     `??operator delete`,`??operator delete??rA`
     52              location = NULL;
   \   0000001C   0000A0E3           MOV      R0,#+0
   \   00000020   040084E5           STR      R0,[R4, #+4]
     53            }
     54            if (dayWeather != NULL) {
   \                     ??freeMyVars_1:
   \   00000024   080094E5           LDR      R0,[R4, #+8]
   \   00000028   000050E3           CMP      R0,#+0
   \   0000002C   0800000A           BEQ      ??freeMyVars_2
     55              delete dayWeather;
   \   00000030   085094E5           LDR      R5,[R4, #+8]
   \   00000034   000055E3           CMP      R5,#+0
   \   00000038   0300000A           BEQ      ??freeMyVars_3
   \   0000003C   0500B0E1           MOVS     R0,R5
   \   00000040   ........           _BLF     `?~Weather`,`?~Weather??rA`
   \   00000044   0500B0E1           MOVS     R0,R5
   \   00000048   ........           _BLF     `??operator delete`,`??operator delete??rA`
     56              dayWeather = NULL;
   \                     ??freeMyVars_3:
   \   0000004C   0000A0E3           MOV      R0,#+0
   \   00000050   080084E5           STR      R0,[R4, #+8]
     57            }
     58            if (nightWeather != NULL) {
   \                     ??freeMyVars_2:
   \   00000054   0C0094E5           LDR      R0,[R4, #+12]
   \   00000058   000050E3           CMP      R0,#+0
   \   0000005C   0800000A           BEQ      ??freeMyVars_4
     59              delete nightWeather;   
   \   00000060   0C5094E5           LDR      R5,[R4, #+12]
   \   00000064   000055E3           CMP      R5,#+0
   \   00000068   0300000A           BEQ      ??freeMyVars_5
   \   0000006C   0500B0E1           MOVS     R0,R5
   \   00000070   ........           _BLF     `?~Weather`,`?~Weather??rA`
   \   00000074   0500B0E1           MOVS     R0,R5
   \   00000078   ........           _BLF     `??operator delete`,`??operator delete??rA`
     60              nightWeather = NULL;
   \                     ??freeMyVars_5:
   \   0000007C   0000A0E3           MOV      R0,#+0
   \   00000080   0C0084E5           STR      R0,[R4, #+12]
     61            }
     62            if (weatherToDraw != NULL) { 
   \                     ??freeMyVars_4:
   \   00000084   100094E5           LDR      R0,[R4, #+16]
   \   00000088   000050E3           CMP      R0,#+0
   \   0000008C   0800000A           BEQ      ??freeMyVars_6
     63              delete weatherToDraw;
   \   00000090   105094E5           LDR      R5,[R4, #+16]
   \   00000094   000055E3           CMP      R5,#+0
   \   00000098   0300000A           BEQ      ??freeMyVars_7
   \   0000009C   0500B0E1           MOVS     R0,R5
   \   000000A0   ........           _BLF     `?~Weather`,`?~Weather??rA`
   \   000000A4   0500B0E1           MOVS     R0,R5
   \   000000A8   ........           _BLF     `??operator delete`,`??operator delete??rA`
     64              weatherToDraw = NULL; 
   \                     ??freeMyVars_7:
   \   000000AC   0000A0E3           MOV      R0,#+0
   \   000000B0   100084E5           STR      R0,[R4, #+16]
     65            }
     66            if (dateToDraw != NULL) {
   \                     ??freeMyVars_6:
   \   000000B4   900094E5           LDR      R0,[R4, #+144]
   \   000000B8   000050E3           CMP      R0,#+0
   \   000000BC   0300000A           BEQ      ??freeMyVars_8
     67              delete dateToDraw;
   \   000000C0   900094E5           LDR      R0,[R4, #+144]
   \   000000C4   ........           _BLF     `??operator delete`,`??operator delete??rA`
     68              dateToDraw = NULL;
   \   000000C8   0000A0E3           MOV      R0,#+0
   \   000000CC   900084E5           STR      R0,[R4, #+144]
     69            }
     70          }
   \                     ??freeMyVars_8:
   \   000000D0   3080BDE8           POP      {R4,R5,PC}       ;; return

   \                                 In segment DATA_C, align 4, align-sorted
   \                     `?<Constant {BCFG_Date_Weekday_Monday, BCFG_Dat`:
   \   00000000   ............       DC32 BCFG_Date_Weekday_Monday, BCFG_Date_Weekday_Tuesday
   \              ....        
   \   00000008   ............       DC32 BCFG_Date_Weekday_Wednesday, BCFG_Date_Weekday_Thursday
   \              ....        
   \   00000010   ............       DC32 BCFG_Date_Weekday_Friday, BCFG_Date_Weekday_Saturday
   \              ....        
   \   00000018   ........           DC32 BCFG_Date_Weekday_Sunday

   \                                 In segment DATA_C, align 4, align-sorted
   \                     `?<Constant {BCFG_Date_Month_January, BCFG_Date`:
   \   00000000   ............       DC32 BCFG_Date_Month_January, BCFG_Date_Month_February
   \              ....        
   \   00000008   ............       DC32 BCFG_Date_Month_March, BCFG_Date_Month_April, BCFG_Date_Month_May
   \              ............
   \   00000014   ............       DC32 BCFG_Date_Month_June, BCFG_Date_Month_July, BCFG_Date_Month_August
   \              ............
   \   00000020   ............       DC32 BCFG_Date_Month_September, BCFG_Date_Month_October
   \              ....        
   \   00000028   ............       DC32 BCFG_Date_Month_November, BCFG_Date_Month_December
   \              ....        
   \   00000030   000000000000       DC8 0, 0, 0, 0, 0, 0, 0, 0, 0, 0, 0, 0, 0, 0, 0, 0
   \              000000000000
   \              00000000    
   \   00000040   000000000000       DC8 0, 0, 0, 0, 0, 0, 0, 0
   \              0000        

   \                                 In segment CODE, align 4, keep-with-next
   \   __??Code32?? __code __interwork __atpcs MyBook &MyBook::new MyBook()
   \                     `??new MyBook`:
   \   00000000   00402DE9           PUSH     {LR}
   \   00000004   A800A0E3           MOV      R0,#+168
   \   00000008   ........           _BLF     `??operator new`,`??operator new??rA`
   \   0000000C   000050E3           CMP      R0,#+0
   \   00000010   0100000A           BEQ      `??new MyBook_1`
   \   00000014   ........           BL       ??MyBook
   \   00000018   000000EA           B        `??new MyBook_2`
   \                     `??new MyBook_1`:
   \   0000001C   0000A0E3           MOV      R0,#+0
   \                     `??new MyBook_2`:
   \   00000020   0080BDE8           POP      {PC}             ;; return

   Maximum stack usage in bytes:

     Function                       CSTACK
     --------                       ------
     MyBook::MyBook()                   8
     MyBook::donothing()                0
     MyBook::fillWcharArray(wchar_t const **, wchar_t const **, int)
                                       12
     MyBook::freeMyVars()              12
     MyBook::freeWDraw()               12
     MyBook::getBook() const            0
     MyBook::getDayWeather() const      0
     MyBook::getError() const           0
     MyBook::getFTimer() const          0
     MyBook::getGC() const              0
     MyBook::getHourSeted() const       0
     MyBook::getLocation() const        0
     MyBook::getNightWeather() const
                                        0
     MyBook::getWeatherToDraw() const
                                        0
     MyBook::loadDateNames()          108
     MyBook::new MyBook()               4
     MyBook::setDayWeather(Weather *)
                                        0
     MyBook::setError(bool)             0
     MyBook::setHour(int)               0
     MyBook::setLocation(wchar_t *)     0
     MyBook::setNightWeather(Weather *)
                                        0
     MyBook::setWDraw(int)             16


   Segment part sizes:

     Function/Label                 Bytes
     --------------                 -----
     MyBook::MyBook()                116
     MyBook::fillWcharArray(wchar_t const **, wchar_t const **, int)
                                      60
     MyBook::loadDateNames()         124
     MyBook::donothing()               4
     MyBook::getBook() const           8
     MyBook::getError() const          8
     MyBook::getFTimer() const         8
     MyBook::getGC() const             8
     MyBook::getHourSeted() const      8
     MyBook::getWeatherToDraw() const
                                       8
     MyBook::getDayWeather() const     8
     MyBook::getNightWeather() const
                                       8
     MyBook::getLocation() const       8
     MyBook::freeWDraw()              48
     MyBook::setHour(int)              8
     MyBook::setWDraw(int)           124
     MyBook::setError(bool)            8
     MyBook::setLocation(wchar_t *)    8
     MyBook::setDayWeather(Weather *)
                                       8
     MyBook::setNightWeather(Weather *)
                                       8
     MyBook::freeMyVars()            212
     ?<Constant {BCFG_Date_Weekday_Monday, BCFG_Dat
                                      28
     ?<Constant {BCFG_Date_Month_January, BCFG_Date
                                      72
     MyBook::new MyBook()             36
      Others                         136

 
 972 bytes in segment CODE
 100 bytes in segment DATA_C
 
 836 bytes of CODE  memory (+ 136 bytes shared)
 100 bytes of CONST memory

Errors: none
Warnings: none
